{"main_library":{"exported_symbols":[{"data":{"global":["__ZN3geo2ar29FacadesSnapshotId_class_data_E","__ZN4logs5proto3geo2ar49_RealDeadReckonedPoseMixerEvent_default_instance_E","__ZN13google_public8protobuf4util6Status7UNKNOWNE","_silk_Resampler_2_3_COEFS","__ZTS11VROPerfTest","__ZN8location8bluemoon24CloudLocalizationOptions7_table_E","__ZN4logs5proto3geo2ar31RealDeadReckonedPoseMixerConfig7_table_E","__ZTV19VROARImageTargetiOS","__ZTIN4logs5proto3geo2ar47SmoothedTransformOptions_SimpleSmoothingOptionsE","__ZTVN6proto22io18StringOutputStreamE","__ZN6proto28internal12ExtensionSet28maybe_create_lazy_extension_E","__ZN4logs5proto3geo2ar45RealDeadReckonedPoseMixerConfig_Uncertainties7_table_E","__ZN6google3geo2ar2v135CloudLocalizationServiceResultProto7_table_E","__ZN8WatchDog10dogs_lock_E","_iPad7_5","__ZTVN3geo2ar45CameraIntrinsics_CityblockFisheyeV2DistortionE","__ZTV19VROThreadRestricted","__ZTSN4logs5proto3geo2ar20StepDetectionOptionsE","__ZN3geo2ar16CameraParameters7_table_E","__ZTSN4absl13cord_internal11CordzHandleE","__ZTSN4logs5proto3geo2ar28RigidTransformWithConfidenceE","__ZTI26VROPortalTraversalListener","__ZTSN4viro18Node_Skeleton_BoneE","__ZTV18VROSceneController","_GARSessionErrorDomain","_redwood_CameraProfileProto_ThermalModel_LinearModel_fields","_kOpenGLWorldTTangoWorld","__ZN6google3geo2ar2v123FacadesCell_class_data_E","__ZTIN6icu_7710AppendableE","__ZTV14VROPortalFrame","__ZN3geo2ar21Detection_class_data_E","_iPad7_3","__ZN3geo2ar3lib9DevConfig7_table_E","__ZTV19GeoARClearcutLogger","__ZTVN4absl15CommandLineFlagE","__ZTSN4logs5proto3geo2ar36HeadingFromMotionDistributionOptionsE","__ZTSN4logs5proto3geo2ar20PoseStabilityMetricsE","__ZN3geo2ar3lib43_ParticleFilterConfig_default_instance_ptr_E","__ZN4logs5proto3geo2ar18LightEstimateEvent7_table_E","__ZTVN3geo2ar3lib43ParticleFilterConfig_RoadOrientationOptionsE","_iPhone8_4","__ZTSN3geo2ar34HeadingFromMotionDistributionProtoE","__mindot_large","__ZN6google3geo2ar2v119QueryFacadesOptions7_table_E","__ZN4logs5proto3geo2ar46_PoseLikelihoodFunctionProto_default_instance_E","__ZTIN3geo2ar3lib23AnchorProviderWithQueueE","__ZTVN3geo2ar33PositionGaussianDistributionProtoE","__ZTIN4logs5proto3geo2ar31RealDeadReckonedPoseMixerConfigE","__ZTVN4viro11Node_CameraE","__ZN8geostore33_FeatureIdProto_default_instance_E","__ZTVN3geo2ar3lib19ActualSurfaceAnchorE","__ZTVN8location8bluemoon14inertialanchor48WrappedCauchyHeadingUncertaintyModelParametersV1E","__ZTIN3ion4base8DateTimeE","__ZN3geo2ar3lib28_DebugPose_default_instance_E","__ZN4absl15status_internal14kStackTraceUrlE","__ZTIN10statistics15WallTimerDeviceE","__ZTI11VROPerfTest","__ZTV20VROARSceneController","__ZTSN8location8bluemoon23GaussianScalarPerturberE","__ZTIN6google8protobuf3AnyE","__ZN6google8internal7android8location7bluesky4type10FloatValue7_table_E","__ZTVN6tflite12ArenaPlannerE","__ZN4logs5proto3geo2ar49_TerrainAnchorUnresolvableEvent_default_instance_E","_FLAGS_stacktrace_skip_waiting_threads","__ZN6google8internal7android8location7bluesky7v1beta138_CompactGridEcef_default_instance_ptr_E","__ZTVN3geo2ar7service14LocalizeResultE","__ZN3geo2ar7service34_CellTerrain_default_instance_ptr_E","_redwood_DisplayProfileProto_fields","__ZTIN3geo2ar3lib16Project3x3ConfigE","__ZN6google3geo2ar2v137CheckAvailabilityResponse_class_data_E","__ZTVN3geo2ar3lib47SmoothedTransformOptions_SimpleSmoothingOptionsE","__ZN3geo2ar7service30T2BatchQueryElevationsResponse7_table_E","__ZTSN6google8internal7android8location7bluesky4type10Int32ValueE","__ZN3geo2ar7service40_T2QueryFacadesRequest_default_instance_E","_gRoots","__ZN3geo2ar7service11CellFacades7_table_E","__ZTVN3geo2ar22CovarianceMatrix3ProtoE","__ZN3geo2ar3lib36SmoothedTransformOptions_class_data_E","_logs_proto_vr_arcore_ArCoreLog_SessionConfigureEvent_fields","__ZTIN4absl13cord_internal9CordzInfoE","__ZN6google8protobuf8internal24log_silencer_count_init_E","__ZTIN4util17ErrorSpacePayloadE","__ZTS20VROSkeletalAnimation","__ZN4logs5proto3geo2ar55CameraIntrinsics_CityblockFisheyeDistortion_class_data_E","__ZTSN4logs5proto3geo2ar11GeoArLibLogE","__ZN4logs5proto3geo2ar51_ClientConfig_RenderingConfig_default_instance_ptr_E","__ZTI10VROTexture","__ZTVN4logs5proto3geo2ar43CameraIntrinsics_CityblockFisheyeDistortionE","__ZTVN4absl13time_internal4cctz14ZoneInfoSourceE","_kP210LoadShuffleIndices","__ZTS27VROPostProcessEffectFactory","__ZN4viro10Node_Light26kSpotOuterAngleFieldNumberE","_logs_proto_vr_arcore_ArCoreLog_ModuleInstallEvent_fields","__ZN3geo2ar3lib52_AdaptiveImageFrameLocalizerConfig_default_instance_E","__ZN3fLI28FLAGS_util_time_backoff_seedE","__ZN4base8internal17KernelVersionInfo27kDefaultKernelVersionStringE","__ZTVN3geo2ar8geometry5PointE","__ZN3geo2ar7service45T2ResolveAnchorAndLocalizeRequest_CameraImage7_table_E","__ZN3geo2ar7service41_T2LocalizeResponse_default_instance_ptr_E","_redwood_DisplayGeometryLutV2_fields","__ZN7generic8UniqueId8kInvalidE","_redwood_CompactKeyframeProto_fields","__ZTIN4logs5proto3geo2ar12BearingEventE","__ZTIN7strings13OStringStreamE","__ZTI26VROViewRecorderRTTDelegate","__ZN15VROPhysicsShape10kSphereTagE","__ZTV11VRORenderer","__ZN4logs5proto3geo2ar29LowLightImageProcessingConfig7_table_E","_FLAGS_stacktrace_timeout","__ZN4logs5proto3geo2ar17SessionStartEvent7_table_E","__ZTIN3geo2ar3lib25RealDeadReckonedPoseMixerE","__ZTI14VROPhysicsBody","__ZTIN4logs5proto3geo2ar13Vector3dProtoE","__ZN6google3geo2ar2v138_LocalizeRequest_default_instance_ptr_E","_logs_proto_vr_arcore_ArCoreLog_FaceMeshPauseAllTrackablesCalled_fields","__ZTSN4logs5proto3geo2ar37GnssMeasurementsEvent_GnssMeasurementE","__ZTS19VROCameraTextureiOS","__ZN3geo2ar53_HeadingFromMotionDistributionProto_default_instance_E","__ZN15inertial_anchor9estimator7bearing21BearingTrackingFilter22kLowPassFilterCutoffHzE","__ZN3fLD23FLAGS_density_thresholdE","__ZN6google3geo2ar2v138_WarmUpCacheResponse_default_instance_E","__ZTVN4logs5proto3geo2ar21InertialAnchorOptionsE","__ZN6google3geo2ar2v148_CheckAvailabilityResponse_default_instance_ptr_E","__ZN6google3geo2ar2v114ReferenceFrame7_table_E","__ZN6google3geo2ar2v120Triangle_class_data_E","__ZTIN3geo2ar7service45T2ResolveAnchorAndLocalizeRequest_CameraImageE","__ZN3geo2ar3lib35_Project3x3Config_default_instance_E","__ZN6proto28internal12kEmptyStringE","__ZTV22VROInputControllerBase","_google_arcorecloudanchor_v1beta2_CovarianceMatrix3Proto_fields","__ZN3geo2ar3lib48RealDeadReckonedPoseMixerConfig_ReinitConditions7_table_E","_redwood_AudioDifferencesProto_fields","_google_arcorecloudanchor_v1beta2_CameraIntrinsics_RadialDistortion_fields","__ZTSN6google3geo2ar2v15PointE","__ZN3geo2ar11Orientation7_table_E","__ZTSN3geo2ar3lib16FacadesModelImplE","__ZTI23btDiscreteDynamicsWorld","__ZTV16VROBodyMesheriOS","__ZN4logs5proto3geo2ar93_ClearcutLoggingConfig_PoseStabilityMonitorConfig_PoseJumpLoggingThresholds_default_instance_E","__ZN6google8internal7android8location7bluesky4type32_Timestamp_default_instance_ptr_E","__ZTVN6proto22io16FileOutputStreamE","__ZTIN3geo2ar3lib20Config_NetworkConfigE","__ZTIN3geo2ar3lib11SensorEventE","__ZTSN8location8bluemoon24CloudLocalizationOptionsE","__ZTS14VROARCameraiOS","__ZN3geo2ar3lib81_RealDeadReckonedPoseMixerConfig_DeadReckonedPoseEstimateConfig_default_instance_E","__ZN4viro20Node_Geometry_Source27kFloatComponentsFieldNumberE","__ZN6google8internal7android8location7bluesky7v1beta140GetGridProbabilitiesResponse_class_data_E","__ZTV26VROBodyAnimDataRecorderiOS","__ZTSN3geo2ar3lib21ClearcutLoggingConfigE","__ZN4logs5proto3geo2ar70_SmoothedTransformOptions_SimpleSmoothingOptions_default_instance_ptr_E","__ZTV21VRORenderTargetOpenGL","__ZTV19GeoAREncodableImage","__ZN6google3geo2ar2v142_QueryFacadesOptions_default_instance_ptr_E","__ZTSN4logs5proto3geo2ar6ConfigE","_iPhone10_1","__ZN3geo2ar45CameraIntrinsics_CityblockFisheyeV2Distortion7_table_E","__ZTVN7vraudio11AudioIoImplE","_iPad7_4","__ZTVN7strings8ByteSinkE","__ZN18VROBodyTrackerYolo19_labelsToJointTypesE","__ZN4absl16strings_internal10kFiveToNthE","__ZN6google3geo2ar2v132_CacheContents_default_instance_E","_iPhone5_1","_logs_proto_vr_arcore_ArCoreLog_ImageMetadataTagEvent_fields","__ZTIN3geo2ar3lib30TimedImageFrameLocalizerConfigE","__ZTIN3geo2ar33CameraIntrinsics_RadialDistortionE","__ZTIN6google3geo2ar2v116LocalizeResponseE","__ZTSN3geo2ar49HorizontalPositionAndYawGaussianDistributionProtoE","__ZN3geo2ar7service68_T2ResolveAnchorAndLocalizeResponse_ResolvedAnchor_default_instance_E","__ZN4util11StatusProto7_table_E","__ZTSN6google8internal7android8location7bluesky4type9GnssClockE","__ZN3geo2ar3lib30PerformanceMode_internal_data_E","__ZTSN3geo2ar3lib19SessionFacadesModelE","__ZN4viro21Node_Geometry_Element13Primitive_MAXE","_FLAGS_nolocation_orientation_log_interval","__ZN4logs5proto3geo2ar6Config7_table_E","__ZN15VROPhysicsShape7kBoxTagE","_iPod3_1","__ZN13google_public8protobuf8internal23empty_string_once_init_E","__ZN4logs5proto3geo2ar35_BearingEvent_default_instance_ptr_E","__ZTSN9perftools7tracing18TraceEventListenerE","__ZN6proto28internal14WireFormatLite21kMessageSetItemEndTagE","__ZN4logs5proto3geo2ar38UncertaintyPreserverConfig_class_data_E","_cpu_info_","__ZN8location8bluemoon14inertialanchor48WrappedCauchyHeadingUncertaintyModelParametersV17_table_E","__ZTI7VROText","__ZN4viro18Node_Geometry_Skin23kBoneWeightsFieldNumberE","__ZTIN3geo2ar3lib23CarryPoseChangeReporterE","__ZTVN4logs5proto3geo2ar16SensorCountEventE","__ZTSN8location8bluemoon14inertialanchor48WrappedCauchyHeadingUncertaintyModelParametersV1E","__ZN4logs5proto3geo2ar30_GeoArLibLog_default_instance_E","_redwood_CameraProfileProto_DistortionKannalaBrandtFisheye_fields","__ZN2S28internal13kFaceUVWFacesE","__ZN6google8internal7android8location7bluesky4type30_DoubleValue_default_instance_E","__ZTS23btDiscreteDynamicsWorld","__ZN8location8bluemoon26BlueskyOptions_class_data_E","__ZN6google3geo2ar2v139_FacadesCacheContents_default_instance_E","__ZTIN7redwood13FrameSelectorE","__ZN6google3geo2ar2v143_StartSessionResponse_default_instance_ptr_E","__ZTVN4logs5proto3geo2ar28ClientConfig_RenderingConfigE","__ZN4absl14ascii_internal8kToUpperE","__ZTVN3geo2ar49HorizontalPositionAndYawGaussianDistributionProtoE","__ZTIN6google3geo2ar2v120StartSessionResponseE","_FLAGS_error_type_count_log_interval","__ZTVN4viro18Node_Skeleton_BoneE","__ZN6google3geo2ar2v133_ReferenceFrame_default_instance_E","__ZN4absl13base_internal11mmap_hooks_E","_iPad6_11","__ZTSN13google_public8protobuf11MessageLiteE","_redwood_CameraProfileProto_DistortionCityblockFisheye_fields","__ZN4logs5proto3geo2ar74ClearcutLoggingConfig_PoseStabilityMonitorConfig_PoseJumpLoggingThresholds7_table_E","__ZTS14VROPortalFrame","__ZTVN7vraudio13OcclusionNodeE","__ZTI13VROPortalTest","__ZTVN3geo2ar34CameraIntrinsics_FisheyeDistortionE","_silk_LTPScales_table_Q14","_iPhone3_3","__ZN3geo2ar57_CameraIntrinsics_FisheyeDistortion_default_instance_ptr_E","__ZTVN6google8internal7android8location7bluesky4type15EcefCoordinatesE","__ZN4viro20Node_Geometry_Source8TexcoordE","_logs_proto_vr_arcore_ArCoreLog_QuaternionProto_fields","__ZN3geo2ar3lib21DebugPose_class_data_E","__ZTI10GeoARClock","__ZN4absl13base_internal14premmap_hooks_E","__ZN4logs5proto3geo2ar60ParticleFilterConfig_PositionAndYawFilterOptions_class_data_E","__ZN4logs5proto3geo2ar61_UncertaintyPreserverConfig_PerSignalConfig_default_instance_E","_logs_proto_vr_arcore_ArCoreLog_SessionConfigureEvent_ArConfig_fields","__ZTS27VROLayeredSkeletalAnimation","__ZTIN8location8bluemoon25EstimateConfidenceOptionsE","__ZTVN6tflite8internal18CallbackOpResolverE","__ZN6google3geo2ar2v124_Point_default_instance_E","__ZTIN6google8internal7android8location7bluesky7v1beta128GetGridProbabilitiesResponseE","__ZTS10VROPolygon","__ZTVN7vraudio13GainMixerNodeE","__ZTSN3geo2ar45CameraIntrinsics_CityblockFisheyeV2DistortionE","__ZTVN7vraudio20ClientCallbackStreamE","__ZTSN8location8bluemoon14inertialanchor44EmpiricalHeadingUncertaintyModelParametersV1E","__ZTIN6tflite16MemoryAllocationE","__ZTSN3geo2ar7service10AnchorPoseE","__ZN4logs5proto3geo2ar45CameraIntrinsics_RadialDistortion_class_data_E","_gNumAlignedFree","__ZN3geo2ar7service28_Elevation_default_instance_E","__ZTV17VROActionAnimated","_kDefaultSemanticsInputTensorIndex","__ZTI6Thread","__ZN4absl16strings_internal9kTenToNthE","_silk_pulses_per_block_BITS_Q5","__ZN3geo2ar7service40_LocalizeResult_Result_default_instance_E","__ZTVN4logs5proto3geo2ar15LocalizeOptionsE","__ZN4viro20Node_Geometry_Source29kBytesPerComponentFieldNumberE","__ZTIN6tflite18FileCopyAllocationE","__ZN3geo2ar3lib43RealDeadReckonedPoseMixerConfig_class_data_E","__ZN4logs5proto3geo2ar43_LocationOrientationEvent_default_instance_E","_logs_proto_vr_arcore_ArCoreLog_EarthCreateRooftopAnchorEvent_fields","__ZTSN3geo2ar3lib23AnchorProviderWithQueueE","_FLAGS_noutil_status_save_stack_trace","__ZN3geo2ar28CameraIntrinsics_class_data_E","__ZTSN4logs5proto3geo2ar39ClearcutLoggingConfig_FrameRejectConfigE","__ZTIN4logs5proto3geo2ar19RigidTransformProtoE","__ZTVN8tcmalloc20AddressRegionFactoryE","__ZN4absl13base_internal14presbrk_hooks_E","__ZTIN6tflite17CpuBackendContextE","__ZN4base13process_state15kTestSuiteStartE","__ZTSN3geo2ar3lib25ImageFrameLocalizerConfigE","__ZN6google3geo2ar2v150_BatchQueryElevationsRequest_default_instance_ptr_E","__ZTSN8location8bluemoon11GridSamplerE","__ZTIN3geo2ar3lib9DevConfigE","__ZTI17VROBodyMesherTest","_gNumClampedCcdMotions","__ZTI15VROPolylineTest","__ZN3geo2ar34CovarianceMatrix3Proto_class_data_E","__ZTVN3geo2ar34HeadingFromMotionDistributionProtoE","__ZTI9VROSkybox","__ZN3geo2ar3lib29LowLightImageProcessingConfig7_table_E","__ZTV11VROSoundGVR","__ZN6google8internal7android8location7bluesky4type33_FloatValue_default_instance_ptr_E","__ZTVN3geo2ar3lib28NoopSurfaceElevationProviderE","__ZN6google3geo2ar2v132QueryFacadesResponse_class_data_E","__ZN6google3geo2ar2v139_LocalizeResponse_default_instance_ptr_E","__ZN4absl13time_internal14cctz_extension24zone_info_source_factoryE","__ZN3geo2ar3lib32Config_NetworkConfig_class_data_E","__ZTIN3geo2ar3lib18NetworkMetricsImplE","__ZTVN6google8internal7android8location7bluesky7v1beta146GetGridProbabilitiesRequest_ObservationRequestE","__ZTSN3geo2ar7service34T2ResolveAnchorAndLocalizeResponseE","__ZTVN6google3geo2ar2v116LocalizeResponseE","__ZN3geo2ar58_CloudLocalizationServiceResultProto_default_instance_ptr_E","_logs_proto_vr_arcore_ArCoreLog_LandmarkStatistics_fields","__ZTIN3geo2ar7service30T2BatchQueryElevationsResponseE","_FLAGS_alsologtostderr","__ZTVN4logs5proto3geo2ar22CovarianceMatrix3ProtoE","__ZN4logs5proto3geo2ar43GnssMeasurementsEvent_GnssClock_class_data_E","__ZTSN6google8protobuf9TimestampE","__ZTIN3geo2ar22CovarianceMatrix3ProtoE","_redwood_SensorProfileProto_fields","__ZTCN3geo2ar3lib19ActualSurfaceAnchorE0_NS1_19EarthRelativeAnchorE","_rsa_pss_sha256_asn1_meth","_FLAGS_nosuppress_failure_output","__ZTSN6proto22io15FileInputStream22CopyingFileInputStreamE","__ZTS10VROARScene","__ZN3geo2ar7service31LocalAreaParameters_class_data_E","__ZN4logs5proto3geo2ar26BarometerEvent_class_data_E","_silk_CB_lags_stage2","__ZTSN3geo2ar7service45T2ResolveAnchorAndLocalizeRequest_CameraImageE","__ZTIN3geo2ar3lib12ARCoreConfigE","__ZTVN6proto22io19LimitingInputStreamE","__ZTSN8geostore14FeatureIdProtoE","__ZTVN3geo2ar3lib26LocalizationClearcutLoggerE","_logs_proto_vr_arcore_ArCoreLog_CameraConfig_fields","_gNumSplitImpulseRecoveries","__ZN6google8internal7android8location7bluesky4type9Timestamp7_table_E","__ZN3geo2ar17FacadesSnapshotId7_table_E","_google_arcorecloudanchor_v1beta2_LocalAreaParameters_fields","__ZTSN3geo2ar3lib23CarryPoseChangeReporterE","__ZN4util17ErrorSpacePayload7_table_E","__ZN4viro29Node_Geometry_Material_Visual4NoneE","__ZTIN3geo2ar14ReferenceFrameE","__ZN3geo2ar8geometry17Point_class_data_E","__ZTVN6google3geo2ar2v114ReferenceFrameE","__ZTVN6proto22io20ByteSinkOutputStreamE","__ZTVN4logs5proto3geo2ar42UncertaintyPreserverConfig_PerSignalConfigE","__ZTV11VROTypeface","_redwood_CameraProfileProto_CameraConfigEntry_CameraConfigRationalValue_fields","__ZTSN7strings15LimitByteSourceE","_i386_Sim","__ZTS26VROMaterialSubstrateOpenGL","_google_arcorecloudanchor_v1beta2_GetAnchorRequest_view_default","__ZN4logs5proto3geo2ar71_WrappedCauchyHeadingUncertaintyModelParametersV1_default_instance_ptr_E","_logs_proto_vr_arcore_ArCoreLog_GeospatialCreatorPlatformEvent_fields","__ZN3geo2ar3lib49_TimedImageFrameLocalizerConfig_default_instance_E","__ZN3geo2ar37_PlaceIdOptions_default_instance_ptr_E","__ZN4logs5proto3geo2ar28_DevConfig_default_instance_E","__ZTSN4logs5proto3geo2ar44ClearcutLoggingConfig_SessionHeartbeatConfigE","__ZTIN3geo2ar11OrientationE","__ZTVN4logs5proto3geo2ar29LowLightImageProcessingConfigE","_FLAGS_help","__ZN4logs5proto3geo2ar43CameraIntrinsics_CityblockFisheyeDistortion7_table_E","__ZTSN3geo2ar3lib20LocalizationProviderE","__ZN3geo2ar45PositionGaussianDistributionProto_class_data_E","__ZTVN3geo2ar3lib22InertialAnchorReporterE","__ZN4viro29Node_Geometry_Material_Visual5ClampE","__ZTSN8location8bluemoon22CarryPoseChangeOptionsE","__ZTSN3geo2ar3lib20CommonClearcutLoggerE","__ZTVN3geo2ar7service22T2QueryFacadesResponseE","__ZTVN6google3geo2ar2v125CheckAvailabilityResponseE","__ZN3geo2ar14PlaceIdOptions7_table_E","__ZN8location8bluemoon11WifiOptions7_table_E","__ZTIN6proto22io18StringOutputStreamE","__ZTVN3geo2ar3lib19SessionFacadesModelE","__ZTV32VROPhotometricLightEventDelegate","_redwood_CompressedImage_fields","__ZTIN7strings12NullByteSinkE","__ZTV15VROARShadowTest","__ZN4logs5proto3geo2ar24ClientConfig_class_data_E","__ZN3geo2ar3lib38_SunAngleOptions_default_instance_ptr_E","__ZTV22VROPrefilterRenderPass","_silk_NLSF_CB_NB_MB","__ZN4viro4Node19kOpacityFieldNumberE","_iPad6_8","__ZN4viro10Node_Light11DirectionalE","_logs_proto_vr_arcore_ArCoreLog_StreetscapeGeometryAttachAnchorEvent_fields","__ZTIN4logs5proto3geo2ar24SmoothedTransformOptionsE","__ZTIN3geo2ar3lib19LocalizationManagerE","__ZTI11VROTypeface","__ZTI14OrientationEKF","__ZN8location8bluemoon42UncertaintyPreserverConfig_PerSignalConfig7_table_E","__ZTS17VROActionPerFrame","__ZTSN3geo2ar3lib48LowLightImageProcessingConfig_PixelBinningConfigE","_logs_proto_vr_arcore_ArCoreLog_ImuCameraRoughOffsetStats_fields","__ZTSN6proto22io24ConcatenatingInputStreamE","__ZTVN3geo2ar3lib15BearingReporterE","__ZN4logs5proto3geo2ar50_TerrainAnchorFirstTrackingEvent_default_instance_E","_redwood_CameraProfileProto_DistortionPoly3_fields","__ZTVN3geo2ar3lib22FrameRejectMetricsImplE","__ZN4viro4Node26kRenderingOrderFieldNumberE","__ZN6google3geo2ar2v174PlaceIdOptions_ImagePlaceIdentificationThreeDimensionalMode_internal_data_E","__ZTI19VROThreadRestricted","__ZTVN4viro20Node_Geometry_SourceE","__ZN6google3geo2ar2v139BatchQueryElevationsRequest_class_data_E","__ZTIN3geo2ar3lib6ConfigE","__ZN4logs5proto3geo2ar15SunAngleOptions7_table_E","_iPad4_2","__ZTVN6google8protobuf8internal16FunctionClosure0E","__ZTVN8location8bluemoon23GaussianScalarPerturberE","__ZTSN6proto22io16CordOutputStreamE","__ZN3geo2ar3lib36_LightEstimate_default_instance_ptr_E","__ZTSN8location8bluemoon14BlueskyOptionsE","__ZTIN4logs5proto3geo2ar26UncertaintyPreserverConfigE","_FLAGS_nominloglevel","__ZN4logs5proto3geo2ar32Config_NetworkConfig_class_data_E","__ZN3fLI28FLAGS_noexit_timeout_secondsE","__ZTIN3geo2ar3lib24PoseStabilityMonitorImplE","__ZTVN4logs5proto3geo2ar30TerrainAnchorUnresolvableEventE","__ZN3geo2ar3lib44_ClearcutLoggingConfig_default_instance_ptr_E","__ZTSN3geo2ar3lib20Config_NetworkConfigE","__ZN4logs5proto3geo2ar44_NetworkEventAggregate_default_instance_ptr_E","__ZN3geo2ar3lib38_NightTimeConfig_default_instance_ptr_E","__ZTVN3geo2ar9DetectionE","_kBodyAnimUserBoneLengths","__ZN3geo2ar3lib47_HeadingFromMotionOptions_default_instance_ptr_E","__ZTSN6proto28internal12ExtensionSet20LazyMessageExtensionE","__ZTV11VROPerfTest","__ZTIN4viro29Node_Geometry_Material_VisualE","__ZTIN4logs5proto3geo2ar8T2ConfigE","__ZTVN4viro21Node_Geometry_ElementE","__ZTIN4logs5proto3geo2ar19InertialAnchorFlagsE","_FLAGS_flagfile","__ZTIN6google8protobuf9TimestampE","__ZTS16VROIBLPreprocess","__ZN3geo2ar31LocalizeRequestMetricsExtension15request_metricsE","_redwood_CameraProfileProto_DistortionWideFisheyeSpline6_fields","__ZN3geo2ar35Detection_Visibility_internal_data_E","__ZN4viro10Node_Light16kNameFieldNumberE","__ZTIN8location8bluemoon20PositionAndYawFilterE","__ZN8location8bluemoon14inertialanchor67_EmpiricalHeadingUncertaintyModelParametersV1_default_instance_ptr_E","__ZN4viro4Node16kNameFieldNumberE","__ZTVN3geo2ar13LocationProtoE","__ZTVN3geo2ar3lib18FrameRejectReasonsE","__ZN4logs5proto3geo2ar33CameraIntrinsics_RadialDistortion7_table_E","__ZTIN8location8bluemoon27BearingTrackingPerturbationE","__ZTSN13google_public8protobuf14FatalExceptionE","__ZN6google8protobuf4util6Status7UNKNOWNE","__ZN3geo2ar42StepDetectionPerturbationProto_class_data_E","__ZN3fLB27FLAGS_watch_thread_livenessE","__ZTIN3geo2ar28PositionProbabilityGridProtoE","__ZTVN6proto22io15FileInputStreamE","__ZTI21VROTypefaceCollection","__ZTSN4base13TraceConsumerE","_FLAGS_log_backtrace_at","__ZN4viro4Node29kSkeletalAnimationFieldNumberE","_logs_proto_vr_arcore_ArCoreLog_AnchorMotionStatistics_AnchorJumpStats_fields","__ZTV24VRODiffuseIrradianceTest","__ZTVN8location8bluemoon37RoadOrientationResultDistributionProdE","__ZN4logs5proto3geo2ar37TerrainAnchorCreatedEvent_class_data_E","__ZTIN4logs5proto3geo2ar31GnssMeasurementsEvent_GnssClockE","__ZN3geo2ar7service40_T2WarmUpCacheResponse_default_instance_E","__ZTV19VROARCameraInertial","__ZN4absl12log_internal15kSignedCharNullE","__ZN4viro29Node_Geometry_Material_Visual12WrapMode_MINE","__ZTS17VROPoseFilterEuro","__ZTSN6tflite12ArenaPlannerE","_iPad7_1","__ZTSN4logs5proto3geo2ar31FrameRejectReasonEventAggregateE","__ZTVN4viro13Node_GeometryE","_iPad8_6","__ZTIN4absl12crc_internal5CRC32E","__ZN8tcmalloc17tcmalloc_internal21sampled_delete_hooks_E","__ZN4logs5proto3geo2ar47NetworkEventAggregate_TimingMetrics_class_data_E","__ZN6google3geo2ar2v127_Mesh_default_instance_ptr_E","__ZN3geo2ar54_CloudLocalizationServiceResultProto_default_instance_E","__ZTV10VROSurface","__ZN2S28internal8kPosToIJE","__ZTIN4logs5proto3geo2ar16Project3x3ConfigE","__ZTS16VROShaderProgram","__ZTSN3geo2ar3lib35LocalizationFilterLikelihoodOptionsE","_redwood_DisplayProfileProtoV2_fields","__ZTVN3geo2ar3lib22EarthAnchorTrackerImplE","__ZTIN6google3geo2ar2v120FacadesCacheContentsE","__ZN4absl13base_internal13munmap_hooks_E","__ZTV16VROIBLPreprocess","__ZTVN3geo2ar3lib12ARCoreConfigE","__ZN4logs5proto3geo2ar9GnssEvent7_table_E","__ZN4logs5proto3geo2ar34BearingTrackingOptions_class_data_E","__ZN4logs5proto3geo2ar67_LowLightImageProcessingConfig_PixelBinningConfig_default_instance_E","__ZTVN7vraudio16IosStreamDecoderE","__ZN4logs5proto3geo2ar62RealDeadReckonedPoseMixerConfig_DeadReckonedPoseEstimateConfig7_table_E","__ZN3geo2ar9LatLngAlt7_table_E","_FLAGS_install_named_signal_handlers","__ZN13google_public8protobuf8internal14WireFormatLite22kFieldTypeToCppTypeMapE","__ZN4logs5proto3geo2ar43_Config_NetworkConfig_default_instance_ptr_E","__ZN4logs5proto3geo2ar49_TerrainAnchorResolvedEvent_default_instance_ptr_E","__ZN3geo2ar3lib6Config7_table_E","__ZN4logs5proto3geo2ar12ARCoreConfig5Impl_65_i_give_permission_to_break_this_code_default_t2_server_endpoint_E","__ZTSN3geo2ar3lib16FixedEarthAnchorE","_redwood_SensorExtrinsic_fields","__ZN8location8bluemoon36HeadingFromMotionDistributionOptions7_table_E","__ZN4logs5proto3geo2ar28Project3x3Config_class_data_E","__ZN6google8internal7android8location7bluesky4type38_GnssMeasurement_default_instance_ptr_E","__ZTIN6proto22io17ArrayOutputStreamE","__ZTIN3geo2ar3lib22RealSessionEventLoggerE","__ZN3geo2ar55CameraIntrinsics_CityblockFisheyeDistortion_class_data_E","__ZTSN4logs5proto3geo2ar12ClientConfigE","__ZTV10VROBoneUBO","__ZTSN3geo2ar3lib8T2ConfigE","__ZTSN3geo2ar7service21T2QueryFacadesRequestE","__ZN6google3geo2ar2v139PoseLikelihoodFunctionProto_class_data_E","__ZN3geo2ar55PlaceSummary_RouteSummary_Directionality_internal_data_E","__ZTIN6google3geo2ar2v118WarmUpCacheRequestE","_iPad8_8","__ZN4logs5proto3geo2ar55_HeadingFromMotionDistributionOptions_default_instance_E","_silk_pitch_contour_10_ms_iCDF","__ZTVN3geo2ar3lib21StepDetectionReporterE","__ZTV13VRONodeCamera","_FLAGS_location_orientation_log_interval","__ZTSN6proto22io19ZeroCopyInputStreamE","__ZTVN7strings13OStringStreamE","_logs_proto_vr_arcore_ArCoreLog_FeatureProcessingStatistics_fields","_silk_delta_gain_iCDF","__ZTVN3gvr14PlatformThreadE","__ZTIN4logs5proto3geo2ar20Config_NetworkConfigE","__ZTVN6google8internal7android8location7bluesky4type9GnssClockE","__ZN6google8protobuf4util6Status9CANCELLEDE","_iPhone1_1","__ZN4logs5proto3geo2ar24HeadingFromMotionOptions7_table_E","__ZN4logs5proto3geo2ar42_InertialAnchorFlags_default_instance_ptr_E","_logs_proto_vr_arcore_ArCoreLog_VioInitializationEvent_fields","__ZTVN3geo2ar7service29T2BatchQueryElevationsRequestE","__ZTIN4viro11Node_CameraE","__ZN3fLI31FLAGS_default_thread_stack_sizeE","__ZTVN8geostore14FeatureIdProtoE","__ZN4viro20Node_Geometry_Source7TangentE","_silk_uniform4_iCDF","__ZTV27VROPostProcessEffectFactory","__ZN6google3geo2ar2v134_FacadesCell_default_instance_ptr_E","__ZTSN3geo2ar30StepDetectionPerturbationProtoE","__ZN6google8internal7android8location7bluesky4type33_Int32Value_default_instance_ptr_E","__ZTS13VROPortalTest","__ZN4logs5proto3geo2ar54_TerrainAnchorFirstTrackingEvent_default_instance_ptr_E","__ZTVN3geo2ar3lib30HybridSurfaceElevationProvider10QueryProxyE","__ZN4viro41_Node_Geometry_Material_default_instance_E","_redwood_CameraModelProto_fields","__ZTIN6google8internal7android8location7bluesky4type10FloatValueE","__ZTIN4absl16strings_internal13OStringStream9StreambufE","__ZN4base13process_state15kInitGoogleDoneE","__ZTVN4logs5proto3geo2ar31QualityFramePriorityQueueConfigE","__ZN3geo2ar8geometry24_Point_default_instance_E","__ZTI19VROSkeletonRenderer","__ZN3geo2ar3lib48LowLightImageProcessingConfig_PixelBinningConfig7_table_E","__ZTV20VROARSessionInertial","__ZN3geo2ar3lib8T2Config7_table_E","__ZN8location8bluemoon22CarryPoseChangeOptions7_table_E","__ZN4viro18Node_Skeleton_Bone23kParentIndexFieldNumberE","__ZTS14VROActionTimed","__ZN4logs5proto3geo2ar28_GnssEvent_default_instance_E","__ZTIN4logs5proto3geo2ar20ParticleFilterConfigE","__ZTIN3geo2ar3lib19FrameSelectorConfigE","_redwood_CameraLayeredDistortion_fields","__ZTIN3geo2ar41RoadRelativeOrientationYawPredictionProtoE","__ZTIN6proto22io19LimitingInputStreamE","__ZTIN4logs5proto3geo2ar36HeadingFromMotionDistributionOptionsE","__ZTSN3geo2ar3lib22EarthAnchorTrackerImplE","__ZTVN8location8bluemoon26InertialAnchorDistributionE","__ZN4util8callback18CancellableClosure12kRunInCallerE","_logs_proto_vr_arcore_ArCoreLog_VioResetEvent_VioResetStatistics_fields","__ZN4logs5proto3geo2ar57_CameraIntrinsics_FisheyeDistortion_default_instance_ptr_E","__ZN4logs5proto3geo2ar11GeoArLibLog7_table_E","__ZN13google_public8protobuf8internal23shutdown_functions_initE","__ZN6google8protobuf31_Duration_default_instance_ptr_E","__ZN8location8bluemoon41_RoadOrientationOptions_default_instance_E","__ZTVN7strings15LimitByteSourceE","__ZN4viro29Node_Geometry_Material_Visual21kTransformFieldNumberE","__ZTV19VROFBXEventDelegate","_silk_Resampler_1_4_COEFS","__ZN4logs5proto3geo2ar20T2Config_class_data_E","__ZTVN6google3geo2ar2v119QueryFacadesOptionsE","__ZTIN6google3geo2ar2v119FacadesCellContentsE","__ZTVN4logs5proto3geo2ar11SensorCountE","__ZTVN3geo2ar3lib21IfmLocalizationFilterE","__ZN4logs5proto3geo2ar48_TerrainAnchorCreatedEvent_default_instance_ptr_E","__ZTSN6tflite8internal18CallbackOpResolverE","__ZN4viro21Node_Geometry_Element21kPrimitiveFieldNumberE","_logs_proto_vr_arcore_ArCoreLog_PatchCreationEvent_fields","__ZN3geo2ar26ReferenceFrame_class_data_E","__ZTI13VROVectorizer","__ZTSN8location8bluemoon25GaussianPositionPerturberE","__ZN4logs5proto3geo2ar32_LightEstimate_default_instance_E","__ZTSN3geo2ar3lib22FrameRejectMetricsImplE","__ZN4logs5proto3geo2ar64RealDeadReckonedPoseMixerConfig_TransformDifferences_class_data_E","__ZTS10VROBoneUBO","__ZTSN3geo2ar14RequestMetricsE","__ZN6google3geo2ar2v119WarmUpCacheResponse7_table_E","__ZN8location8bluemoon14inertialanchor56EmpiricalHeadingUncertaintyModelParametersV1_class_data_E","__ZTIN3geo2ar43CameraIntrinsics_CityblockFisheyeDistortionE","__ZTSN6google3geo2ar2v120StartSessionResponseE","_silk_Lag_range_stage3_10_ms","__ZTIN6google8protobuf8DurationE","__ZTSN6tflite8SubgraphE","_silk_uniform8_iCDF","__ZTVN8location8bluemoon21InertialAnchorOptionsE","__ZN6google8protobuf20Duration_class_data_E","__ZTS23VRORendererSettingsTest","__ZTSN6google3geo2ar2v128BatchQueryElevationsResponseE","__ZN3geo2ar53_CameraIntrinsics_FisheyeDistortion_default_instance_E","__ZN4logs5proto3geo2ar59_HeadingFromMotionDistributionOptions_default_instance_ptr_E","_rsa_pkey_meth","__ZTSN6tflite8resource16ResourceVariableE","__ZTVN3geo2ar3lib62RealDeadReckonedPoseMixerConfig_DeadReckonedPoseEstimateConfigE","__ZN3geo2ar46HeadingFromMotionDistributionProto_class_data_E","__ZTV22VROBodySurfaceRenderer","__ZN3geo2ar3lib67_ParticleFilterConfig_PositionAndYawFilterOptions_default_instance_E","__ZTSN3geo2ar15QuaternionProtoE","_logs_proto_vr_arcore_ArCoreLog_TimeSyncEstimationEvent_fields","__ZN3geo2ar3lib20ParticleFilterConfig7_table_E","_iPhone10_6","__ZN13VROGLTFLoader20_skinIndexToSkeletonE","__ZN3geo2ar7service33_AnchorPose_default_instance_ptr_E","__ZN4logs5proto3geo2ar44EmpiricalHeadingUncertaintyModelParametersV17_table_E","_FLAGS_unique_id_seed","__ZN4viro29Node_Geometry_Material_Visual19kTextureFieldNumberE","__ZN6google8internal7android8location7bluesky7v1beta146GetGridProbabilitiesRequest_ObservationRequest7_table_E","__ZTIN4logs5proto3geo2ar15NightTimeConfigE","__ZTIN4logs5proto3geo2ar25ImageFrameLocalizerConfigE","__ZTIN3geo2ar3lib24CloudLocalizationAlignerE","_FLAGS_v","__ZTI10VROBoneUBO","__ZTI10ThreadPool","__ZTVN3geo2ar30StepDetectionPerturbationProtoE","__ZN3geo2ar3lib16Project3x3Config7_table_E","__ZTV10VROOBJTest","_logs_proto_vr_arcore_ArCoreLog_EpipolarSelfConsistencyMetricsStats_fields","_kYvuJPEGConstants","__ZN4logs5proto3geo2ar56_AdaptiveImageFrameLocalizerConfig_default_instance_ptr_E","__ZTIN4logs5proto3geo2ar29LowLightImageProcessingConfigE","__ZTIN3geo2ar33PositionGaussianDistributionProtoE","__ZN4logs5proto3geo2ar25ImageFrameLocalizerConfig7_table_E","__ZTSN4logs5proto3geo2ar19FrameSelectorConfigE","_silk_LTPscale_iCDF","_iPad4_3","__ZTV15VRODriverOpenGL","__ZTSN3geo2ar3lib19ActualSurfaceAnchor24UnresolvableStateHandlerE","__ZTS15VROPhysicsWorld","__ZTIN3ion4base9AllocatorE","__ZTVN13google_public8protobuf2io16GzipOutputStreamE","_silk_type_offset_no_VAD_iCDF","_redwood_RayFieldCamera_fields","_redwood_DisplayGeometryCalibrationProfileV2_fields","__ZTSN4absl14flags_internal18FlagStateInterfaceE","__ZTS19VROHDREventDelegate","__ZTIN8location8bluemoon37RoadOrientationResultDistributionProdE","_iPhone5_4","_kOpenSSLReasonValues","__ZTVN7vraudio28AmbisonicBinauralDecoderNodeE","__ZN3geo2ar40_GeodeticPosePrior_default_instance_ptr_E","__ZTIN3geo2ar7service21LocalizeResult_ResultE","__ZN4absl11RFC3339_secE","__ZTS16VROPBRDirectTest","_logs_proto_vr_arcore_ArCoreLog_ResolveAnchorDetachEvent_fields","__ZTVN3geo2ar8geometry4MeshE","__ZTSN3geo2ar3lib33AdaptiveImageFrameLocalizerConfigE","_google_arcorecloudanchor_v1beta2_LocalizeResult_Result_fields","__ZN3geo2ar7service46_T2CheckAvailabilityResponse_default_instance_E","__ZTSN3geo2ar13Vector3dProtoE","__ZN4logs5proto3geo2ar43QualityFramePriorityQueueConfig_class_data_E","__ZTSN3geo2ar3lib49RealDeadReckonedPoseMixerConfig_UncertaintyRatiosE","__ZN6google3geo2ar2v118LatLng_class_data_E","__ZTV6Thread","__ZN3geo2ar3lib39_CameraModelProto_default_instance_ptr_E","__ZN4logs5proto3geo2ar20StepDetectionOptions7_table_E","__ZN4logs5proto3geo2ar47_RigidTransformWithConfidence_default_instance_E","__ZTSN3geo2ar17FacadesSnapshotIdE","__ZN8location8bluemoon44_InertialAnchorOptions_default_instance_ptr_E","__ZTV19VROHDREventDelegate","__ZTSN8location8bluemoon27BearingTrackingPerturbationE","__ZN6google3geo2ar2v114ElevationQuery7_table_E","__ZTVN4logs5proto3geo2ar28RigidTransformWithConfidenceE","__ZTSN8location8bluemoon33RoadOrientationResultDistributionE","_logs_proto_vr_arcore_ArCoreLog_HistogramState_HistogramOptions_fields","__ZTIN4logs5proto3geo2ar35LocalizationFilterLikelihoodOptionsE","__ZTIN6google8internal7android8location7bluesky4type10Int64ValueE","__ZTS7VRONode","__ZN4viro47_Node_KeyframeAnimation_Frame_default_instance_E","__ZN4viro20Node_Geometry_Source5ColorE","_google_arcorecloudanchor_v1beta2_CameraImage_fields","__ZN4logs5proto3geo2ar44_ImageFrameLocalizerConfig_default_instance_E","__ZN4logs5proto3geo2ar32_DevConfig_default_instance_ptr_E","__ZTSN3ion4base9AllocatorE","__ZTVN6proto22io19OstreamOutputStream26CopyingOstreamOutputStreamE","__ZTVN3geo2ar3lib29LowLightImageProcessingConfigE","__ZN3geo2ar3lib56ClearcutLoggingConfig_SessionHeartbeatConfig_class_data_E","__ZN4logs5proto3geo2ar33NetworkEventAggregate_class_data_E","__ZTSN3geo2ar3lib24PoseStabilityMonitorImplE","__ZN4viro11Node_Matrix17kValueFieldNumberE","__ZTVN4logs5proto3geo2ar22RoadOrientationOptionsE","__ZN3geo2ar19RigidTransformProto7_table_E","__ZTSN6proto22io19LimitingInputStreamE","__ZTS15GeoARHTTPClient","__ZN3geo2ar3lib25SensorType_internal_data_E","_silk_sign_iCDF","__ZN3geo2ar14ReferenceFrame7_table_E","__ZTS10RandomBase","__ZTI21btConeTwistConstraint","__ZTIN3geo2ar7service15LocalizeOptionsE","__ZTSN3geo2ar3lib22LocalizationFilterImplE","__ZTV6VROBox","_FLAGS_nodump_stack_frames_limit","__ZN4absl13hash_internal15MixingHashState5kSeedE","__ZN3geo2ar3lib15SunAngleOptions7_table_E","__ZTIN8tcmalloc13AddressRegionE","__ZTV22VROBodyRecognitionTest","_redwood_Vector3Proto_fields","__ZN8location8bluemoon48_EstimateConfidenceOptions_default_instance_ptr_E","__ZTSN3ion4base11AllocatableE","__ZTSN4viro21Node_Geometry_ElementE","__ZN4logs5proto3geo2ar56_CameraIntrinsics_RadialDistortion_default_instance_ptr_E","__ZTSN3geo2ar3lib16CameraModelProtoE","__ZN6google8internal7android8location7bluesky7v1beta128GetGridProbabilitiesResponse7_table_E","__ZN3geo2ar3lib38_InertialAnchorFlags_default_instance_E","_silk_shell_code_table_offsets","__ZN3geo2ar34CameraIntrinsics_FisheyeDistortion7_table_E","_google_rpc_Status_fields","__ZTS19VROARAnchorInertial","__ZTVN10statistics15WallTimerDeviceE","__ZTSN13google_public8protobuf2io16ArrayInputStreamE","__ZTI22VROAVCaptureController","__ZTIN4logs5proto3geo2ar39ClearcutLoggingConfig_FrameRejectConfigE","__ZN3geo2ar7service39_T2WarmUpCacheRequest_default_instance_E","__ZTIN4logs5proto3geo2ar27PoseLikelihoodFunctionProtoE","__ZN3geo2ar3lib58_ClearcutLoggingConfig_FrameRejectConfig_default_instance_E","__ZTSN3geo2ar3lib22InertialAnchorReporterE","__ZN6proto28internal20MapFieldBaseForParse22sync_map_with_repeatedE","__ZN4viro4Node20kRotationFieldNumberE","__ZTIN6google3geo2ar2v135CloudLocalizationServiceResultProtoE","__ZTSN4logs5proto3geo2ar31RealDeadReckonedPoseMixerConfigE","_FLAGS_noret_check_abort_on_failure","__ZN4logs5proto3geo2ar39PoseLikelihoodFunctionProto_class_data_E","__ZTV11VRODebugHUD","__ZN4viro4Node29kKeyframeAnimationFieldNumberE","__ZTSN6google8internal7android8location7bluesky4type15GnssMeasurementE","__ZN3geo2ar7service28T2QueryTerrainMeshesResponse7_table_E","__ZN3geo2ar7service48_T2BatchQueryElevationsRequest_default_instance_E","__ZTVN6google3geo2ar2v119WarmUpCacheResponseE","__ZN3geo2ar55HorizontalPositionGaussianDistributionProto_class_data_E","_logs_proto_vr_arcore_ArCoreLog_FaceMeshModelUpdate_fields","__ZTIN6proto22io18IstreamInputStreamE","__ZTSN3geo2ar3lib12ClientConfigE","__ZTIN4logs5proto3geo2ar45AdaptiveImageFrameLocalizerConfig_PitchConfigE","__ZN3geo2ar5depth26kInvokeTfliteModelTimerTagE","_FLAGS_noflagfile","__ZN3geo2ar44_SunAngleDistributionProto_default_instance_E","__ZTS17btTypedConstraint","__ZN4logs5proto3geo2ar35_ClientConfig_default_instance_ptr_E","__ZTIN6google3geo2ar2v140CloudLocalizationLikelihoodFunctionProtoE","__ZN3geo2ar3lib28ParticleTrackingQueueOptions7_table_E","__ZTVN6proto22io17ArrayOutputStreamE","__ZTVN3ion4base11AllocatableE","__ZN4logs5proto3geo2ar44ClearcutLoggingConfig_SessionHeartbeatConfig7_table_E","__ZN4logs5proto3geo2ar36HeadingFromMotionOptions_class_data_E","__ZTIN6proto22io15CordInputStreamE","__ZN3geo2ar66_PositionProbabilityGridProto_GridPointProto_default_instance_ptr_E","__ZTIN6icu_7723UnicodeStringAppendableE","__ZTV25VROPoseFilterBoneDistance","__ZTSN6icu_777UObjectE","__ZTI20VROInputControllerAR","__ZTIN6google3geo2ar2v126QueryTerrainMeshesResponseE","_FLAGS_symbolize_stacktrace","__ZN8location8bluemoon41_BearingTrackingOptions_default_instance_E","__ZTIN13google_public8protobuf2io22LazyStringOutputStreamE","_logs_proto_vr_arcore_ArCoreLog_BackgroundSegmentationFrameDelayChange_fields","__ZTV24VROToneMappingRenderPass","__ZTI17VROActionPerFrame","__ZTVN8location8bluemoon21UniformAnglePerturberE","__ZTSN8location8bluemoon11WifiOptionsE","_logs_proto_vr_arcore_ArCoreLog_GravityDirectionInCameraSpaceStats_Vector3dStats_fields","__ZN4logs5proto3geo2ar68_CameraIntrinsics_CityblockFisheyeV2Distortion_default_instance_ptr_E","_FLAGS_noinstall_signal_handlers","__ZTSN3geo2ar3lib19ActualSurfaceAnchor22UnresolvedStateHandlerE","_logs_proto_vr_arcore_ArCoreLog_UserMotionStatistics_RotationBoundingVolume_fields","__ZN4logs5proto3geo2ar47_ClientConfig_RenderingConfig_default_instance_E","__ZN3geo2ar3lib67_ClearcutLoggingConfig_PoseStabilityMonitorConfig_default_instance_E","__ZTSN8location8bluemoon22UniformScalarPerturberE","__ZN15inertial_anchor9estimator7bearing21BearingTrackingFilter18kDefaultBearingRadE","__ZN4logs5proto3geo2ar39_Project3x3Config_default_instance_ptr_E","_silk_LTP_vq_gain_ptrs_Q7","__ZTIN6google3geo2ar2v15PointE","__ZTS15VROVisionEngine","__ZN4util34_StatusProto_default_instance_ptr_E","__ZN4logs5proto3geo2ar97_ClearcutLoggingConfig_PoseStabilityMonitorConfig_PoseJumpLoggingThresholds_default_instance_ptr_E","__ZTI27VROToneMappingEventDelegate","__ZTVN6google8internal7android8location7bluesky4type10Int32ValueE","_redwood_ImuModelProto_fields","_silk_stereo_only_code_mid_iCDF","__ZTVN8location8bluemoon20PositionAndYawFilterE","__ZN8location8bluemoon14inertialanchor44EmpiricalHeadingUncertaintyModelParametersV17_table_E","__ZN6google3geo2ar2v19Elevation7_table_E","__ZN3geo2ar3lib71_LowLightImageProcessingConfig_PixelBinningConfig_default_instance_ptr_E","_redwood_Float16ArrayProto_fields","__ZTIN6proto22io16ArrayInputStreamE","__ZTI28VROFrameSynchronizerInternal","__ZTSN4logs5proto3geo2ar16SensorCountEventE","__ZN6proto28internal19ImplicitWeakMessage6table_E","__ZTV14VROARPlaneTest","__ZTSN3geo2ar13LocationProtoE","__ZN4util20NonMessageSetPayload21message_set_extensionE","__ZTVN3gvr21AllocationSizeTrackerE","__ZTVN4logs5proto3geo2ar25TerrainAnchorCreatedEventE","__ZN4base8internal10failed_tidE","__ZN6google3geo2ar2v125CheckAvailabilityResponse7_table_E","__ZN4logs5proto3geo2ar30TerrainAnchorUnresolvableEvent7_table_E","_silk_rate_levels_BITS_Q5","__ZN4logs5proto3geo2ar40_GnssMeasurementsEvent_default_instance_E","_FLAGS_nodapper_pe_use_regions","__ZN6proto212hook_contextE","__ZTSN3geo2ar3lib25TrackedAndLocalizedAnchorE","__ZN4logs5proto3geo2ar30_WifiOptions_default_instance_E","__ZTV15VROARSessioniOS","_redwood_CaptureRequestConstraints_GammaConstraint_fields","__ZN6google3geo2ar2v131StartSessionRequest_class_data_E","__ZN6google3geo2ar2v137_ReferenceFrame_default_instance_ptr_E","__ZN3geo2ar13Vector3dProto7_table_E","__ZN4absl16raw_log_internal21internal_log_functionE","_silk_NLSF_CB_WB","__ZTIN13google_public8protobuf11MessageLiteE","_FLAGS_helpmatch","__ZN3geo2ar3lib34_NightTimeConfig_default_instance_E","__ZTVN3geo2ar3lib16SunAngleReporterE","__ZTIN3geo2ar3lib62RealDeadReckonedPoseMixerConfig_DeadReckonedPoseEstimateConfigE","__ZN4viro22Node_Geometry_Material13BlendMode_MINE","__ZTSN4logs5proto3geo2ar21ClearcutLoggingConfigE","__ZTIN4logs5proto3geo2ar6ConfigE","_IDENTITY_MATRIX","__ZN3geo2ar60_RoadRelativeOrientationYawPredictionProto_default_instance_E","__ZN4logs5proto3geo2ar48ClearcutLoggingConfig_PoseStabilityMonitorConfig7_table_E","__ZTI14VROARPlaneTest","__ZTI16VROChoreographer","__ZTS21VROVertexBufferOpenGL","__ZN3geo2ar3lib34_DisplayGeometry_default_instance_E","__ZTIN6proto22io21ByteSourceInputStreamE","__ZTI15VROPhysicsWorld","__ZN3geo2ar3lib50_RealDeadReckonedPoseMixerConfig_default_instance_E","__ZTVN3geo2ar3lib74ClearcutLoggingConfig_PoseStabilityMonitorConfig_PoseJumpLoggingThresholdsE","__ZTI23VROPhysicsEventDelegate","__ZN3geo2ar7service33LocalizeResult_Result_class_data_E","__ZTSN4logs5proto3geo2ar30RealDeadReckonedPoseMixerEventE","__ZTVN4logs5proto3geo2ar22CarryPoseChangeOptionsE","__ZTSN6google8internal7android8location7bluesky7v1beta19GridPointE","__ZTIN3geo2ar3lib28ClientConfig_RenderingConfigE","__ZN3geo2ar47InertialAnchorPoseDistributionProto_class_data_E","__ZTIN3geo2ar40CloudLocalizationLikelihoodFunctionProtoE","__ZTS14VROParticleUBO","_iPhone5_3","__ZTIN4viro21Node_Geometry_ElementE","__ZTIN3geo2ar39PositionAndYawGaussianDistributionProtoE","_google_arcorecloudanchor_v1beta2_ReferenceFrameAndState_fields","__ZTVN4logs5proto3geo2ar39ClearcutLoggingConfig_FrameRejectConfigE","__ZTV17VROAnimationGroup","__ZTVN7tinyobj14MaterialReaderE","__ZTVN3geo2ar3lib20DebugPoseResultProtoE","_logs_proto_vr_arcore_ArCoreLog_SessionSharedCameraClosedEvent_fields","_FLAGS_nodebugger_command","__ZN4logs5proto3geo2ar31_ARCoreConfig_default_instance_E","__ZN4logs5proto3geo2ar34CovarianceMatrix6Proto_class_data_E","__ZN3geo2ar3lib37_HttpPostResult_default_instance_ptr_E","__ZTVN8S2CellId5CoderE","__ZN3geo2ar3lib31_T2Config_default_instance_ptr_E","__ZTSN3geo2ar43PositionProbabilityGridProto_GridPointProtoE","__ZN15inertial_anchor9estimator7bearing32CarryChangeDetectorConfiguration20kDefaultUpdateRateHzE","__ZTIN6google3geo2ar2v119StartSessionRequestE","__ZN4viro29Node_Geometry_Material_Visual21kWrapModeTFieldNumberE","_FLAGS_thread_pool_lazy_spawn_workers","__ZTSN3geo2ar3lib22RealSessionEventLoggerE","__ZTSN4logs5proto3geo2ar15SessionEndEventE","__ZTI19VROIBLEventDelegate","__ZTIN4viro22Node_SkeletalAnimationE","__ZTIN8location8bluemoon20StepDetectionOptionsE","__ZN8WatchDog14active_pauses_E","__ZN4logs5proto3geo2ar31_T2Config_default_instance_ptr_E","__ZN6google3geo2ar2v15Point7_table_E","__ZTSN3geo2ar7service19LocalAreaParametersE","__ZN4viro29Node_Geometry_Material_Visual12WrapMode_MAXE","__ZN4viro22Node_Geometry_Material21kRoughnessFieldNumberE","__ZTIN4logs5proto3geo2ar16CameraIntrinsicsE","__ZTSN4logs5proto3geo2ar29LowLightImageProcessingConfigE","__ZN4logs5proto3geo2ar66_CameraIntrinsics_KannalaBrandtFisheyeDistortion_default_instance_E","__ZTIN3geo2ar32BearingTrackingPerturbationProtoE","__ZN4absl13cord_internal9CordzInfo12global_list_E","__ZTS24VRODiffuseIrradianceTest","__ZTV17VROAnimationChain","__ZTVN13google_public8protobuf2io26CopyingOutputStreamAdaptorE","__ZTIN4logs5proto3geo2ar15QuaternionProtoE","_AppleTV1_1","__ZTVN6tflite8resource16ResourceVariableE","__ZN6google8internal7android8location7bluesky7v1beta171_GetGridProbabilitiesResponse_ObservationResponse_default_instance_ptr_E","__ZN7octomap23AbstractOccupancyOcTree16binaryFileHeaderE","_logs_proto_vr_arcore_ArCoreLog_MotionTrackingInitializationEvent_fields","__ZN6google3geo2ar2v131FacadesCellContents_class_data_E","__ZTVN3geo2ar3lib12GnssReporterE","__ZTSN3geo2ar3lib26FrameSnapshotForThirdPartyE","__ZTVN3geo2ar3lib25ImageFrameLocalizerConfigE","__ZN4logs5proto3geo2ar34_LocalizeOptions_default_instance_E","__ZN6google3geo2ar2v117Point_class_data_E","__ZN4viro47_Node_SkeletalAnimation_Frame_default_instance_E","__ZTIN3geo2ar3lib33SessionStatusMonitorForThirdPartyE","__ZTS18VROBodyTrackerTest","__ZTVN7vraudio26AmbisonicMixingEncoderNodeE","__ZTVN4viro22Node_KeyframeAnimationE","__ZN4logs5proto3geo2ar49RealDeadReckonedPoseMixerConfig_UncertaintyRatios7_table_E","__ZTIN4logs5proto3geo2ar26TrackingFailureReasonEventE","__ZTSN8location8bluemoon37RoadOrientationResultDistributionProdE","__ZN3geo2ar7service27LocalizeOptions_class_data_E","__ZTVN6tflite17CpuBackendContextE","__ZN6google8internal7android8location7bluesky7v1beta158GetGridProbabilitiesRequest_ObservationRequest_class_data_E","__ZTS12VROTaskQueue","__ZN3geo2ar3lib15NightTimeConfig7_table_E","__ZTIN8location8bluemoon25StepDetectionPerturbationE","__ZTI13VROARFrameiOS","__ZTVN3geo2ar43HorizontalPositionGaussianDistributionProtoE","__ZTVN4absl13time_internal4cctz12TimeZoneInfoE","__ZN4logs5proto3geo2ar28ClientConfig_RenderingConfig7_table_E","_logs_proto_vr_arcore_ArCoreLog_SessionInitializationEvent_fields","_logs_proto_vr_arcore_ArCoreLog_BackgroundSegmentationModelUpdate_fields","__ZN4absl16strings_internal12kBase64CharsE","__ZN4logs5proto3geo2ar33NetworkEventAggregate_DataMetrics7_table_E","__ZTVN6proto22io19ZeroCopyInputStreamE","__ZN6google3geo2ar2v18Triangle7_table_E","__ZN4logs5proto3geo2ar67_RealDeadReckonedPoseMixerConfig_ReinitConditions_default_instance_E","__ZTV14VROActionTimed","__ZTS14VROLightingUBO","__ZTVN3geo2ar3lib17BarometerReporterE","__ZN3geo2ar62_PositionProbabilityGridProto_GridPointProto_default_instance_E","__ZTS8MTRandom","__ZN3geo2ar3lib40ClientConfig_RenderingConfig_class_data_E","__ZTIN4viro22Node_Geometry_MaterialE","__ZTSN8tcmalloc13AddressRegionE","__ZTVN4logs5proto3geo2ar33CameraIntrinsics_RadialDistortionE","__ZTIN4logs5proto3geo2ar21SetCameraTDeviceEventE","__ZTIN8location8bluemoon21UniformAnglePerturberE","__ZN4logs5proto3geo2ar71_RealDeadReckonedPoseMixerConfig_TransformDifferences_default_instance_E","__ZN4viro10Node_Light13LightType_MAXE","__ZN5fLU6415FLAGS_jpeg_omitE","__ZTIN3geo2ar7service14ElevationQueryE","_redwood_CameraProfileProto_DistortionInsta360Fisheye_fields","__ZTSN4logs5proto3geo2ar12ARCoreConfigE","__ZN3geo2ar7service38_LocalizeOptions_default_instance_ptr_E","_redwood_CameraProfileProto_ThermalModel_fields","__ZTIN3geo2ar7service21T2QueryFacadesRequestE","_FLAGS_nolog_backtrace_at","__ZN13google_public8protobuf8internal26fixed_address_empty_stringE","__ZN6google8protobuf8Duration7_table_E","_iPad8_1","__ZTIN3geo2ar43HorizontalPositionGaussianDistributionProtoE","__ZN3geo2ar64_CameraIntrinsics_CityblockFisheyeV2Distortion_default_instance_E","__ZTSN10statistics14CpuTimerDeviceE","__ZTIN6proto28internal19ImplicitWeakMessageE","__ZTSN3geo2ar39PositionAndYawGaussianDistributionProtoE","__ZN13google_public8protobuf8internal24log_silencer_count_init_E","__ZN4logs5proto3geo2ar53_RealDeadReckonedPoseMixerEvent_default_instance_ptr_E","_logs_proto_vr_arcore_ArCoreLog_EarthConvertArPoseGeospatialPoseEvent_fields","__ZTSN3geo2ar22ReferenceFrameAndStateE","__ZTSN4absl13time_internal4cctz12TimeZoneLibCE","__ZTSN6proto22io16FileOutputStream23CopyingFileOutputStreamE","__ZTVN4logs5proto3geo2ar24LocationOrientationEventE","__ZTV32VRORendererSettingsEventDelegate","__ZTVN3geo2ar9LatLngAltE","__ZTVN4logs5proto3geo2ar33ParticleFilterEvent_TrackedAnchorE","__ZTSN4logs5proto3geo2ar33ParticleFilterEvent_TrackedAnchorE","__ZTS18VROPBRTexturedTest","__ZN4base13process_state13kTestSuiteEndE","__ZTIN3geo2ar3lib31QualityFramePriorityQueueConfigE","_Watch4_2","__ZN3geo2ar7service52_T2ResolveAnchorAndLocalizeRequest_default_instance_E","__ZN3geo2ar3lib45NetworkEventMetrics_TimingMetrics_class_data_E","__ZN4viro41_Node_SkeletalAnimation_default_instance_E","__ZTS26VROPoseFilterMovingAverage","__ZTIN3geo2ar3lib24HeadingFromMotionOptionsE","__ZN6google3geo2ar2v137_CircularRegion_default_instance_ptr_E","__ZTV19VROBodyIKController","_FLAGS_nodefault_executor","__ZN13VROGLTFLoader28_skinIndexToJointChildJointsE","__ZTIN6tflite9profiling12RootProfilerE","__ZN4logs5proto3geo2ar43_PoseStabilityMetrics_default_instance_ptr_E","__ZTVN3geo2ar7service20T2WarmUpCacheRequestE","__ZN13VROGLTFLoader29_skinIndexToSkeletonRootJointE","__ZN3geo2ar3lib30_SensorEvent_default_instance_E","__ZTVN4viro28Node_KeyframeAnimation_FrameE","__ZN4logs5proto3geo2ar31FrameRejectReasonEventAggregate7_table_E","__ZTIN4logs5proto3geo2ar10ErrorCountE","__ZTSN6proto22io15FileInputStreamE","__ZN3geo2ar7service38_LocalAreaParameters_default_instance_E","__ZN3geo2ar45CameraIntrinsics_RadialDistortion_class_data_E","__ZTS18VROVideoSphereTest","__ZN4viro29Node_Geometry_Material_Visual21kIntensityFieldNumberE","__ZN4logs5proto3geo2ar34_WifiOptions_default_instance_ptr_E","__ZTI15VROARSessioniOS","__ZTIN3geo2ar3lib19SessionFacadesModelE","__ZN6google8internal7android8location7bluesky4type10Int32Value7_table_E","__ZN4absl13base_internal19munmap_replacement_E","__ZTIN4absl13time_internal4cctz10TimeZoneIfE","__ZN3geo2ar3lib19InertialAnchorFlags7_table_E","__ZTSN4absl17BadStatusOrAccessE","__ZTVN6google3geo2ar2v114CircularRegionE","_iPod4_1","__ZTVN4logs5proto3geo2ar20ParticleFilterConfigE","__ZTI17btTypedConstraint","__ZN3geo2ar3lib32_LightEstimate_default_instance_E","__ZTIN6google3geo2ar2v19ElevationE","__ZTIN6google3geo2ar2v114CircularRegionE","__ZTSN3geo2ar3lib19InertialAnchorFlagsE","__ZTS9VROPortal","_FLAGS_nostderrthreshold","__ZTIN6proto28internal12ExtensionSet20LazyMessageExtensionE","__ZTI20VROGLTFEventDelegate","_Watch1_1","__ZN8location8bluemoon25EstimateConfidenceOptions7_table_E","__ZN4logs5proto3geo2ar40ParticleTrackingQueueOptions_class_data_E","__ZN4logs5proto3geo2ar66_SmoothedTransformOptions_SimpleSmoothingOptions_default_instance_E","__ZTV17VROPoseFilterEuro","__ZN4absl13cord_internal24shallow_subcords_enabledE","__ZTIN4logs5proto3geo2ar30RealDeadReckonedPoseMixerEventE","__ZTSN4logs5proto3geo2ar9GnssEventE","__ZN6google8internal7android8location7bluesky7v1beta169_GetGridProbabilitiesRequest_ObservationRequest_default_instance_ptr_E","__ZN4viro4Node18kCameraFieldNumberE","_logs_proto_vr_arcore_ArCoreLog_FaceMeshGetAllTrackablesCalled_fields","__ZTSN3geo2ar8geometry8TriangleE","_redwood_FovInRadians_fields","__ZTIN3geo2ar3lib16CameraModelProtoE","__ZN3geo2ar7service45_T2CheckAvailabilityRequest_default_instance_E","__ZTS11btRigidBody","__ZTSN8location8bluemoon21UniformAnglePerturberE","__ZTI25VROGaussianBlurRenderPass","__ZTS11VROImageiOS","__ZTVN4viro18Node_Geometry_SkinE","__ZTVN6proto22io16CordOutputStreamE","__ZTI16VROShaderProgram","__ZN3fLB29FLAGS_nowatch_pthread_managerE","__ZTIN3geo2ar34HeadingFromMotionDistributionProtoE","__ZN3geo2ar3lib24ARCoreConfig_class_data_E","_redwood_Ray3Proto_fields","__ZN13google_public8protobuf26kStringPrintfVectorMaxArgsE","_FLAGS_nostacktrace_timeout","__ZTVN4logs5proto3geo2ar26TerrainAnchorResolvedEventE","__ZTIN8location8bluemoon14BlueskyOptionsE","__ZTI34VROEquirectangularToCubeRenderPass","__ZTIN3geo2ar3lib11SessionImplE","__ZN3geo2ar3lib27DisplayGeometry_class_data_E","__ZN4absl16numbers_internal9kHexTableE","__ZTVN4logs5proto3geo2ar15NightTimeConfigE","__ZTSN4logs5proto3geo2ar22CovarianceMatrix3ProtoE","__ZTS15VROPolylineTest","__ZN3geo2ar3lib68_RealDeadReckonedPoseMixerConfig_Uncertainties_default_instance_ptr_E","__ZTV11VROGLTFTest","__ZTSN7strings20CheckedArrayByteSinkE","__ZTSN8location8bluemoon20SunAngleDistributionE","__ZTIN4logs5proto3geo2ar43CameraIntrinsics_CityblockFisheyeDistortionE","_redwood_CameraModelProto_DistortionInsta360Fisheye_fields","__ZTI24VROBodyTrackerController","__ZTIN6proto22io24ConcatenatingInputStreamE","__ZTS12VROTorusTest","__ZTS26VROVideoTextureCacheOpenGL","__ZTSN3geo2ar3lib24SmoothedTransformOptionsE","__ZTVN7vraudio22StereoMixingPannerNodeE","__ZTSN6icu_7713UnicodeStringE","__ZN3geo2ar7service21T2WarmUpCacheResponse7_table_E","__ZN3geo2ar35CloudLocalizationServiceResultProto7_table_E","__ZTSN7strings13OStringStreamE","__ZTVN7vraudio8GainNodeE","_google_arcorecloudanchor_v1beta2_LocalizeResult_fields","__ZTSN4logs5proto3geo2ar33InertialAnchorReInitCallbackEventE","__ZTS9VROPencil","__ZTS14VROGlyphOpenGL","__ZN6tflite4impl11Interpreter24kTensorsCapacityHeadroomE","_kYuvH709Constants","_logs_proto_vr_arcore_ArCoreLog_EarthCreateTerrainAnchorEvent_fields","__ZN13VROGLTFLoader18_skinSkeletalAnimsE","__ZN4logs5proto3geo2ar38TrackingFailureReasonEvent_class_data_E","__ZN6google3geo2ar2v142_WarmUpCacheResponse_default_instance_ptr_E","__ZN4util8callback18CancellableClosure8kForeverE","__ZN8location8bluemoon38UncertaintyPreserverConfig_class_data_E","_silk_CB_lags_stage2_10_ms","__ZN3geo2ar3lib31_ARCoreConfig_default_instance_E","__ZN6google8protobuf28_Timestamp_default_instance_E","__ZTS9VROSkybox","__ZN3geo2ar3lib25_Config_default_instance_E","__ZN4logs5proto3geo2ar37GnssMeasurementsEvent_GnssMeasurement7_table_E","__ZTVN3geo2ar3lib6ConfigE","__ZN6google3geo2ar2v151_BatchQueryElevationsResponse_default_instance_ptr_E","__ZN6google8protobuf27_Duration_default_instance_E","__ZTIN3geo2ar19RigidTransformProtoE","_logs_proto_vr_arcore_ArCoreLog_PersistentOnlineRecalibrationStats_fields","__ZTSN4logs5proto3geo2ar47CameraIntrinsics_KannalaBrandtFisheyeDistortionE","__ZN4viro22Node_SkeletalAnimation22kHasScalingFieldNumberE","__ZTSN8location8bluemoon35ReinitializingDistributionInterfaceE","__ZTS19VROARCameraInertial","__ZTSN6thread5local8internal8InstanceE","__ZN4logs5proto3geo2ar42_ParticleFilterEvent_default_instance_ptr_E","__ZN3fLD25FLAGS_nodensity_thresholdE","__ZN4logs5proto3geo2ar39_SensorCountEvent_default_instance_ptr_E","__ZN4logs5proto3geo2ar55ParticleFilterConfig_RoadOrientationOptions_class_data_E","__ZN15inertial_anchor9estimator7bearing32CarryChangeDetectorConfiguration30kAbsoluteDetectionThresholdRpsE","__ZTVN3geo2ar3lib20CommonClearcutLoggerE","__ZTVN4logs5proto3geo2ar26UncertaintyPreserverConfigE","_redwood_CompactDatasetProto_fields","__ZN6google3geo2ar2v143_CheckAvailabilityRequest_default_instance_E","__ZN4viro20Node_Geometry_Source6NormalE","__ZN4logs5proto3geo2ar19RigidTransformProto7_table_E","_kP410LoadShuffleIndices","__ZTIN3geo2ar3lib30BatchingSurfaceElevationClient10QueryProxyE","__ZTVN6proto22io16FileOutputStream23CopyingFileOutputStreamE","__ZN8location8bluemoon23WifiOptions_class_data_E","__ZN4logs5proto3geo2ar52_InertialAnchorReInitCallbackEvent_default_instance_E","_silk_max_pulses_table","__ZN3geo2ar3lib39ClearcutLoggingConfig_FrameRejectConfig7_table_E","__ZTSN3geo2ar3lib23BearingTrackingReporterE","__ZTVN13google_public8protobuf8internal16FunctionClosure0E","__ZN3geo2ar55_CarryPoseChangePerturbationProto_default_instance_ptr_E","__ZTSN4viro28Node_KeyframeAnimation_FrameE","__ZN4logs5proto3geo2ar49_UncertaintyPreserverConfig_default_instance_ptr_E","__ZN3geo2ar36_GeodeticPosePrior_default_instance_E","_FLAGS_threaded_logging","__ZTV13VROARFrameiOS","__ZTVN4logs5proto3geo2ar35LocalizationFilterLikelihoodOptionsE","__ZN3geo2ar64_RoadRelativeOrientationYawPredictionProto_default_instance_ptr_E","__ZN6google8internal7android8location7bluesky4type21Timestamp_class_data_E","__ZTS11VROTypeface","_rsa_asn1_meth","_kYuvF709Constants","__ZN3fLB32FLAGS_nouse_thread_subcontainersE","__ZTV19VROStereoscopicTest","__ZTI14VROTypefaceiOS","__ZTVN4logs5proto3geo2ar15SessionEndEventE","__ZTS18VROVideoTextureiOS","__ZN3geo2ar3lib38_DisplayGeometry_default_instance_ptr_E","__ZTSN3geo2ar40CloudLocalizationLikelihoodFunctionProtoE","__ZN3geo2ar55PositionProbabilityGridProto_GridPointProto_class_data_E","__ZTVN3geo2ar3lib31QualityFramePriorityQueueConfigE","__ZTS24VROToneMappingRenderPass","__ZN6proto26bridge29_MessageSet_default_instance_E","__ZN4logs5proto3geo2ar26TerrainAnchorResolvedEvent7_table_E","__ZTSN6google8internal7android8location7bluesky7v1beta148GetGridProbabilitiesResponse_ObservationResponseE","__ZN3geo2ar33_RequestMetrics_default_instance_E","__ZN6google3geo2ar2v138QueryTerrainMeshesResponse_class_data_E","__ZTIN4logs5proto3geo2ar19FrameSelectorConfigE","__ZN4logs5proto3geo2ar56_ParticleFilterEvent_TrackedAnchor_default_instance_ptr_E","__ZN3geo2ar3lib93_ClearcutLoggingConfig_PoseStabilityMonitorConfig_PoseJumpLoggingThresholds_default_instance_E","_silk_shell_code_table0","__ZN3geo2ar3lib18FrameRejectReasons7_table_E","__ZTVN3geo2ar3lib28GaussianLocalizationReporterE","__ZN4viro22Node_Geometry_Material16kNameFieldNumberE","__ZN3geo2ar25LocationProto_class_data_E","__ZN4logs5proto3geo2ar36_LightEstimate_default_instance_ptr_E","__ZN4logs5proto3geo2ar37_BlueskyOptions_default_instance_ptr_E","__ZTIN13google_public8protobuf2io25CopyingInputStreamAdaptorE","__ZTSN7S1Angle5CoderE","__ZN8location8bluemoon14inertialanchor63_EmpiricalHeadingUncertaintyModelFeatures_default_instance_ptr_E","__ZTVN7vraudio16WavStreamDecoderE","__ZTI10VROReticle","_silk_SNR_table_Q1","__ZN4logs5proto3geo2ar33SessionHeartbeatEvent_class_data_E","__ZTSN4util17ErrorSpacePayloadE","__ZN4logs5proto3geo2ar42TerrainAnchorUnresolvableEvent_class_data_E","__ZN8tcmalloc17tcmalloc_internal13delete_hooks_E","__ZTVN3geo2ar3lib22LocalizationFilterImplE","__ZTSN6google3geo2ar2v115LocalizeRequestE","__ZTSN7tinyobj18MaterialFileReaderE","__ZN3geo2ar7service72_T2ResolveAnchorAndLocalizeResponse_ResolvedAnchor_default_instance_ptr_E","__ZTVN4base8internal12CallbackBaseE","_redwood_CameraModelProto_DistortionOpencv_fields","__ZTSN4logs5proto3geo2ar31QualityFramePriorityQueueConfigE","__ZTSN4logs5proto3geo2ar9DevConfigE","__ZTIN7strings10ByteSourceE","__ZTIN8location8bluemoon11WifiOptionsE","__ZN8location8bluemoon14inertialanchor71_WrappedCauchyHeadingUncertaintyModelParametersV1_default_instance_ptr_E","__ZTV15VROVisionEngine","__ZTIN6google3geo2ar2v115LocalizeRequestE","__ZTI21VRORenderTargetOpenGL","__ZTSN4logs5proto3geo2ar45CameraIntrinsics_CityblockFisheyeV2DistortionE","__ZN6google8internal7android8location7bluesky4type28_Timestamp_default_instance_E","_google_arcorecloudanchor_v1beta2_CloudLocalizationServiceResultProto_fields","__ZTVN9perftools7tracing18TraceEventListenerE","__ZN4logs5proto3geo2ar54_LocalizationFilterLikelihoodOptions_default_instance_E","__ZN3geo2ar8geometry4Mesh7_table_E","__ZTV25VROTextureSubstrateOpenGL","__ZTIN3geo2ar3lib19ActualSurfaceAnchor24UnresolvableStateHandlerE","__ZN8location8bluemoon30_WifiOptions_default_instance_E","_logs_proto_vr_arcore_ArCoreLog_GravityDirectionInCameraSpaceStats_fields","__ZN4logs5proto3geo2ar22CovarianceMatrix6Proto7_table_E","_redwood_ExtrinsicCalibration_fields","_silk_shell_code_table2","__ZTS8VROScene","__ZN4viro29Node_Geometry_Material_Visual7NearestE","__ZN6proto28internal24kTypeGoogleApisComPrefixE","__ZTVN3geo2ar3lib44ClearcutLoggingConfig_SessionHeartbeatConfigE","__ZTVN3geo2ar3lib33AdaptiveImageFrameLocalizerConfigE","__ZTSN6google3geo2ar2v119QueryFacadesOptionsE","__ZN3fLI26FLAGS_exit_timeout_secondsE","__ZTSN3geo2ar7service22T2QueryFacadesResponseE","__ZTSN3geo2ar3lib45AdaptiveImageFrameLocalizerConfig_PitchConfigE","_logs_proto_vr_arcore_ArCoreLog_IOSLightingConditionStats_fields","__ZN3geo2ar3lib37ImageFrameLocalizerConfig_class_data_E","_FLAGS_nothread_pool_lazy_spawn_workers","__ZTS22VROAVCaptureController","_logs_proto_vr_arcore_ArCoreLog_ResolveAnchorStartEvent_fields","_silk_pulses_per_block_iCDF","__ZN6proto28internal14WireFormatLite23kMessageSetItemStartTagE","__ZTSN4logs5proto3geo2ar10ErrorCountE","__ZN4viro28Node_KeyframeAnimation_Frame17kScaleFieldNumberE","__ZTSN8location8bluemoon40HeadingFromMotionYawGaussianDistributionE","__ZTIN3geo2ar3lib30HybridSurfaceElevationProvider10QueryProxyE","__ZN6google8protobuf21Timestamp_class_data_E","__ZTS19VROSkeletonRenderer","__ZTS26VROGeometrySubstrateOpenGL","__ZTIN6google3geo2ar2v124CheckAvailabilityRequestE","__ZN4logs5proto3geo2ar36_SessionStartEvent_default_instance_E","__ZTV23VRORendererSettingsTest","__ZN9TimedCall7ExpiredE","__ZTVN3geo2ar8geometry8TriangleE","__ZN3geo2ar7service57T2ResolveAnchorAndLocalizeRequest_CameraImage_class_data_E","__ZTSN3geo2ar7service14LocalizeResultE","_kDefaultSemanticsInputNumDimensions","__ZTI14VROARAnchoriOS","__ZTS16VROBodyMesheriOS","_kMaxPseudonymousIDInactivitySeconds","__ZTS22VROObjectRecognizeriOS","__ZTSN3geo2ar7service27T2CheckAvailabilityResponseE","__ZN4logs5proto3geo2ar42UncertaintyPreserverConfig_PerSignalConfig7_table_E","__ZN6google8internal7android8location7bluesky4type15EcefCoordinates7_table_E","__ZTSN6tflite14MMAPAllocationE","__ZTIN4logs5proto3geo2ar22CovarianceMatrix6ProtoE","__ZTIN6tflite14MMAPAllocationE","__ZN4absl13base_internal13mremap_hooks_E","__ZTS11VROVector4f","_kYvuF709Constants","__ZN4logs5proto3geo2ar56_NetworkEventAggregate_DataMetrics_default_instance_ptr_E","__ZTVN6google3geo2ar2v18TriangleE","__ZTVN3geo2ar3lib8T2ConfigE","__ZN6google3geo2ar2v119FacadesCellContents7_table_E","_logs_proto_vr_arcore_ArCoreLog_FaceMeshFrameDelayChange_fields","__ZTIN4logs5proto3geo2ar23SessionStateChangeEventE","__ZN6proto28internal14WireFormatLite21kWireTypeForFieldTypeE","__ZN4viro4Node20kGeometryFieldNumberE","__ZN3geo2ar51_CarryPoseChangePerturbationProto_default_instance_E","__ZTIN8location8bluemoon23GaussianScalarPerturberE","__ZTVN6google3geo2ar2v120PoseEstimationResultE","__ZN3geo2ar7service11CellTerrain7_table_E","__ZTI24VROAnimatedTextureOpenGL","__ZTI20VROKeyframeAnimation","__ZTSN6proto22io18IstreamInputStreamE","__ZTVN3geo2ar3lib24PoseStabilityMonitorImplE","__ZTS22VROBillboardConstraint","_redwood_CameraProfileProto_LensShadingModel_RadialPoly3Model_fields","__ZN3geo2ar7service36_T2LocalizeRequest_default_instance_E","__ZN4logs5proto3geo2ar47CameraIntrinsics_KannalaBrandtFisheyeDistortion7_table_E","__ZN4logs5proto3geo2ar47_ParticleTrackingQueueOptions_default_instance_E","__ZTIN6icu_777UObjectE","__ZTIN3geo2ar35CloudLocalizationServiceResultProtoE","__ZN4logs5proto3geo2ar60_GnssMeasurementsEvent_GnssMeasurement_default_instance_ptr_E","__ZTS22VROARCameraPrerecorded","__ZN3geo2ar7service44_T2WarmUpCacheResponse_default_instance_ptr_E","__ZTVN6google3geo2ar2v113CacheContentsE","__ZN3geo2ar7service34_LocalizeOptions_default_instance_E","__ZN13google_public8protobuf8internal14WireFormatLite23kMessageSetItemTagsSizeE","__ZTIN6google3geo2ar2v119QueryFacadesOptionsE","__ZTVN6thread8ExecutorE","__ZN3geo2ar3lib70_SmoothedTransformOptions_SimpleSmoothingOptions_default_instance_ptr_E","__ZN3geo2ar3lib71_RealDeadReckonedPoseMixerConfig_ReinitConditions_default_instance_ptr_E","__ZTVN3geo2ar14RequestMetricsE","_FLAGS_noharden_with_context","_kYvu2020Constants","__ZN4logs5proto3geo2ar33_BlueskyOptions_default_instance_E","__ZTIN3geo2ar9LatLngAltE","_kYvuI601Constants","__ZTIN3geo2ar3lib20ParticleFilterConfigE","__ZTI17VROFrameScheduler","__ZTVN8location8bluemoon25GaussianPositionPerturberE","__ZN4logs5proto3geo2ar12ClientConfig7_table_E","__ZN3geo2ar8geometry5Point7_table_E","__ZN4logs5proto3geo2ar33InertialAnchorReInitCallbackEvent7_table_E","__ZTIN6google8internal7android8location7bluesky4type9GnssClockE","__ZTVN3geo2ar7service9ElevationE","__ZN4viro22Node_Geometry_Material22kReflectiveFieldNumberE","__ZN4logs5proto3geo2ar11WifiOptions7_table_E","_iPad8_4","_FLAGS_fromenv","__ZTSN3geo2ar8geometry5PointE","__ZN3geo2ar3lib57AdaptiveImageFrameLocalizerConfig_PitchConfig_class_data_E","__ZN3geo2ar39_CameraIntrinsics_default_instance_ptr_E","__ZTSN3geo2ar35InertialAnchorPoseDistributionProtoE","__ZTVN6google8internal7android8location7bluesky4type9TimestampE","__ZN3geo2ar59_RoadRelativeOrientationDistributionProto_default_instance_E","__ZTSN6google8protobuf8DurationE","__ZTSN4logs5proto3geo2ar20Config_NetworkConfigE","__ZTSN2ar5image14ImageBlockDataE","__ZTVN4logs5proto3geo2ar51LowLightImageProcessingConfig_GammaCorrectionConfigE","__ZTSN3geo2ar3lib30BatchingSurfaceElevationClient10QueryProxyE","_Watch2_6","__ZN3geo2ar3lib35_CameraModelProto_default_instance_E","__ZTVN3geo2ar47CameraIntrinsics_KannalaBrandtFisheyeDistortionE","__ZTSN3geo2ar3lib48RealDeadReckonedPoseMixerConfig_ReinitConditionsE","__ZTVN4logs5proto3geo2ar21NetworkEventAggregateE","__ZTV12VROTorusKnot","__ZTVN4logs5proto3geo2ar33NetworkEventAggregate_DataMetricsE","__ZTV18VROToneMappingTest","__ZN3geo2ar14RequestMetrics7_table_E","__ZN4viro22Node_Geometry_Material4NoneE","__ZTSN6google3geo2ar2v119FacadesCellContentsE","__ZN4logs5proto3geo2ar34CarryPoseChangeOptions_class_data_E","__ZTI24VROBodyAnimDataReaderiOS","__ZN8location8bluemoon39_StepDetectionOptions_default_instance_E","_kBodyAnimTotalTime","__ZTIN3geo2ar3lib15SunAngleOptionsE","__ZN4logs5proto3geo2ar31FrameSelectorConfig_class_data_E","__ZN4viro29Node_Geometry_Material_Visual21kWrapModeSFieldNumberE","__ZTIN3geo2ar3lib16FacadesModelImplE","_FLAGS_log_prefix","__ZN6google3geo2ar2v146_BatchQueryElevationsRequest_default_instance_E","__ZN6google8internal7android8location7bluesky4type26LlaCoordinates_class_data_E","__ZN4logs5proto3geo2ar38_SessionEndEvent_default_instance_ptr_E","__ZTIN3geo2ar3lib30HybridSurfaceElevationProviderE","__ZN4logs5proto3geo2ar43FrameRejectReasonEventAggregate_class_data_E","__ZN3geo2ar3lib58_LocalizationFilterLikelihoodOptions_default_instance_ptr_E","__ZN6google3geo2ar2v116Mesh_class_data_E","__ZTSN4viro29Node_Geometry_Material_VisualE","__ZTS17VROAudioPlayeriOS","__ZTIN4logs5proto3geo2ar43ParticleFilterConfig_RoadOrientationOptionsE","__ZTI20VROTextEventDelegate","__ZTI11VROVector4f","__ZN6google3geo2ar2v120StartSessionResponse7_table_E","__ZN6google8internal7android8location7bluesky7v1beta134_CompactGridEcef_default_instance_E","__ZN4logs5proto3geo2ar25Vector3dProto_class_data_E","__ZN4logs5proto3geo2ar31_BearingEvent_default_instance_E","__ZN8geostore37_FeatureIdProto_default_instance_ptr_E","__ZN3geo2ar36_FacadesSnapshotId_default_instance_E","__ZN4logs5proto3geo2ar68_AdaptiveImageFrameLocalizerConfig_PitchConfig_default_instance_ptr_E","__ZN4logs5proto3geo2ar30_SensorCount_default_instance_E","__ZN4logs5proto3geo2ar44_ClearcutLoggingConfig_default_instance_ptr_E","_silk_nb_cbk_searchs_stage3","_logs_proto_vr_arcore_ArCoreLog_EstimateFeatureMapQualityStats_fields","__ZTVN3geo2ar7service34T2ResolveAnchorAndLocalizeResponseE","__ZN3geo2ar3lib52_LowLightImageProcessingConfig_default_instance_ptr_E","__ZTSN4logs5proto3geo2ar11SensorCountE","__ZN3geo2ar8geometry16Mesh_class_data_E","__ZTSN6google8internal7android8location7bluesky4type9TimestampE","__ZN13google_public8protobuf2io17CodedOutputStream36default_serialization_deterministic_E","__ZN3geo2ar58_PositionAndYawGaussianDistributionProto_default_instance_E","__ZN4viro10Node_Light23kTemperatureFieldNumberE","_iPad3_5","__ZTVN3geo2ar3lib30BatchingSurfaceElevationClientE","_logs_proto_vr_arcore_ArCoreLog_DeepLightComputationStats_fields","_Watch1_2","__ZTVN4logs5proto3geo2ar52RealDeadReckonedPoseMixerConfig_TransformDifferencesE","__ZTVN6tflite18FileCopyAllocationE","__ZN4viro22Node_Geometry_Material20kSpecularFieldNumberE","__ZN6google3geo2ar2v132StartSessionResponse_class_data_E","__ZN4logs5proto3geo2ar44_SessionHeartbeatEvent_default_instance_ptr_E","__ZTS24VROPolylineEventDelegate","__ZN13google_public8protobuf11kuint128maxE","__ZN6proto28internal38implicit_weak_message_default_instanceE","__ZN6google3geo2ar2v126CircularRegion_class_data_E","__ZTIN3geo2ar35InertialAnchorPoseDistributionProtoE","__ZN4absl12RFC3339_fullE","_redwood_GridRayFieldCamera_fields","__ZTVN4logs5proto3geo2ar21ClearcutLoggingConfigE","__ZTS9VROIKTest","_google_arcorecloudanchor_v1beta2_AnchorPose_fields","__ZN3geo2ar3lib31_ClientConfig_default_instance_E","__ZN4logs5proto3geo2ar45_CovarianceMatrix3Proto_default_instance_ptr_E","__ZTIN4viro28Node_SkeletalAnimation_FrameE","_iPad2_6","_redwood_MagnetometerModelProto_fields","__ZN4viro22Node_Geometry_Material5BlinnE","__ZN4viro10Node_Light21kIntensityFieldNumberE","__ZTSN3geo2ar7service20T2WarmUpCacheRequestE","__ZTVN3geo2ar40RoadRelativeOrientationDistributionProtoE","_google_arcorecloudanchor_v1beta2_LocalizeOptions_fields","_ViroKitVersionString","__ZN3geo2ar8geometry20Triangle_class_data_E","__ZTIN3geo2ar7service49T2ResolveAnchorAndLocalizeResponse_ResolvedAnchorE","__ZN15inertial_anchor9estimator7bearing21BearingTrackingFilter27kLowPassFilterLengthSecondsE","__ZN3geo2ar3lib62_ParticleFilterConfig_RoadOrientationOptions_default_instance_E","__ZN4viro10Node_Light26kAttenuationEndFieldNumberE","__ZN4logs5proto3geo2ar24LocalizationRequestEvent7_table_E","_kOpenGLCameraTTangoCamera","__ZN6google8internal7android8location7bluesky4type29_FloatValue_default_instance_E","__ZN6google8internal7android8location7bluesky7v1beta165_GetGridProbabilitiesRequest_ObservationRequest_default_instance_E","__ZN4viro37_Node_Geometry_Skin_default_instance_E","__ZTSN6google8protobuf7ClosureE","__ZN4logs5proto3geo2ar27_T2Config_default_instance_E","__ZN4logs5proto3geo2ar27SunAngleOptions_class_data_E","__ZN3geo2ar3lib33_PoseConfidence_default_instance_E","__ZN4logs5proto3geo2ar28RigidTransformWithConfidence7_table_E","__ZN4logs5proto3geo2ar16Project3x3Config7_table_E","__ZTIN2ar11persistence20FeatureOccupancyGridE","__ZN13VROGLTFLoader26_skinIndexToJointNodeIndexE","__ZTSN3geo2ar3lib28ParticleTrackingQueueOptionsE","_kBodyAnimAnimRows","__ZTI9VRODriver","__ZTS17VROShaderModifier","__ZN6google3geo2ar2v138_FacadesCellContents_default_instance_E","__ZTV12VROTorusTest","__ZTS23VROPhysicsEventDelegate","_logs_proto_vr_arcore_ArCoreLog_FeatureOccupancyGridStats_fields","__ZN4logs5proto3geo2ar40RigidTransformWithConfidence_class_data_E","__ZTV19VROSkeletonRenderer","__ZTIN4base6TracerE","__ZTVN3geo2ar3lib19InertialAnchorFlagsE","_redwood_CameraModelProto_DistortionPoly3_fields","__ZTSN13google_public8protobuf2io16GzipOutputStreamE","__ZTI24VRODiffuseIrradianceTest","__ZTSN3geo2ar7service49T2ResolveAnchorAndLocalizeResponse_ResolvedAnchorE","__ZN4viro4Node20kPositionFieldNumberE","__ZTVN3geo2ar3lib45AdaptiveImageFrameLocalizerConfig_PitchConfigE","__ZN3geo2ar3lib8kEusQEnuE","__ZTSN4viro18Node_Geometry_SkinE","__ZN4logs5proto3geo2ar54_NetworkEventAggregate_TimingMetrics_default_instance_E","_redwood_CameraModelProto_DistortionFoV_fields","__ZTVN4logs5proto3geo2ar19ParticleFilterEventE","__ZTVN13google_public8protobuf2io18CopyingInputStreamE","__ZN13google_public8protobuf8internal14WireFormatLite21kMessageSetMessageTagE","__ZTI11VRORenderer","__ZN4logs5proto3geo2ar68_RealDeadReckonedPoseMixerConfig_Uncertainties_default_instance_ptr_E","__ZTVN3geo2ar7service19LocalAreaParametersE","__ZTS14VROPolygonTest","__ZTI14VROPhysicsTest","__ZTV16VROBodyPlayeriOS","__ZN6google3geo2ar2v140_FacadesSnapshotId_default_instance_ptr_E","__ZTVN4logs5proto3geo2ar12BearingEventE","__ZTSN4logs5proto3geo2ar33CameraIntrinsics_RadialDistortionE","_silk_pitch_lag_iCDF","__ZTS23VROARObjectTrackingTest","__ZN4viro22Node_Geometry_Material6ScreenE","__ZN8location8bluemoon14BlueskyOptions7_table_E","_logs_proto_vr_arcore_ArCoreLog_ImageIntensityStats_fields","__ZTI16VROPBRDirectTest","_kBodyAnimTimestamp","_google_arcorecloudanchor_v1beta2_QuaternionProto_w_default","__ZN6google3geo2ar2v135_LocalizeResponse_default_instance_E","__ZTVN3geo2ar3lib23AnchorProviderWithQueueE","__ZTVN4logs5proto3geo2ar48LowLightImageProcessingConfig_PixelBinningConfigE","__ZTIN6google3geo2ar2v125CheckAvailabilityResponseE","__ZN4viro37_Node_Skeleton_Bone_default_instance_E","__ZTSN7strings12NullByteSinkE","__ZTIN4absl7LogSinkE","__ZTSN4absl13cord_internal9CordzInfoE","__ZN3geo2ar3lib74RealDeadReckonedPoseMixerConfig_DeadReckonedPoseEstimateConfig_class_data_E","_silk_Resampler_1_2_COEFS","__ZTVN3geo2ar17FacadesSnapshotIdE","__ZTSN3geo2ar3lib33NetworkEventMetrics_TimingMetricsE","__ZN4logs5proto3geo2ar36LocalizationRequestEvent_class_data_E","_kYuvI601Constants","__ZTVN3geo2ar15QuaternionProtoE","__ZN4logs5proto3geo2ar34_SunAngleOptions_default_instance_E","__ZN8location8bluemoon59_HeadingFromMotionDistributionOptions_default_instance_ptr_E","_kDefaultSemanticsOutputNumDimensions","_thread_stack_dumper","__ZN4viro28Node_SkeletalAnimation_Frame16kTimeFieldNumberE","__ZTIN3geo2ar3lib31RealDeadReckonedPoseMixerConfigE","__ZTIN7tinyobj14MaterialReaderE","__ZN3geo2ar3lib31RealDeadReckonedPoseMixerConfig7_table_E","__ZN4logs5proto3geo2ar38TerrainAnchorResolvedEvent_class_data_E","_FLAGS_novmodule","__ZN6proto26bridge10MessageSet7_table_E","__ZN6google3geo2ar2v128LocalizeResponse_class_data_E","__ZN4logs5proto3geo2ar50_GnssMeasurementsEvent_GnssClock_default_instance_E","__ZTVN8location8bluemoon20StepDetectionOptionsE","__ZTV12VROTaskQueue","__ZTIN10statistics14CpuTimerDeviceE","__ZTVN6google3geo2ar2v119StartSessionRequestE","__ZN4viro22Node_Geometry_Material25kLightingModelFieldNumberE","__ZTVN8location8bluemoon24UniformPositionPerturberE","__ZTVN4logs5proto3geo2ar20Config_NetworkConfigE","_redwood_CameraProfileProto_depth_api_support_mode_default","__ZN3geo2ar32_Detection_default_instance_ptr_E","__ZTS16VROShaderFactory","_iPod7_1","__ZN3geo2ar7service23CellFacades_class_data_E","_google_arcorecloudanchor_v1beta2_CameraIntrinsics_KannalaBrandtFisheyeDistortion_fields","__ZTIN9perftools7tracing18TraceEventListenerE","__ZTIN13google_public8protobuf2io17ArrayOutputStreamE","__ZN6google3geo2ar2v148_QueryTerrainMeshesRequest_default_instance_ptr_E","__ZTSN3geo2ar3lib28GaussianLocalizationReporterE","__ZTS24VROObjectRecognitionTest","_x25519_asn1_meth","__ZTI25VROPoseFilterBoneDistance","__ZTVN3geo2ar7service28T2QueryTerrainMeshesResponseE","__ZN6google8protobuf4util6Status2OKE","_redwood_CameraProfileProto_CameraConfigEntry_Int32Array_fields","__ZTSN4logs5proto3geo2ar14BarometerEventE","_redwood_CompressedImages_fields","_logs_proto_vr_arcore_ArCoreLog_ImageTrackingStats_fields","__ZTVN3geo2ar41RoadRelativeOrientationYawPredictionProtoE","__ZTI17VROBRDFRenderPass","_google_arcorecloudanchor_v1beta2_AnchorError_fields","__ZN3geo2ar7service23CellTerrain_class_data_E","_iPhone10_5","__ZTIN4logs5proto3geo2ar22RoadOrientationOptionsE","__ZN9TimedCall7RunningE","__ZTI11VROGLTFTest","__ZN3fLD29FLAGS_nocorrelation_thresholdE","_FLAGS_noinfinite_loop_on_signal","_FLAGS_skip_address_map","__ZTIN6proto22io25CopyingInputStreamAdaptorE","__ZTVN4util20NonMessageSetPayloadE","__ZTIN6proto22io20ZeroCopyOutputStreamE","__ZTIN6proto22io19OstreamOutputStream26CopyingOstreamOutputStreamE","__ZN4logs5proto3geo2ar32ParticleFilterConfig_class_data_E","__ZTIN8location8bluemoon21InertialAnchorOptionsE","__ZTV15VROVideoSurface","__ZTSN6proto22io19OstreamOutputStreamE","__ZTSN13google_public8protobuf2io26CopyingOutputStreamAdaptorE","__ZN4logs5proto3geo2ar44_LocalizationResponseEvent_default_instance_E","__ZTVN3geo2ar3lib14HttpPostResultE","__ZN6google3geo2ar2v152CloudLocalizationLikelihoodFunctionProto_class_data_E","__ZTS34VROEquirectangularToCubeRenderPass","_FLAGS_noalarm_on_failure","__ZN4logs5proto3geo2ar31QualityFramePriorityQueueConfig7_table_E","_FLAGS_alarm_on_failure","_kDefaultSemanticsInputBatchSize","__ZN4logs5proto3geo2ar45_CarryPoseChangeOptions_default_instance_ptr_E","__ZN8location8bluemoon47_CloudLocalizationOptions_default_instance_ptr_E","__ZN3geo2ar7service18T2LocalizeResponse7_table_E","__ZN3geo2ar7service45T2ResolveAnchorAndLocalizeRequest_class_data_E","__ZTIN4logs5proto3geo2ar33ParticleFilterEvent_TrackedAnchorE","__ZN4logs5proto3geo2ar15SessionEndEvent7_table_E","__ZN4logs5proto3geo2ar15LocalizeOptions7_table_E","__ZN4viro39_Node_Geometry_Source_default_instance_E","__ZN3geo2ar7service51_T2QueryTerrainMeshesResponse_default_instance_ptr_E","_logs_proto_vr_arcore_ArCoreLog_PlaneEstimationStatistics_fields","__ZTV18VROVideoSphereTest","_redwood_Vector3fProto_fields","__ZTS36GeoARPlatformAnchorProviderWithARKit","__ZTVN3geo2ar7service33T2ResolveAnchorAndLocalizeRequestE","__ZN4logs5proto3geo2ar34_SessionEndEvent_default_instance_E","__ZTI20VROARSceneController","__ZTSN13google_public8protobuf8internal16FunctionClosure0E","__ZTIN3geo2ar7service19LocalAreaParametersE","__ZN3geo2ar3lib25ImageFrameLocalizerConfig7_table_E","_logs_proto_vr_arcore_ArCoreLog_FaceMeshInitialized_fields","__ZTVN6proto22io18CopyingInputStreamE","__ZTSN6proto26bridge10MessageSetE","__ZTSN3geo2ar14ReferenceFrameE","__ZTIN3geo2ar3lib22LocalizationFilterImplE","__ZTSN3geo2ar3lib11SessionImplE","__ZTS32VRORendererSettingsEventDelegate","__ZTSN8S2CellId5CoderE","__ZTSN3geo2ar33CameraIntrinsics_RadialDistortionE","_iPhone11_6","_redwood_DeviceProfile2Proto_fingerprint_default","__ZTVN4absl13cord_internal11CordzHandleE","__ZN4logs5proto3geo2ar27PoseLikelihoodFunctionProto7_table_E","__ZTVN4logs5proto3geo2ar34CameraIntrinsics_FisheyeDistortionE","_iPhone9_1","__ZTSN4util8callback18CancellableClosureE","__ZTVN4absl13cord_internal9CordzInfoE","__ZTI19VROHDREventDelegate","__ZN4logs5proto3geo2ar41_CovarianceMatrix3Proto_default_instance_E","__ZN8location8bluemoon34BearingTrackingOptions_class_data_E","__ZTVN4logs5proto3geo2ar25LocalizationResponseEventE","_FLAGS_nochroot","__ZTS25VROTextureSubstrateOpenGL","__ZTSN4logs5proto3geo2ar15LocalizeOptionsE","__ZN3geo2ar16CameraIntrinsics7_table_E","__ZTVN4logs5proto3geo2ar37GnssMeasurementsEvent_GnssMeasurementE","__ZN4viro13Node_Geometry20kMaterialFieldNumberE","_logs_proto_vr_arcore_ArCoreLog_DeltaCalibrationStats_fields","__ZTIN3geo2ar7service6AnchorE","__ZTS19GeoARClearcutLogger","_x86_64_Sim","__ZN4logs5proto3geo2ar47_CloudLocalizationOptions_default_instance_ptr_E","__ZTIN3geo2ar3lib26FrameSnapshotForThirdPartyE","_logs_proto_vr_arcore_ArCoreLog_AndroidCamera2Metrics_fields","__ZTSN7strings14StringByteSinkE","__ZN6proto28internal14WireFormatLite20kMessageSetTypeIdTagE","__ZTIN3geo2ar7service27T2CheckAvailabilityResponseE","_logs_proto_vr_arcore_ArCoreLog_BackgroundSegmentationInitialized_fields","__ZTIN4logs5proto3geo2ar28ClientConfig_RenderingConfigE","__ZTVN4logs5proto3geo2ar21SetCameraTDeviceEventE","_Watch3_1","__ZN4logs5proto3geo2ar45AdaptiveImageFrameLocalizerConfig_class_data_E","__ZTSN3geo2ar3lib19LocalizationManagerE","__ZTSN6google3geo2ar2v114CircularRegionE","__ZTI19VROCameraTextureiOS","_logs_proto_vr_arcore_ArCoreLog_ImageSessionSummaryEvent_fields","__ZN6google8internal7android8location7bluesky4type34_GnssMeasurement_default_instance_E","__ZTVN7vraudio14HoaRotatorNodeE","__ZN3geo2ar3lib45AdaptiveImageFrameLocalizerConfig_PitchConfig7_table_E","__ZN8location8bluemoon14inertialanchor67_WrappedCauchyHeadingUncertaintyModelParametersV1_default_instance_E","__ZN3geo2ar7service41_T2QueryFacadesResponse_default_instance_E","__ZN3geo2ar7service39T2CheckAvailabilityResponse_class_data_E","__ZN3geo2ar3lib52_NetworkEventMetrics_TimingMetrics_default_instance_E","__ZN8location8bluemoon14inertialanchor59_EmpiricalHeadingUncertaintyModelFeatures_default_instance_E","__ZTIN3geo2ar3lib52RealDeadReckonedPoseMixerConfig_TransformDifferencesE","__ZN3fLI30FLAGS_default_executor_threadsE","__ZN6google3geo2ar2v150_PoseLikelihoodFunctionProto_default_instance_ptr_E","__ZTSN3geo2ar3lib31NetworkEventMetrics_DataMetricsE","_iPhone7_1","__ZTI26VROPoseFilterMovingAverage","__ZTIN13google_public8protobuf2io18StringOutputStreamE","__ZTVN7S1Angle5CoderE","_kVPSHTTPMethodPost","__ZN8location8bluemoon33InertialAnchorOptions_class_data_E","__ZTV9VROCamera","__ZTVN3geo2ar25SunAngleDistributionProtoE","__ZTSN4logs5proto3geo2ar15QuaternionProtoE","__ZTVN10statistics14CpuTimerDeviceE","__ZTI18VROParticleEmitter","_kInfinity","__ZTI16VROIBLPreprocess","__ZTV20VROInputControllerAR","__ZN6proto28internal16kAnyFullTypeNameE","_FLAGS_nosensor_type_count_log_interval","__ZN3geo2ar3lib51ClearcutLoggingConfig_FrameRejectConfig_class_data_E","__ZTV14VROARCameraiOS","__ZTSN3geo2ar3lib17FacadesClientImplE","__ZN3geo2ar3lib41_FrameRejectReasons_default_instance_ptr_E","__ZN3geo2ar36_LocationProto_default_instance_ptr_E","__ZTSN10statistics15WallTimerDeviceE","__ZN3geo2ar9Detection7_table_E","__ZTS18VROSceneController","_logs_proto_vr_arcore_ArCoreLog_PatchAbsolutePoseEvent_fields","__ZTV10VROARScene","_FLAGS_tryfromenv","__ZTIN8location8bluemoon24CloudLocalizationOptionsE","__ZN4viro21Node_Geometry_Element4LineE","__ZTSN6google3geo2ar2v127BatchQueryElevationsRequestE","__ZN6google3geo2ar2v144_QueryTerrainMeshesRequest_default_instance_E","__ZN4logs5proto3geo2ar33GnssMeasurementsEvent_class_data_E","__ZN6google8internal7android8location7bluesky4type27GnssMeasurement_class_data_E","__ZTSN3geo2ar3lib30BatchingSurfaceElevationClientE","_FLAGS_protobuf_enable_hardening","__ZN4viro4Node17kLightFieldNumberE","__ZN3geo2ar3lib26PoseConfidence_class_data_E","_logs_proto_vr_arcore_ArCoreLog_RelocalizationQualityStatistics_fields","__ZN3geo2ar3lib47LocalizationFilterLikelihoodOptions_class_data_E","__ZTIN3geo2ar9DetectionE","__ZTVN3geo2ar3lib48RealDeadReckonedPoseMixerConfig_ReinitConditionsE","__ZN4logs5proto3geo2ar42_SessionStateChangeEvent_default_instance_E","__ZTSN13google_public8protobuf2io19CopyingOutputStreamE","__ZN4logs5proto3geo2ar35SessionStateChangeEvent_class_data_E","__ZTIN7strings22UncheckedArrayByteSinkE","__ZN4logs5proto3geo2ar33SetCameraTDeviceEvent_class_data_E","__ZN3geo2ar3lib42_FrameSelectorConfig_default_instance_ptr_E","__ZTI10VROFrustum","__ZN4viro20Node_Geometry_Source12VertexCreaseE","__ZN6google8internal7android8location7bluesky7v1beta147_GetGridProbabilitiesResponse_default_instance_E","_redwood_OneofSensorProfile_fields","_hkdf_pkey_meth","_redwood_AudioModelProto_FrequencyGain_fields","__ZTI23VROPortalTreeRenderPass","__ZTIN4viro20Node_Geometry_SourceE","__ZTS13VROShadowTest","_gCurrentNodes","__ZTSN13google_public8protobuf2io19ZeroCopyInputStreamE","__ZN6google8internal7android8location7bluesky7v1beta139GetGridProbabilitiesRequest_class_data_E","__ZTIN3geo2ar49HorizontalPositionAndYawGaussianDistributionProtoE","__ZTVN3geo2ar3lib35LocalizationFilterLikelihoodOptionsE","_logs_proto_vr_arcore_ArCoreLog_ImageDetectionStats_fields","__ZTVN4logs5proto3geo2ar12ClientConfigE","__ZTVN7vraudio22MonoFromSoundfieldNodeE","__ZN7vraudio17VrAudioEngineImpl19kFifoMaxWaitingTimeE","__ZTS16VROBodyPlayeriOS","__ZTVN3geo2ar3lib21ClearcutLoggingConfigE","_iPhone3_1","__ZTSN3geo2ar3lib20DebugPoseResultProtoE","__ZTIN3geo2ar3lib48RealDeadReckonedPoseMixerConfig_ReinitConditionsE","__ZN4base13process_state14kShutdownBeginE","__ZTS26VROBodyAnimDataRecorderiOS","__ZTI14VROParticleUBO","__ZTVN13google_public8protobuf2io19ZeroCopyInputStreamE","__ZN4logs5proto3geo2ar61RealDeadReckonedPoseMixerConfig_UncertaintyRatios_class_data_E","__ZTSN3geo2ar3lib20ParticleFilterConfigE","__ZN4logs5proto3geo2ar67_ClearcutLoggingConfig_PoseStabilityMonitorConfig_default_instance_E","__ZN3geo2ar3lib33ClearcutLoggingConfig_class_data_E","__ZTVN3geo2ar3lib20PerformanceModeStoreE","__ZN3geo2ar51_BearingTrackingPerturbationProto_default_instance_E","_redwood_DeviceProfile2Proto_ImusEntry_fields","__ZN3geo2ar3lib42_NetworkEventMetrics_default_instance_ptr_E","__ZTVN3geo2ar3lib39ClearcutLoggingConfig_FrameRejectConfigE","__ZTIN13google_public8protobuf2io15GzipInputStreamE","_logs_proto_vr_arcore_ArCoreLog_ResolveAnchorEvent_fields","_kBoringSSLRSASqrtTwoLen","__ZTS23btGeneric6DofConstraint","__ZN3geo2ar63_CloudLocalizationLikelihoodFunctionProto_default_instance_ptr_E","__ZN4logs5proto3geo2ar33_BarometerEvent_default_instance_E","_FLAGS_chroot","__ZTIN4logs5proto3geo2ar34CameraIntrinsics_FisheyeDistortionE","__ZTI11VROImageiOS","__ZN3geo2ar38_RigidTransformProto_default_instance_E","__ZN6google3geo2ar2v125QueryTerrainMeshesRequest7_table_E","_google_arcorecloudanchor_v1beta2_ReferenceFrame_fields","__ZTS24VROMaterialShaderBinding","__ZTIN3geo2ar16CameraParametersE","__ZTVN3geo2ar7service17T2LocalizeRequestE","__ZTSN4absl12crc_internal23FallbackCrcMemcpyEngineE","__ZTIN4logs5proto3geo2ar74ClearcutLoggingConfig_PoseStabilityMonitorConfig_PoseJumpLoggingThresholdsE","__ZTSN6proto22io18IstreamInputStream25CopyingIstreamInputStreamE","__ZN6google3geo2ar2v133_ElevationQuery_default_instance_E","__ZN8tcmalloc17tcmalloc_internal18sampled_new_hooks_E","__ZN3geo2ar5depth21kComputeDepthTimerTagE","_silk_CB_lags_stage3_10_ms","__ZN4viro10Node_Light28kAttenuationStartFieldNumberE","__ZN4logs5proto3geo2ar41_LightEstimateEvent_default_instance_ptr_E","__ZN4logs5proto3geo2ar38_FrameSelectorConfig_default_instance_E","__ZTS14VROPhysicsTest","__ZN6google3geo2ar2v127LocalizeRequest_class_data_E","__ZTIN3geo2ar3lib19ActualSurfaceAnchor22UnresolvedStateHandlerE","__ZTV15VROSoundDataGVR","__ZTVN6google3geo2ar2v127PoseLikelihoodFunctionProtoE","_redwood_CameraProfileProto_DynamicIntrinsicsModelParams_fields","__ZTV17VROFrameScheduler","__ZN4logs5proto3geo2ar14BlueskyOptions7_table_E","__ZTSN6google3geo2ar2v120QueryFacadesResponseE","_logs_proto_vr_arcore_ArCoreLog_StreetscapeGeometryRaycastEvent_fields","__ZN4util32NonMessageSetPayload_class_data_E","__ZN4viro13Node_Geometry16kNameFieldNumberE","__ZTVN6google3geo2ar2v135CloudLocalizationServiceResultProtoE","__ZTVN6icu_7710AppendableE","__ZN15inertial_anchor9estimator7bearing32CarryChangeDetectorConfiguration16kMinWindowLengthE","__ZTVN4util14SimulatedClockE","__ZN4logs5proto3geo2ar48_LocalizationResponseEvent_default_instance_ptr_E","__ZN3geo2ar3lib42TimedImageFrameLocalizerConfig_class_data_E","__ZN3geo2ar3lib20Config_NetworkConfig7_table_E","_eMeans","__ZTSN3geo2ar3lib47SmoothedTransformOptions_SimpleSmoothingOptionsE","__ZN3geo2ar7service22T2QueryFacadesResponse7_table_E","__ZTV23VROFixedParticleEmitter","__ZTS10VROTexture","__ZTVN4logs5proto3geo2ar24CloudLocalizationOptionsE","__ZN13google_public8protobuf4util6Status9CANCELLEDE","__ZTVN4viro22Node_Geometry_MaterialE","__ZTVN3geo2ar7service27T2CheckAvailabilityResponseE","__ZTVN4logs5proto3geo2ar6ConfigE","__ZTIN4logs5proto3geo2ar45RealDeadReckonedPoseMixerConfig_UncertaintiesE","__ZN8location8bluemoon29SignalTypeEnum_internal_data_E","__ZN3geo2ar68_CameraIntrinsics_CityblockFisheyeV2Distortion_default_instance_ptr_E","__ZTIN3geo2ar3lib20DebugPoseResultProtoE","__ZTVN13google_public8protobuf8internal12FieldSkipperE","__ZTS15VROARShadowTest","__ZTIN13google_public8protobuf8internal12FieldSkipperE","__ZN3geo2ar3lib8kEnuQEusE","__ZTSN4logs5proto3geo2ar22CovarianceMatrix6ProtoE","__ZTV10VROReticle","_redwood_CameraProfileProto_lens_shading_model_source_default","_redwood_CameraProfileProto_qualitative_fov_default","__ZN8location8bluemoon37_BlueskyOptions_default_instance_ptr_E","__ZTIN3geo2ar3lib21StepDetectionReporterE","__ZTVN3geo2ar3lib16CameraModelProtoE","__ZTS22VROBodySurfaceRenderer","__ZN3geo2ar8geometry27_Mesh_default_instance_ptr_E","__ZN3geo2ar32_Vector3dProto_default_instance_E","__ZTI12VROTaskQueue","__ZN3geo2ar3lib33AdaptiveImageFrameLocalizerConfig7_table_E","__ZN6google3geo2ar2v136_LocationProto_default_instance_ptr_E","__ZTVN3geo2ar3lib31NetworkEventMetrics_DataMetricsE","__ZTI22VROPrefilterRenderPass","__ZN3geo2ar22Detections_class_data_E","__ZN4viro22Node_Geometry_Material3AddE","__ZN3geo2ar3lib21ClearcutLoggingConfig7_table_E","__ZTVN3geo2ar7service30T2BatchQueryElevationsResponseE","__ZN4logs5proto3geo2ar37ImageFrameLocalizerConfig_class_data_E","_AppleTV2_1","_logs_proto_vr_arcore_ArCoreLog_PlaneMeasurementsProcessingStatistics_fields","__ZTVN3geo2ar3lib30HybridSurfaceElevationProviderE","__ZTS27VROToneMappingEventDelegate","_logs_proto_vr_arcore_ArCoreLog_PlaneQualityStats_fields","__ZTSN6google3geo2ar2v19ElevationE","__ZTSN4logs5proto3geo2ar30TimedImageFrameLocalizerConfigE","__ZTI15VROVisionEngine","__ZTS11VRORenderer","__ZTIN4logs5proto3geo2ar33CameraIntrinsics_RadialDistortionE","__ZN6google8protobuf8internal31is_open_source_see_bug_34197817E","__ZTS19VROBodyIKController","__ZTSN3geo2ar32BearingTrackingPerturbationProtoE","__ZTSN6proto22io20ByteSinkOutputStreamE","__ZN4viro21Node_Geometry_Element5PointE","__ZN3geo2ar7service27T2CheckAvailabilityResponse7_table_E","__ZN3geo2ar3lib40ParticleTrackingQueueOptions_class_data_E","__ZTIN3geo2ar3lib19ActualSurfaceAnchor20ResolvedStateHandlerE","__ZN4logs5proto3geo2ar31TerrainAnchorFirstTrackingEvent7_table_E","_logs_proto_vr_arcore_ArCoreLog_VioResetEvent_fields","__ZTIN6tflite17MutableOpResolverE","__ZTI18GeoARPlaneProvider","__ZN4logs5proto3geo2ar25LightEstimate_class_data_E","__ZN4logs5proto3geo2ar37_BarometerEvent_default_instance_ptr_E","__ZTIN8location8bluemoon22UniformScalarPerturberE","_silk_type_offset_VAD_iCDF","__ZN4absl9Condition5kTrueE","__ZTVN4absl12crc_internal5CRC32E","__ZTIN6proto22io15FileInputStream22CopyingFileInputStreamE","__ZN3geo2ar33_Detections_default_instance_ptr_E","__ZN3geo2ar7service33T2ResolveAnchorAndLocalizeRequest7_table_E","__ZTIN4logs5proto3geo2ar44ClearcutLoggingConfig_SessionHeartbeatConfigE","__ZN8location8bluemoon43_StepDetectionOptions_default_instance_ptr_E","__ZN3geo2ar7service52_T2BatchQueryElevationsRequest_default_instance_ptr_E","_silk_shell_code_table1","_FLAGS_test_indicate_sighandler_done","__ZTVN4logs5proto3geo2ar47CameraIntrinsics_KannalaBrandtFisheyeDistortionE","__ZTVN4absl12crc_internal23FallbackCrcMemcpyEngineE","__ZTI9VROCamera","__ZTVN4logs5proto3geo2ar48RealDeadReckonedPoseMixerConfig_ReinitConditionsE","__ZN4logs5proto3geo2ar49_TimedImageFrameLocalizerConfig_default_instance_E","_redwood_CameraModelProto_DistortionCityblockFisheye_fields","__ZTVN4logs5proto3geo2ar43ParticleFilterConfig_RoadOrientationOptionsE","__ZTI17VROAnimationChain","__ZTSN4logs5proto3geo2ar15SunAngleOptionsE","__ZTSN4logs5proto3geo2ar34CameraIntrinsics_FisheyeDistortionE","__ZN3geo2ar3lib43_SmoothedTransformOptions_default_instance_E","__ZTVN3geo2ar22ReferenceFrameAndStateE","__ZN3geo2ar37_RequestMetrics_default_instance_ptr_E","__ZN3geo2ar8geometry28_Point_default_instance_ptr_E","__ZTVN4logs5proto3geo2ar11WifiOptionsE","_FLAGS_localizer_remappings","__ZN3geo2ar48_SunAngleDistributionProto_default_instance_ptr_E","__ZTSN6google3geo2ar2v113CacheContentsE","__ZTVN8location8bluemoon33RoadOrientationResultDistributionE","__ZTIN4absl13cord_internal11CordzHandleE","_kGeoARImageEvent","__ZTSN4viro22Node_SkeletalAnimationE","__ZTV17VROBodyMesherTest","__ZTVN6google3geo2ar2v140CloudLocalizationLikelihoodFunctionProtoE","__ZN3geo2ar17GeodeticPosePrior7_table_E","__ZN3geo2ar47CloudLocalizationServiceResultProto_class_data_E","_google_protobuf_Any_fields","__ZN3geo2ar3lib20DebugPoseResultProto7_table_E","__ZN4viro30_Node_Camera_default_instance_E","__ZN4logs5proto3geo2ar45AdaptiveImageFrameLocalizerConfig_PitchConfig7_table_E","__ZTV14VROHeadTracker","__ZTVN4logs5proto3geo2ar20StepDetectionOptionsE","_kVPSHTTPMethodGet","__ZN13google_public8protobuf8internal18shutdown_functionsE","__ZN3geo2ar62_CameraIntrinsics_CityblockFisheyeDistortion_default_instance_E","__ZN6google3geo2ar2v139_PoseEstimationResult_default_instance_E","__ZTVN3geo2ar3lib15SunAngleOptionsE","__ZN4viro22Node_Geometry_Material20kCullModeFieldNumberE","__ZN4logs5proto3geo2ar32_PoseJumpEvent_default_instance_E","_ar_persistence_HostAnchorStats_fields","__ZTI20VROARSessionInertial","__ZTVN4logs5proto3geo2ar27PoseLikelihoodFunctionProtoE","__ZN8location8bluemoon14inertialanchor63_EmpiricalHeadingUncertaintyModelParametersV1_default_instance_E","__ZTI17VROAudioPlayeriOS","__ZN4logs5proto3geo2ar36CloudLocalizationOptions_class_data_E","__ZN6google3geo2ar2v130_TerrainMesh_default_instance_E","__ZTV21VROImageShaderProgram","__ZN3geo2ar3lib70_LowLightImageProcessingConfig_GammaCorrectionConfig_default_instance_E","_redwood_ImuMeasurementsProto_SingleImuMeasurement_fields","__ZTIN4logs5proto3geo2ar25LocalizationResponseEventE","_redwood_CompactImuMeasurementsProto_fields","__ZN3geo2ar57_HeadingFromMotionDistributionProto_default_instance_ptr_E","__ZTS10VROBoxTest","_logs_proto_vr_arcore_ArCoreLog_IOSDepthStats_MLDepthCallStatusCount_fields","__ZN4logs5proto3geo2ar46_SessionStateChangeEvent_default_instance_ptr_E","__ZTSN3geo2ar9LatLngAltE","_silk_shell_code_table3","_redwood_DisplayGeometryLut_fields","__ZN4viro22Node_Geometry_Material24kTransparencyFieldNumberE","__ZN4logs5proto3geo2ar24LocationOrientationEvent7_table_E","__ZN4logs5proto3geo2ar35_CameraIntrinsics_default_instance_E","__ZTV23VROARObjectTrackingTest","_iPad4_5","__ZTIN3geo2ar3lib29LowLightImageProcessingConfigE","_gDeactivationTime","__ZN3geo2ar7service57_T2ResolveAnchorAndLocalizeResponse_default_instance_ptr_E","__ZN6proto28internal14WireFormatLite21kMessageSetMessageTagE","__ZTV18VROBodyTrackerTest","__ZN6google3geo2ar2v131QueryFacadesRequest_class_data_E","__ZN4logs5proto3geo2ar15QuaternionProto7_table_E","__ZTIN8geostore14FeatureIdProtoE","__ZTV18VROARFrameInertial","__ZTSN4logs5proto3geo2ar24SmoothedTransformOptionsE","__ZTIN4logs5proto3geo2ar9DevConfigE","__ZTVN6tflite8resource20InitializationStatusE","__ZN4logs5proto3geo2ar71_ClearcutLoggingConfig_PoseStabilityMonitorConfig_default_instance_ptr_E","__ZTS17VROBodyMesherTest","_iPad6_4","__ZN15inertial_anchor9estimator7bearing21BearingTrackingFilter15kTimeDelayNanosE","_ec_asn1_meth","__ZN4absl13cord_internal31cord_steals_from_rvalue_stringsE","__ZTVN6google3geo2ar2v111FacadesCellE","_FLAGS_notest_indicate_sighandler_done","__ZTS23StderrThreadStackWriter","_redwood_CameraProfileProto_CameraConfigEntry_FloatArray_fields","__ZTI23btGeneric6DofConstraint","__ZTS18VROBodyTrackerYolo","_logs_proto_vr_arcore_ArCoreLog_DepthManagerCallStats_CallStatusCount_fields","__ZTS15VROVideoSurface","__ZN4viro22Node_Geometry_Material14kAoFieldNumberE","__ZTI10CordReader","_FLAGS_nounique_id_use_random_seed","__ZTIN4base14TraceEntrySinkE","__ZN6proto28internal14WireFormatLite22kFieldTypeToCppTypeMapE","__ZTI27VROLayeredSkeletalAnimation","__ZTIN4logs5proto3geo2ar62RealDeadReckonedPoseMixerConfig_DeadReckonedPoseEstimateConfigE","__ZTIN3geo2ar7service27T2QueryTerrainMeshesRequestE","__ZTSN13google_public8protobuf2io20ZeroCopyOutputStreamE","__ZN4logs5proto3geo2ar62_CameraIntrinsics_CityblockFisheyeDistortion_default_instance_E","__ZTVN4logs5proto3geo2ar22BearingTrackingOptionsE","__ZTSN4logs5proto3geo2ar48ParticleFilterConfig_PositionAndYawFilterOptionsE","__ZTSN3geo2ar16CameraIntrinsicsE","__ZTIN6google8internal7android8location7bluesky7v1beta115CompactGridEcefE","__ZN6google3geo2ar2v126ReferenceFrame_class_data_E","_iPad4_6","__ZTV16VROShaderProgram","__ZTVN3geo2ar39PositionAndYawGaussianDistributionProtoE","_logs_proto_vr_arcore_ArCoreLog_AddImageToTrackedImageDatabaseEvent_fields","_redwood_CameraProfileProto_StreamGroup_fields","_dh_pkey_meth","__ZTS17ThreadStackWriter","__ZTV22VROShadowMapRenderPass","__ZN6google3geo2ar2v127BatchQueryElevationsRequest7_table_E","__ZTIN4viro13Node_GeometryE","__ZN4viro13Node_Geometry19kElementFieldNumberE","__ZN4logs5proto3geo2ar13Vector3dProto7_table_E","__ZTSN3ion4base8DateTimeE","__ZTVN7strings12NullByteSinkE","__ZTVN4logs5proto3geo2ar30TimedImageFrameLocalizerConfigE","__ZN6google3geo2ar2v147CloudLocalizationServiceResultProto_class_data_E","__ZTVN13google_public8protobuf2io17ArrayOutputStreamE","__ZN4viro29Node_Geometry_Material_Visual6MirrorE","__ZN4logs5proto3geo2ar32_GnssEvent_default_instance_ptr_E","__ZN4viro22Node_Geometry_Material12CullMode_MAXE","__ZTI26VROMaterialSubstrateOpenGL","__ZTVN7vraudio10ReverbNodeE","_FLAGS_suppress_failure_output","__ZTIN4logs5proto3geo2ar49RealDeadReckonedPoseMixerConfig_UncertaintyRatiosE","__ZN6google8internal7android8location7bluesky4type22Int64Value_class_data_E","__ZN3geo2ar3lib62RealDeadReckonedPoseMixerConfig_DeadReckonedPoseEstimateConfig7_table_E","_logs_proto_vr_arcore_ArCoreLog_SetTrackedImageDatabaseEvent_fields","__ZTVN4viro11Node_MatrixE","__ZN13VROGLTFLoader18_nodeKeyFrameAnimsE","__ZN4viro22Node_Geometry_Material21kShininessFieldNumberE","__ZTS19VROIBLEventDelegate","__ZTIN3geo2ar7service18T2LocalizeResponseE","__ZN4logs5proto3geo2ar60RealDeadReckonedPoseMixerConfig_ReinitConditions_class_data_E","__ZN6proto26bridge33_MessageSet_default_instance_ptr_E","__ZTVN4logs5proto3geo2ar25ImageFrameLocalizerConfigE","_iPhone3_2","_redwood_CameraProfileProto_DistortionFisheyeEquisolid_fields","__ZN3geo2ar3lib24SmoothedTransformOptions7_table_E","__ZTV14VROPhysicsTest","__ZTI23VROIrradianceRenderPass","__ZN4logs5proto3geo2ar44_TerrainAnchorCreatedEvent_default_instance_E","__ZTVN3geo2ar3lib20LocalizationProviderE","__ZN3geo2ar66_CameraIntrinsics_KannalaBrandtFisheyeDistortion_default_instance_E","__ZTI17VROBoneConstraint","_redwood_BSplineRayFieldCamera_fields","__ZTSN8location8bluemoon25StepDetectionPerturbationE","__ZN3geo2ar26RequestMetrics_class_data_E","__ZN4logs5proto3geo2ar22FrameRejectReasonEvent7_table_E","__ZN4logs5proto3geo2ar60WrappedCauchyHeadingUncertaintyModelParametersV1_class_data_E","__ZTI17VROAnimationGroup","__ZN3geo2ar52_CameraIntrinsics_RadialDistortion_default_instance_E","__ZTS18AbstractThreadPool","_iPad1_2","__ZN4logs5proto3geo2ar44_SetCameraTDeviceEvent_default_instance_ptr_E","__ZN9PerThread11module_initE","__ZN4logs5proto3geo2ar21SetCameraTDeviceEvent7_table_E","_logs_proto_vr_arcore_ArCoreLog_CreateTrackedImageDatabaseEvent_fields","__ZTVN4absl17BadStatusOrAccessE","_silk_resampler_frac_FIR_12","__ZN15inertial_anchor9estimator7bearing32CarryChangeDetectorConfiguration30kAdaptiveDetectionThresholdRpsE","__ZN4logs5proto3geo2ar44_InertialAnchorOptions_default_instance_ptr_E","_iPad2_7","__ZTVN7strings20GrowingArrayByteSinkE","_FLAGS_nologbuflevel","__ZN3geo2ar7service34T2QueryFacadesResponse_class_data_E","__ZN6google3geo2ar2v115LocalizeRequest7_table_E","__ZTI26VROGeometrySubstrateOpenGL","__ZTSN3geo2ar3lib15NightTimeConfigE","__ZTSN13google_public8protobuf8internal12FieldSkipperE","__ZN4absl14ascii_internal8kToLowerE","_redwood_CameraProfileProto_StreamGroup_FrameRateRange_fields","__ZN6proto28internal17kGlobalEmptyTableE","__ZN4viro29Node_Geometry_Material_Visual21kMipFilterFieldNumberE","__ZTVN8location8bluemoon22GaussianAnglePerturberE","__ZTSN4absl16strings_internal13OStringStream9StreambufE","__ZTSN7strings15ArrayByteSourceE","__ZTIN6google3geo2ar2v119QueryFacadesRequestE","__ZN4logs5proto3geo2ar36LocationOrientationEvent_class_data_E","__ZTSN4logs5proto3geo2ar21SessionHeartbeatEventE","_redwood_CompactDatasetProto_Camera_fields","__ZN3geo2ar3lib51LowLightImageProcessingConfig_GammaCorrectionConfig7_table_E","_FLAGS_nofromenv","__ZTI15VRODriverOpenGL","__ZTIN3geo2ar3lib17RealFrameSnapshotE","__ZTSN4logs5proto3geo2ar24LocalizationRequestEventE","__ZN3geo2ar27QuaternionProto_class_data_E","__ZN5fLU6417FLAGS_nojpeg_omitE","__ZN6google3rpc18Status_class_data_E","__ZN6proto22io17CodedOutputStream36default_serialization_deterministic_E","__ZTVN4absl12log_internal10LogMessage11OstreamViewE","__ZTSN13google_public8protobuf2io25CopyingInputStreamAdaptorE","__ZTV7VRONode","__ZTVN4absl7LogSinkE","__ZTIN6google8protobuf14FatalExceptionE","__ZN13google_public8protobuf8internal14WireFormatLite23kMessageSetItemStartTagE","__ZTVN6google3geo2ar2v120QueryFacadesResponseE","__ZN3geo2ar32BearingTrackingPerturbationProto7_table_E","__ZN3geo2ar44CarryPoseChangePerturbationProto_class_data_E","__ZTV20VROGLTFEventDelegate","__ZN3geo2ar7service26ElevationQuery_class_data_E","__ZTI12VROTorusKnot","_redwood_CameraModelProto_DistortionFisheyeSpline3_fields","__ZTSN6proto22io21ByteSourceInputStreamE","__ZTVN4logs5proto3geo2ar14BarometerEventE","__ZTSN6google3geo2ar2v111TerrainMeshE","__ZTVN4base16TraceEntrySourceE","__ZTIN3geo2ar3lib22BearingTrackingWrapperE","_iPod5_1","__ZTVN3geo2ar3lib19ActualSurfaceAnchor22UnresolvedStateHandlerE","__ZN4logs5proto3geo2ar58_NetworkEventAggregate_TimingMetrics_default_instance_ptr_E","__ZN15CProfileManager9ResetTimeE","__ZTIN13google_public8protobuf7ClosureE","__ZN4absl13cord_internal22copy_sharing_thresholdE","__ZN4absl18container_internal11kSooControlE","__ZN4logs5proto3geo2ar43_HeadingFromMotionOptions_default_instance_E","__ZN4logs5proto3geo2ar67_WrappedCauchyHeadingUncertaintyModelParametersV1_default_instance_E","__ZTVN7tinyobj18MaterialFileReaderE","__ZTSN4logs5proto3geo2ar27PoseLikelihoodFunctionProtoE","_iPad5_3","_FLAGS_tracking_failure_reason_log_interval","__ZN4logs5proto3geo2ar29_ErrorCount_default_instance_E","_logs_proto_vr_arcore_ArCoreLog_fields","__ZTVN7strings20CheckedArrayByteSinkE","__ZTI13VRONodeCamera","__ZTIN6google3geo2ar2v117FacadesSnapshotIdE","__ZTSN4logs5proto3geo2ar19InertialAnchorFlagsE","__ZTVN4logs5proto3geo2ar33InertialAnchorReInitCallbackEventE","__ZTSN4logs5proto3geo2ar8T2ConfigE","__ZTSN6google3geo2ar2v114ElevationQueryE","__ZN4viro28Node_SkeletalAnimation_Frame21kTransformFieldNumberE","__ZTSN4logs5proto3geo2ar24HeadingFromMotionOptionsE","__ZTVN3geo2ar3lib52RealDeadReckonedPoseMixerConfig_TransformDifferencesE","__ZTIN3geo2ar7service22T2QueryFacadesResponseE","__ZN6proto28internal24kTypeGoogleProdComPrefixE","__ZTS9VROCamera","_FLAGS_unique_id_use_random_seed","__ZTVN3geo2ar4PoseE","__ZN3geo2ar3lib60ParticleFilterConfig_PositionAndYawFilterOptions_class_data_E","_FLAGS_ret_check_abort_on_failure","__ZN4viro22Node_Geometry_Material4BackE","_logs_proto_vr_arcore_ArCoreLog_Track_fields","__ZTIN7strings8ByteSinkE","__ZN4viro22Node_Geometry_Material17LightingModel_MINE","__ZTI12VROBloomTest","__ZN3geo2ar70_CameraIntrinsics_KannalaBrandtFisheyeDistortion_default_instance_ptr_E","__ZTSN6google3geo2ar2v124CheckAvailabilityRequestE","_kGeoARLocationEvent","__ZTVN6google8internal7android8location7bluesky4type15GnssMeasurementE","__ZTS30VROInputControllerCardboardiOS","__ZN4logs5proto3geo2ar68_RealDeadReckonedPoseMixerConfig_UncertaintyRatios_default_instance_E","__ZN4util30_StatusProto_default_instance_E","__ZTS15VROPhysicsShape","__ZN3geo2ar34_Orientation_default_instance_ptr_E","_redwood_AudioCompensationProfileProto_fields","__ZTSN8location8bluemoon42UncertaintyPreserverConfig_PerSignalConfigE","__ZTSN6google3geo2ar2v114ReferenceFrameE","__ZTI9VROIKTest","__ZN3geo2ar52RoadRelativeOrientationDistributionProto_class_data_E","__ZTV20VROSkeletalAnimation","__ZN3geo2ar29_Detections_default_instance_E","__ZN4logs5proto3geo2ar24BearingEvent_class_data_E","__ZTSN6google3geo2ar2v117GeodeticPosePriorE","__ZTI10VROMorpher","__ZN4viro29Node_Geometry_Material_Visual18WrapMode_ARRAYSIZEE","__ZN6google8internal7android8location7bluesky4type29_Int32Value_default_instance_E","_silk_TargetRate_table_WB","__ZTSN6proto22io16FileOutputStreamE","__ZTVN6google8internal7android8location7bluesky7v1beta148GetGridProbabilitiesResponse_ObservationResponseE","__ZTS21VRORenderTargetOpenGL","__ZN4logs5proto3geo2ar35_Project3x3Config_default_instance_E","__ZN4viro29Node_Geometry_Material_Visual30kMinificationFilterFieldNumberE","__ZTVN7strings14StringByteSinkE","__ZN3geo2ar32_LocationProto_default_instance_E","_logs_proto_vr_arcore_ArCoreLog_SceneHistoryStats_PeriodicFeatureStats_fields","__ZTIN3geo2ar7service34T2ResolveAnchorAndLocalizeResponseE","__ZTV23VROPhotometricLightTest","_kYuvV2020Constants","__ZTVN3geo2ar3lib45RealDeadReckonedPoseMixerConfig_UncertaintiesE","__ZTI15VROVideoSurface","__ZN6google3geo2ar2v146_PoseLikelihoodFunctionProto_default_instance_E","__ZTSN3geo2ar7service6AnchorE","__ZTSN6google3geo2ar2v140CloudLocalizationLikelihoodFunctionProtoE","__ZTS15VROSoundDataGVR","__ZN3geo2ar3lib57RealDeadReckonedPoseMixerConfig_Uncertainties_class_data_E","_kYvuV2020Constants","__ZTSN6proto28internal29CodedOutputStreamFieldSkipperE","__ZTV28VROFrameSynchronizerInternal","__ZN3geo2ar3lib14kGlWorldTWorldE","__ZTSN6google8internal7android8location7bluesky4type10Int64ValueE","__ZTI11VROGeometry","_iPhone11_2","__ZTIN4logs5proto3geo2ar33NetworkEventAggregate_DataMetricsE","__ZTS17VROActionAnimated","__ZN6thread8internal25kDefaultRequiredStackSizeE","__ZN4viro48_Node_Geometry_Material_Visual_default_instance_E","__ZTI14VROPortalFrame","__ZN3geo2ar52_PositionGaussianDistributionProto_default_instance_E","__ZTIN3geo2ar13LocationProtoE","__ZN4logs5proto3geo2ar47_LocationOrientationEvent_default_instance_ptr_E","_redwood_SequenceProto_fields","_iPhone9_2","__ZN4logs5proto3geo2ar25LocalizationResponseEvent7_table_E","__ZTIN3geo2ar14RequestMetricsE","__ZTSN4absl7LogSinkE","__ZTVN6google3geo2ar2v126QueryTerrainMeshesResponseE","__ZTSN3geo2ar16CameraParametersE","__ZTI25VROTextureSubstrateOpenGL","__ZN3geo2ar58_InertialAnchorPoseDistributionProto_default_instance_ptr_E","__ZN8tcmalloc17tcmalloc_internal10new_hooks_E","__ZTVN3geo2ar16CameraIntrinsicsE","__ZTV22VROARImperativeSession","__ZN4viro22Node_Geometry_Material5AlphaE","__ZTI18VRODriverOpenGLiOS","__ZTIN3geo2ar7service21T2WarmUpCacheResponseE","__ZTSN6google3geo2ar2v16LatLngE","__ZN6google3geo2ar2v140CloudLocalizationLikelihoodFunctionProto7_table_E","_logs_proto_vr_arcore_ArCoreLog_MapSolveStats_fields","_redwood_CameraProfileProto_DistortionFoV_fields","_iPad7_6","__ZN4logs5proto3geo2ar52_CameraIntrinsics_RadialDistortion_default_instance_E","__ZN3geo2ar3lib32DebugPoseResultProto_class_data_E","__ZTIN6google3geo2ar2v111TerrainMeshE","__ZTS15VRODriverOpenGL","__ZTS20VROARSceneController","__ZTVN6google3geo2ar2v15PointE","__ZTVN6google3rpc6StatusE","__ZN4logs5proto3geo2ar45_RoadOrientationOptions_default_instance_ptr_E","_google_protobuf_Timestamp_fields","_google_protobuf_Duration_fields","__ZTVN3geo2ar7service21T2QueryFacadesRequestE","__ZN6google8internal7android8location7bluesky4type27EcefCoordinates_class_data_E","__ZTVN4viro29Node_Geometry_Material_VisualE","__ZTIN3geo2ar3lib25ImageFrameLocalizerConfigE","__ZN4logs5proto3geo2ar23GeoArLibLog_class_data_E","__ZTVN8location8bluemoon39InertialAnchorWrappedCauchyDistributionE","_FLAGS_logbuflevel","__ZTS19VROStereoscopicTest","__ZTSN4logs5proto3geo2ar11WifiOptionsE","_logs_proto_vr_arcore_ArCoreLog_GeospatialCreatorAnchorResolvedEvent_fields","__ZN6google3rpc6Status7_table_E","__ZTI14VROARCameraiOS","__ZTIN4logs5proto3geo2ar28RigidTransformWithConfidenceE","__ZN3geo2ar3lib48ParticleFilterConfig_PositionAndYawFilterOptions7_table_E","__ZTSN3geo2ar32CarryPoseChangePerturbationProtoE","__ZTV22VROARDraggableNodeTest","__ZN4base8internal18background_contextE","__ZTS14VROARPlaneTest","__ZTS10VROReticle","__ZN2S28internal8kIJtoPosE","__ZN13google_public8protobuf8internal24shutdown_functions_mutexE","__ZTSN3geo2ar3lib19BasicEarthTrackableE","__ZTVN7vraudio15ReflectionsNodeE","_iPad2_2","__ZN6google3geo2ar2v126ElevationQuery_class_data_E","__ZTIN3geo2ar7service11CellTerrainE","_silk_pitch_delta_iCDF","_google_arcorecloudanchor_v1beta2_ResolveAnchorAndLocalizeResponse_ResolvedAnchor_fields","__ZTIN4viro4NodeE","__ZTVN13google_public8protobuf2io15GzipInputStreamE","_FLAGS_logtostderr","__ZTIN3geo2ar3lib26LocalizationClearcutLoggerE","_redwood_CameraModelProto_DistortionKannalaBrandtFisheye_fields","_kDefaultSemanticsInputImageNumChannels","__ZTVN8location8bluemoon27BearingTrackingPerturbationE","__ZTIN4logs5proto3geo2ar19ParticleFilterEventE","__ZTIN3geo2ar3lib49RealDeadReckonedPoseMixerConfig_UncertaintyRatiosE","__ZTIN4logs5proto3geo2ar48ParticleFilterConfig_PositionAndYawFilterOptionsE","__ZN4logs5proto3geo2ar50_QualityFramePriorityQueueConfig_default_instance_E","__ZTIN3geo2ar3lib20PerformanceModeStoreE","__ZN13google_public8protobuf8internal14WireFormatLite21kMessageSetItemEndTagE","_logs_proto_vr_arcore_ArCoreLog_ImageFirstTimeDetectionEvent_fields","__ZN4viro20Node_Geometry_Source22kDataOffsetFieldNumberE","__ZTSN8location8bluemoon36HeadingFromMotionDistributionOptionsE","__ZN4viro22Node_Geometry_Material18CullMode_ARRAYSIZEE","_FLAGS_use_alternate_stack_for_signal_handlers","__ZN3geo2ar66_CameraIntrinsics_CityblockFisheyeDistortion_default_instance_ptr_E","__ZN6google8internal7android8location7bluesky4type15GnssMeasurement7_table_E","__ZTSN8location8bluemoon20PositionAndYawFilterE","_logs_proto_vr_arcore_ArCoreLog_PatchFailureReasonStats_fields","__ZN3geo2ar7service18Anchor_class_data_E","__ZN3geo2ar7service33T2WarmUpCacheResponse_class_data_E","__ZTSN6tflite16MemoryAllocationE","__ZN4logs5proto3geo2ar46CameraIntrinsics_FisheyeDistortion_class_data_E","__ZTVN4logs5proto3geo2ar16Project3x3ConfigE","__ZTVN3geo2ar43PositionProbabilityGridProto_GridPointProtoE","__ZTIN13google_public8protobuf8internal29CodedOutputStreamFieldSkipperE","__ZTI9VROPencil","__ZTS17VROAnimationGroup","__ZN4logs5proto3geo2ar28CameraIntrinsics_class_data_E","__ZTVN4logs5proto3geo2ar18LightEstimateEventE","__ZTSN6tflite9profiling12RootProfilerE","__ZTS24VROAnimatedTextureOpenGL","__ZTS20VROTextEventDelegate","__ZN4logs5proto3geo2ar53_TimedImageFrameLocalizerConfig_default_instance_ptr_E","_logs_proto_vr_arcore_ArCoreLog_CalibrationFileStats_CalibrationParameterStatistics_fields","__ZN3geo2ar3lib12ARCoreConfig5Impl_69_i_give_permission_to_break_this_code_default_arcore_server_endpoint_E","_redwood_CameraProfileProto_thermal_model_source_default","__ZTIN3geo2ar3lib16SunAngleReporterE","__ZN4viro22Node_Geometry_Material5PhongE","__ZTIN4absl17BadStatusOrAccessE","__ZTVN3geo2ar3lib33SessionStatusMonitorForThirdPartyE","__ZTSN4util11StatusProtoE","__ZN6google3geo2ar2v131WarmUpCacheResponse_class_data_E","__ZTV23VROARDeclarativeSession","__ZTSN4viro22Node_Geometry_MaterialE","__ZTS15VROARSessioniOS","__ZTSN3geo2ar3lib20PerformanceModeStoreE","__ZN4logs5proto3geo2ar30LightEstimateEvent_class_data_E","__ZTVN3geo2ar3lib14PoseConfidenceE","__ZN4logs5proto3geo2ar29SessionStartEvent_class_data_E","__ZTVN6google8internal7android8location7bluesky7v1beta127GetGridProbabilitiesRequestE","__ZTV15VROPolylineTest","__ZTIN6proto22io16FileOutputStreamE","__ZTSN3geo2ar3lib15SunAngleOptionsE","__ZTSN3geo2ar3lib24FacadesServiceV1ApiProxyE","__ZN15inertial_anchor9estimator7bearing32CarryChangeDetectorConfiguration26kFallingEdgeSearchTimeoutSE","__ZTS25VROGaussianBlurRenderPass","__ZN3geo2ar3lib97_ClearcutLoggingConfig_PoseStabilityMonitorConfig_PoseJumpLoggingThresholds_default_instance_ptr_E","__maxdot_large","__ZN3geo2ar3lib19FrameSelectorConfig7_table_E","__pilTypesToJointTypes","__ZTSN6tflite9telemetry23TfLiteTelemetryProfilerE","__ZTIN4base13TraceConsumerE","__ZTSN4logs5proto3geo2ar15NightTimeConfigE","__ZTV11VROImageiOS","__ZN3geo2ar3lib48ClearcutLoggingConfig_PoseStabilityMonitorConfig7_table_E","_kGeoARTimeToTracking","_Watch2_7","__ZTSN3geo2ar3lib14HttpPostResultE","__ZN4logs5proto3geo2ar48HeadingFromMotionDistributionOptions_class_data_E","__ZN4logs5proto3geo2ar48ParticleFilterConfig_PositionAndYawFilterOptions7_table_E","__ZTSN6proto22io18StringOutputStreamE","__ZN6google3geo2ar2v143_PoseEstimationResult_default_instance_ptr_E","__ZN3geo2ar62_HorizontalPositionGaussianDistributionProto_default_instance_E","__ZN3geo2ar66_HorizontalPositionGaussianDistributionProto_default_instance_ptr_E","__ZN3geo2ar3lib54_LocalizationFilterLikelihoodOptions_default_instance_E","_FLAGS_sensor_type_count_log_interval","__ZN4logs5proto3geo2ar21DevConfig_class_data_E","_iPad3_4","__ZN6google3geo2ar2v138_QueryFacadesRequest_default_instance_E","__ZTV25LogErrorThreadStackWriter","__ZTIN3geo2ar3lib17FacadesClientImplE","__ZTSN6google8internal7android8location7bluesky4type15EcefCoordinatesE","__ZTVN3ion4base10LogCheckerE","__ZTI22VROInputControllerBase","__ZTIN3geo2ar14PlaceIdOptionsE","__ZN4logs5proto3geo2ar28SensorCountEvent_class_data_E","__ZN4util15status_internal33g_status_payload_printer_registerE","__ZN4absl12log_internal17kUnsignedCharNullE","__ZTS25VROImagePostProcessOpenGL","__ZTSN3geo2ar7service11CellTerrainE","__ZTVN4logs5proto3geo2ar45AdaptiveImageFrameLocalizerConfig_PitchConfigE","__ZTS20VROARSessionInertial","__ZN3geo2ar3lib43QualityFramePriorityQueueConfig_class_data_E","__ZN3geo2ar7service49_T2BatchQueryElevationsResponse_default_instance_E","_logs_proto_vr_arcore_ArCoreLog_EarthCreateAnchorEvent_fields","_logs_proto_vr_arcore_ArCoreLog_SixDofSessionStats_PoseConfidenceStats_fields","__ZTV24VROBodyTrackerController","__ZTSN3geo2ar43CameraIntrinsics_CityblockFisheyeDistortionE","__ZN4viro20Node_Geometry_Source23kVertexCountFieldNumberE","__ZTVN6tflite17MutableOpResolverE","__ZN4logs5proto3geo2ar21SessionHeartbeatEvent7_table_E","_logs_proto_vr_arcore_ArCoreLog_InertialTrackingContextEvent_fields","__ZTSN3geo2ar3lib18KeplerServerCallerE","_logs_proto_vr_arcore_ArCoreLog_UserMotionStatistics_BoundingVolume_fields","__ZTSN4util14SimulatedClockE","__ZTIN13google_public8protobuf2io19CopyingOutputStreamE","__ZN6google3geo2ar2v154_CloudLocalizationServiceResultProto_default_instance_E","_iPad4_7","__ZTVN6google8internal7android8location7bluesky7v1beta115CompactGridEcefE","__ZTIN4logs5proto3geo2ar11SensorCountE","__ZTSN4logs5proto3geo2ar42UncertaintyPreserverConfig_PerSignalConfigE","__ZN3geo2ar3lib86ClearcutLoggingConfig_PoseStabilityMonitorConfig_PoseJumpLoggingThresholds_class_data_E","__ZTSN3geo2ar4PoseE","__ZTIN3geo2ar3lib15BearingReporterE","__ZTSN3geo2ar27PoseLikelihoodFunctionProtoE","__ZTVN13google_public8protobuf14FatalExceptionE","__ZTSN4logs5proto3geo2ar25LocalizationResponseEventE","__ZTSN4logs5proto3geo2ar24LocationOrientationEventE","__ZN14VROPhysicsBody11kDynamicTagE","__ZTSN8location8bluemoon22GaussianAnglePerturberE","__ZN3geo2ar28PositionProbabilityGridProto7_table_E","__ZTVN4logs5proto3geo2ar19FrameSelectorConfigE","_logs_proto_vr_arcore_ArCoreLog_MotionTrackingStartingEvent_fields","__ZTVN4logs5proto3geo2ar22CovarianceMatrix6ProtoE","__ZN4logs5proto3geo2ar53_TerrainAnchorUnresolvableEvent_default_instance_ptr_E","__ZN6google3geo2ar2v142_StartSessionRequest_default_instance_ptr_E","__ZN8location8bluemoon45_RoadOrientationOptions_default_instance_ptr_E","_redwood_CaptureRequestConstraints_fields","__ZTVN3geo2ar28PositionProbabilityGridProtoE","__ZTS24VROParticleEventDelegate","__ZN4logs5proto3geo2ar45_FrameRejectReasonEvent_default_instance_ptr_E","__ZN13VROGLTFLoader8_skinMapE","__ZTV26VROViewRecorderRTTDelegate","__ZTS26VROViewRecorderRTTDelegate","_logs_proto_vr_arcore_ArCoreLog_DeltaCalibrationStats_Vector3d_fields","__ZTSN4logs5proto3geo2ar62RealDeadReckonedPoseMixerConfig_DeadReckonedPoseEstimateConfigE","__ZN3geo2ar3lib37_FrameRejectReasons_default_instance_E","__ZTSN7strings10ByteSourceE","_kDefaultNodeTag","__ZN4logs5proto3geo2ar22CarryPoseChangeOptions7_table_E","__ZTCN3geo2ar3lib19ActualSurfaceAnchorE8_NS1_13SurfaceAnchorE","__ZTIN8location8bluemoon29BoundedUniformScalarPerturberE","__ZN4logs5proto3geo2ar42RealDeadReckonedPoseMixerEvent_class_data_E","__ZTSN3geo2ar3lib21StepDetectionReporterE","__ZTI27VROPostProcessEffectFactory","__ZTVN6tflite8SubgraphE","__ZTIN3geo2ar3lib22InertialAnchorReporterE","__ZN6google8internal7android8location7bluesky4type33_LlaCoordinates_default_instance_E","__ZTVN3geo2ar11OrientationE","__ZTIN3geo2ar27PoseLikelihoodFunctionProtoE","__ZN4viro10Node_Light4OmniE","__ZTIN3geo2ar3lib17BarometerReporterE","_google_arcorecloudanchor_v1beta2_CameraParameters_fields","__ZN3geo2ar34ReferenceFrameAndState_class_data_E","__ZTIN6google3geo2ar2v16LatLngE","__ZTVN6proto22io18IstreamInputStream25CopyingIstreamInputStreamE","_silk_LBRR_flags_iCDF_ptr","__ZN3geo2ar16Pose_class_data_E","__ZTVN4logs5proto3geo2ar20PoseStabilityMetricsE","_gTotalBytesAlignedAllocs","__ZTV19VROShadowPreprocess","__ZN4viro11Node_Camera20kPositionFieldNumberE","__ZTVN8location8bluemoon25EstimateConfidenceOptionsE","__ZTVN3geo2ar3lib23CarryPoseChangeReporterE","__ZN3geo2ar7service37_ElevationQuery_default_instance_ptr_E","_google_arcorecloudanchor_v1beta2_LocationProto_fields","__ZN6google3geo2ar2v138_QueryFacadesOptions_default_instance_E","__ZTSN3geo2ar3lib14PoseConfidenceE","_FLAGS_undefok","__ZTV11VROPolyline","__ZTI19VROGlyphAtlasOpenGL","__ZN6google3geo2ar2v136_CacheContents_default_instance_ptr_E","__ZTSN4logs5proto3geo2ar31TerrainAnchorFirstTrackingEventE","_FLAGS_dump_all_maps_on_failure","__ZTSN4logs5proto3geo2ar48RealDeadReckonedPoseMixerConfig_ReinitConditionsE","__ZTS10CordReader","__ZTSN6google3geo2ar2v120FacadesCacheContentsE","__ZN6google3geo2ar2v142_FacadesCellContents_default_instance_ptr_E","__ZN3geo2ar22ReferenceFrameAndState7_table_E","__ZTVN4logs5proto3geo2ar24HeadingFromMotionOptionsE","__ZN8location8bluemoon40_InertialAnchorOptions_default_instance_E","_ar_persistence_ResolveAnchorStats_LocalizationStats_fields","__ZN4logs5proto3geo2ar37EstimateConfidenceOptions_class_data_E","__ZN3geo2ar3lib54_RealDeadReckonedPoseMixerConfig_default_instance_ptr_E","__ZTI16VRONormalMapTest","__ZN9PerThread15per_thread_dataE","__ZN4viro40_Node_Geometry_Element_default_instance_E","__ZTVN4logs5proto3geo2ar44ClearcutLoggingConfig_SessionHeartbeatConfigE","__ZN6google8internal7android8location7bluesky4type28_GnssClock_default_instance_E","__ZTIN6google3geo2ar2v119RigidTransformProtoE","__ZN4viro10Node_Light21kLightTypeFieldNumberE","__ZTVN3geo2ar3lib18KeplerServerCallerE","__ZN3geo2ar3lib63_ClearcutLoggingConfig_SessionHeartbeatConfig_default_instance_E","__ZTSN4absl13time_internal4cctz14ZoneInfoSourceE","_logs_proto_vr_arcore_ArCoreLog_PackageInfo_fields","__ZN3geo2ar27PoseLikelihoodFunctionProto7_table_E","__ZTSN3geo2ar3lib24HeadingFromMotionOptionsE","__ZN3fLD27FLAGS_correlation_thresholdE","__ZN3geo2ar41_ReferenceFrameAndState_default_instance_E","__ZTIN4logs5proto3geo2ar21InertialAnchorOptionsE","__ZTVN4logs5proto3geo2ar9DevConfigE","__ZN6google8internal7android8location7bluesky4type33_Int64Value_default_instance_ptr_E","__ZTVN3geo2ar7service49T2ResolveAnchorAndLocalizeResponse_ResolvedAnchorE","_google_arcorecloudanchor_v1beta2_Anchor_fields","__ZTI11btRigidBody","__ZN4logs5proto3geo2ar56ClearcutLoggingConfig_SessionHeartbeatConfig_class_data_E","__ZN6google8internal7android8location7bluesky7v1beta132_GridPoint_default_instance_ptr_E","_redwood_MatrixXd_fields","__ZN3geo2ar7service15LocalizeOptions7_table_E","_logs_proto_vr_arcore_ArCoreLog_HostAnchorEvent_fields","__ZN3geo2ar3lib43_Config_NetworkConfig_default_instance_ptr_E","__ZTS21btConeTwistConstraint","__ZTIN4logs5proto3geo2ar12ClientConfigE","__ZTVN6google3geo2ar2v119QueryFacadesRequestE","__ZTIN6google3geo2ar2v14MeshE","__ZN4viro28Node_KeyframeAnimation_Frame20kRotationFieldNumberE","__ZTIN3geo2ar3lib9DebugPoseE","__ZTSN6tflite18FileCopyAllocationE","_google_arcorecloudanchor_v1beta2_CloudLocalizationLikelihoodFunctionProto_fields","__ZTSN8location8bluemoon21PerturbationInterfaceE","__ZN4logs5proto3geo2ar50_FrameRejectReasonEventAggregate_default_instance_E","__ZTSN4logs5proto3geo2ar48WrappedCauchyHeadingUncertaintyModelParametersV1E","__ZTSN4viro20Node_Geometry_SourceE","__ZTVN8location8bluemoon27CarryPoseChangePerturbationE","__ZN3geo2ar3lib19NetworkEventMetrics7_table_E","__ZN3geo2ar7service21T2QueryFacadesRequest7_table_E","__ZTI22VROShadowMapRenderPass","__ZTIN3geo2ar3lib44ClearcutLoggingConfig_SessionHeartbeatConfigE","__ZN3geo2ar3lib12ARCoreConfig7_table_E","__ZTVN4absl13time_internal4cctz10TimeZoneIfE","_iPhone11_4","__ZTIN3geo2ar3lib16FixedEarthAnchorE","__ZTVN3geo2ar14PlaceIdOptionsE","__ZN3geo2ar36_Vector3dProto_default_instance_ptr_E","__ZTVN3geo2ar3lib19ActualSurfaceAnchor24UnresolvableStateHandlerE","__ZTVN4viro10Node_LightE","__ZTVN6google3geo2ar2v118WarmUpCacheRequestE","__ZN8WatchDog18check_in_progress_E","__ZTSN6tflite17CpuBackendContextE","_redwood_Domain_fields","__ZN4logs5proto3geo2ar19FrameSelectorConfig7_table_E","__ZTIN4logs5proto3geo2ar22CovarianceMatrix3ProtoE","__ZTSN4viro13Node_SkeletonE","__ZN3geo2ar43HorizontalPositionGaussianDistributionProto7_table_E","__ZN8location8bluemoon41_CarryPoseChangeOptions_default_instance_E","__ZTV16VROShaderFactory","__ZN4viro18Node_Geometry_Skin25kBindTransformFieldNumberE","__ZTVN3geo2ar3lib20Config_NetworkConfigE","__ZN4logs5proto3geo2ar71_ParticleFilterConfig_PositionAndYawFilterOptions_default_instance_ptr_E","__ZN4logs5proto3geo2ar52_AdaptiveImageFrameLocalizerConfig_default_instance_E","__ZN3geo2ar3lib34_SensorEvent_default_instance_ptr_E","_google_arcorecloudanchor_v1beta2_AnchorToken_fields","__ZTIN3geo2ar3lib12ClientConfigE","__ZN4viro29Node_Geometry_Material_Visual20FilterMode_ARRAYSIZEE","__ZTIN3geo2ar3lib48LowLightImageProcessingConfig_PixelBinningConfigE","__ZTI18VROSceneController","__ZN4viro22Node_KeyframeAnimation16kNameFieldNumberE","_FLAGS_light_estimate_log_interval","__ZTSN4absl12crc_internal5CRC32E","__ZTSN8location8bluemoon20StepDetectionOptionsE","__ZTVN6google3geo2ar2v115LocalizeRequestE","__ZTVN7vraudio9MixerNodeE","__ZTIN3geo2ar17FacadesSnapshotIdE","__ZTVN8location8bluemoon22RoadOrientationOptionsE","__ZN4logs5proto3geo2ar21GnssEvent_class_data_E","__ZTSN8location8bluemoon22BearingTrackingOptionsE","__ZN6google8internal7android8location7bluesky4type22Int32Value_class_data_E","__ZTVN4util8callback18CancellableClosureE","__ZTIN6google3geo2ar2v113CacheContentsE","__ZN4logs5proto3geo2ar64_RealDeadReckonedPoseMixerConfig_Uncertainties_default_instance_E","__ZN4viro22Node_Geometry_Material5FrontE","__ZN4logs5proto3geo2ar51_RigidTransformWithConfidence_default_instance_ptr_E","__ZTIN4logs5proto3geo2ar42UncertaintyPreserverConfig_PerSignalConfigE","_iPod1_1","__ZN4viro23_Node_default_instance_E","__ZTCN7strings13OStringStreamE64_NSt3__113basic_ostreamIcNS0_11char_traitsIcEEEE","__ZN4viro18Node_Skeleton_Bone16kNameFieldNumberE","__ZTVN6proto22io16ArrayInputStreamE","__ZTIN3geo2ar3lib18FrameRejectReasonsE","__ZTI10VROHDRTest","__ZTI23StderrThreadStackWriter","__ZTI24VROObjectRecognitionTest","__ZN4absl16strings_internal19kWebSafeBase64CharsE","__ZN4logs5proto3geo2ar43_CloudLocalizationOptions_default_instance_E","__ZN3geo2ar7service41T2BatchQueryElevationsRequest_class_data_E","_logs_proto_vr_arcore_ArCoreLog_FaceMeshFacesLost_fields","__ZN6google8protobuf9Timestamp7_table_E","__ZTS18GeoARPlaneProvider","__ZN8WatchDog5dogs_E","__ZTSN3geo2ar3lib22BearingTrackingWrapperE","__ZTIN6proto22io18CopyingInputStreamE","__ZN4logs5proto3geo2ar64_AdaptiveImageFrameLocalizerConfig_PitchConfig_default_instance_E","__ZTV22VROBillboardConstraint","_kBodyAnimVersion","__ZN3geo2ar3lib27NightTimeConfig_class_data_E","__ZN8location8bluemoon14inertialanchor40EmpiricalHeadingUncertaintyModelFeatures7_table_E","__ZTI10VROFBXTest","__ZTIN6tflite12ArenaPlannerE","__ZTSN3geo2ar28PositionProbabilityGridProtoE","__ZTIN6google8internal7android8location7bluesky7v1beta148GetGridProbabilitiesResponse_ObservationResponseE","__ZN4viro22Node_Geometry_Material15PhysicallyBasedE","__ZTVN3geo2ar7service27T2QueryTerrainMeshesRequestE","_redwood_TransformationProto_fields","__ZTV10VROFrustum","__ZN2ar11persistence22FeatureOccupancyOcTree32featureOccupancyOcTreeMemberInitE","__ZTVN8location8bluemoon24CloudLocalizationOptionsE","_iPhone8_2","__ZTS22VRORendererTestHarness","__ZTV26VROMonocularDepthEstimator","__ZTIN6google3geo2ar2v125QueryTerrainMeshesRequestE","__ZTS11VROTextTest","__ZTI16VROBodyMesheriOS","__ZN6google8protobuf22_Any_default_instance_E","__ZTIN13google_public8protobuf8internal16FunctionClosure0E","__ZTI19VROFBXEventDelegate","__ZN3geo2ar33CameraIntrinsics_RadialDistortion7_table_E","_redwood_GeneralTransformationProto_fields","__ZTVN3geo2ar3lib19NetworkEventMetricsE","__ZTIN8S2CellId5CoderE","__ZN3geo2ar23_Pose_default_instance_E","__ZN4logs5proto3geo2ar44_GnssMeasurementsEvent_default_instance_ptr_E","__ZTSN2ar11persistence20FeatureOccupancyGridE","__ZN3geo2ar3lib32_DevConfig_default_instance_ptr_E","__ZTVN6proto22io18IstreamInputStreamE","__ZTVN6icu_7711ReplaceableE","__ZN4logs5proto3geo2ar39_PoseStabilityMetrics_default_instance_E","__ZTV20VROKeyframeAnimation","__ZN3geo2ar3lib24HeadingFromMotionOptions7_table_E","__ZTIN4absl13time_internal4cctz12TimeZoneInfoE","_logs_proto_vr_arcore_ArCoreLog_AndroidDataSourceMetrics_fields","__ZTSN4logs5proto3geo2ar45AdaptiveImageFrameLocalizerConfig_PitchConfigE","__ZTV23VROPhysicsEventDelegate","__ZN4viro22Node_Geometry_Material17LightingModel_MAXE","__ZN8geostore14FeatureIdProto7_table_E","_silk_TargetRate_table_NB","__ZN3geo2ar3lib28_DevConfig_default_instance_E","__ZTVN6proto22io25CopyingInputStreamAdaptorE","__ZN6google8internal7android8location7bluesky4type23DoubleValue_class_data_E","__ZN3geo2ar33PositionGaussianDistributionProto7_table_E","__ZN3geo2ar7service32T2WarmUpCacheRequest_class_data_E","__ZTI22VROObjectRecognizeriOS","__ZTVN3geo2ar27PoseLikelihoodFunctionProtoE","__ZTSN4logs5proto3geo2ar52RealDeadReckonedPoseMixerConfig_TransformDifferencesE","__ZN3geo2ar3lib49RealDeadReckonedPoseMixerConfig_UncertaintyRatios7_table_E","__ZTVN3geo2ar7service26T2CheckAvailabilityRequestE","__ZTVN3geo2ar3lib13LightEstimateE","__ZN3geo2ar3lib39_DebugPoseResultProto_default_instance_E","__ZTSN6google8internal7android8location7bluesky7v1beta146GetGridProbabilitiesRequest_ObservationRequestE","_kGeoARDefaultCreateSession","__ZN3geo2ar3lib33NetworkEventMetrics_TimingMetrics7_table_E","__ZN13google_public8protobuf5Arena23lifecycle_id_generator_E","__ZN4logs5proto3geo2ar70_LowLightImageProcessingConfig_GammaCorrectionConfig_default_instance_E","__ZN3geo2ar3lib47_ParticleTrackingQueueOptions_default_instance_E","__ZN4logs5proto3geo2ar20Config_NetworkConfig7_table_E","_redwood_VideoFile_fields","_silk_uniform3_iCDF","_iPad4_9","__ZN3geo2ar72_HorizontalPositionAndYawGaussianDistributionProto_default_instance_ptr_E","__ZN3geo2ar7service21LocalizeResult_Result7_table_E","_logs_proto_vr_arcore_ArCoreLog_SessionIsDepthModeSupportedEvent_fields","__ZTV22VROAVCaptureController","__ZTS20VROPoseFilterLowPass","__ZN3geo2ar7service43_T2WarmUpCacheRequest_default_instance_ptr_E","__ZTIN8location8bluemoon14inertialanchor44EmpiricalHeadingUncertaintyModelParametersV1E","__ZN4logs5proto3geo2ar44_EstimateConfidenceOptions_default_instance_E","__ZN3geo2ar7service34_CellFacades_default_instance_ptr_E","__ZN4logs5proto3geo2ar27SessionEndEvent_class_data_E","__ZTSN4logs5proto3geo2ar13PoseJumpEventE","__ZTIN6google3geo2ar2v114ReferenceFrameE","__ZN3geo2ar3lib11SensorEvent7_table_E","__ZTSN4base14TraceEntrySinkE","__ZN4viro20Node_Geometry_Source12Semantic_MAXE","__ZN3geo2ar3lib54_QualityFramePriorityQueueConfig_default_instance_ptr_E","__ZN4logs5proto3geo2ar40_SessionStartEvent_default_instance_ptr_E","__ZN3geo2ar40CloudLocalizationLikelihoodFunctionProto7_table_E","__ZN3geo2ar8geometry27_Triangle_default_instance_E","__ZTSN4logs5proto3geo2ar23SessionStateChangeEventE","__ZTVN8location8bluemoon26UncertaintyPreserverConfigE","__ZTI6VROBox","__ZN3geo2ar34_QuaternionProto_default_instance_E","__ZN6google3geo2ar2v132_Elevation_default_instance_ptr_E","__ZTIN3geo2ar3lib8T2ConfigE","__ZN3geo2ar3lib39_Project3x3Config_default_instance_ptr_E","__ZN3geo2ar33_PlaceIdOptions_default_instance_E","__ZTS14VROARAnchoriOS","__ZTS12VROBloomTest","__ZTI18VROBodyTrackerYolo","__ZN6google3geo2ar2v120PoseEstimationResult7_table_E","__ZTIN3geo2ar3lib20CommonClearcutLoggerE","__ZN3geo2ar7service53_T2ResolveAnchorAndLocalizeResponse_default_instance_E","__ZN3geo2ar3lib62_ClearcutLoggingConfig_FrameRejectConfig_default_instance_ptr_E","__ZN6google8internal7android8location7bluesky4type34_EcefCoordinates_default_instance_E","__ZTVN3geo2ar3lib19LocalizationManagerE","__ZTSN3geo2ar7service28T2QueryTerrainMeshesResponseE","__ZN8location8bluemoon45_UncertaintyPreserverConfig_default_instance_E","__ZTIN3geo2ar40RoadRelativeOrientationDistributionProtoE","__ZTV10VROPolygon","__ZN4viro22Node_Geometry_Material12CullMode_MINE","__ZTVN6proto28internal12ExtensionSet20LazyMessageExtensionE","__ZTV11VROTextTest","_logs_proto_vr_arcore_ArCoreLog_Vector3Proto_fields","__ZTIN4util14SimulatedClockE","__ZN4logs5proto3geo2ar54_FrameRejectReasonEventAggregate_default_instance_ptr_E","_GARDeviceProfileErrorDomain","__ZN6google3geo2ar2v140BatchQueryElevationsResponse_class_data_E","__ZN4logs5proto3geo2ar52RealDeadReckonedPoseMixerConfig_TransformDifferences7_table_E","__ZN4logs5proto3geo2ar9DevConfig7_table_E","__ZTVN7vraudio17OpusStreamDecoderE","__ZTSN3geo2ar3lib16SunAngleReporterE","__ZTIN4logs5proto3geo2ar17SessionStartEventE","__ZTI24VROPolylineEventDelegate","__ZTV27VROToneMappingEventDelegate","__ZN15VROSparseBitSet9kNotFoundE","__ZTVN4logs5proto3geo2ar16CameraIntrinsicsE","__ZN3geo2ar3lib52RealDeadReckonedPoseMixerConfig_TransformDifferences7_table_E","__ZN4viro22Node_Geometry_Material32kReadsFromDepthBufferFieldNumberE","__ZTS10VROHDRTest","__ZTIN4absl12crc_internal3CRCE","_redwood_QuaternionProto_fields","_iPad6_3","__ZN6google3geo2ar2v129SignalTypeEnum_internal_data_E","__ZN3geo2ar10Detections7_table_E","__ZN3geo2ar4Pose7_table_E","__ZTVN6google3geo2ar2v16LatLngE","_logs_proto_vr_arcore_ArCoreLog_SessionCreateEvent_fields","_silk_LTP_per_index_iCDF","__ZN3geo2ar3lib31FrameSelectorConfig_class_data_E","__ZN3geo2ar54_InertialAnchorPoseDistributionProto_default_instance_E","__ZTIN3geo2ar3lib33AdaptiveImageFrameLocalizerConfigE","__ZTVN7vraudio17AudioAssetManagerE","_ed25519_pkey_meth","_FLAGS_minloglevel","_redwood_DisplayGeometryLutCellV2_fields","__ZTIN4logs5proto3geo2ar13PoseJumpEventE","__ZTVN7strings15ArrayByteSourceE","__ZN4util36_ErrorSpacePayload_default_instance_E","__ZTSN8location8bluemoon21InertialAnchorOptionsE","__ZN3geo2ar5depth35kAlignDepthWithPriorsRansacTimerTagE","__ZN4logs5proto3geo2ar22RoadOrientationOptions7_table_E","_redwood_LinearActuatorPosition_fields","__ZTSN3geo2ar7service30T2BatchQueryElevationsResponseE","__ZTSN8location8bluemoon24UniformPositionPerturberE","__ZTVN4viro22Node_SkeletalAnimationE","__ZN4viro22Node_Geometry_Material13BlendMode_MAXE","__ZN3geo2ar41_CovarianceMatrix3Proto_default_instance_E","__ZTVN3geo2ar3lib51LowLightImageProcessingConfig_GammaCorrectionConfigE","__ZN15CProfileManager12FrameCounterE","__ZTIN4absl14flags_internal18FlagStateInterfaceE","_FLAGS_only_check_args","__ZTVN3geo2ar43CameraIntrinsics_CityblockFisheyeDistortionE","__ZTSN6thread8ExecutorE","_iPad4_8","__ZN3geo2ar59CameraIntrinsics_KannalaBrandtFisheyeDistortion_class_data_E","__ZN4logs5proto3geo2ar47_HeadingFromMotionOptions_default_instance_ptr_E","__ZTVN4base6TracerE","__ZTSN6proto22io16ArrayInputStreamE","__ZTIN8location8bluemoon20SunAngleDistributionE","__ZTVN4logs5proto3geo2ar21GnssMeasurementsEventE","__ZTIN4logs5proto3geo2ar22CarryPoseChangeOptionsE","_iPhone4_1","__ZTS25VROPoseFilterBoneDistance","__ZN6google3geo2ar2v114CircularRegion7_table_E","__ZTI18VROBodyTrackerTest","__ZTI23VROPhotometricLightTest","__ZN13VROGLTFLoader13_textureCacheE","__ZTV17VROBoneConstraint","__ZTSN3geo2ar3lib19FrameSelectorConfigE","__ZN4logs5proto3geo2ar34FrameRejectReasonEvent_class_data_E","__ZN4viro20Node_Geometry_Source31kComponentsPerVertexFieldNumberE","__ZN3geo2ar3lib38_NetworkEventMetrics_default_instance_E","__ZN3geo2ar5depth32kPreprocessCapturedImageTimerTagE","__ZN3geo2ar7service50_T2QueryTerrainMeshesRequest_default_instance_ptr_E","__ZTV11VROVector4f","__ZN6google3geo2ar2v127_Triangle_default_instance_E","__ZTV8MTRandom","__ZTIN3geo2ar3lib24SmoothedTransformOptionsE","__ZN4logs5proto3geo2ar25_Config_default_instance_E","__ZN4logs5proto3geo2ar20PoseStabilityMetrics7_table_E","__ZTVN8location8bluemoon11GridSamplerE","__ZN4viro13Node_Geometry16kSkinFieldNumberE","__ZN3geo2ar7service27T2QueryTerrainMeshesRequest7_table_E","__ZTVN6proto26bridge10MessageSetE","__ZN3geo2ar3lib64RealDeadReckonedPoseMixerConfig_TransformDifferences_class_data_E","__ZN3geo2ar3lib27_T2Config_default_instance_E","__ZTSN4logs5proto3geo2ar16Project3x3ConfigE","__ZTV22VROARCameraPrerecorded","__ZTS15VROFrustumPlane","__ZTSN3geo2ar3lib13LightEstimateE","__ZTVN4absl12crc_internal3CRCE","_logs_proto_vr_arcore_ArCoreLog_SessionSharedCameraAppSurfaceEvent_fields","__ZN4logs5proto3geo2ar21InertialAnchorOptions7_table_E","__ZTIN8location8bluemoon33RoadOrientationResultDistributionE","__ZN3fLB29FLAGS_nowatch_thread_livenessE","__ZTV24VROObjectRecognitionTest","__ZN4logs5proto3geo2ar42_FrameSelectorConfig_default_instance_ptr_E","__ZTSN3geo2ar7service29T2BatchQueryElevationsRequestE","__ZN6google3geo2ar2v139_StartSessionResponse_default_instance_E","__ZN13google_public8protobuf2io16CodedInputStream24default_recursion_limit_E","__ZN3geo2ar27_Pose_default_instance_ptr_E","_google_arcorecloudanchor_v1beta2_ResolveAnchorAndLocalizeResponse_fields","__ZTVN6google3geo2ar2v117FacadesSnapshotIdE","__ZTSN3geo2ar3lib45RealDeadReckonedPoseMixerConfig_UncertaintiesE","__ZTVN8location8bluemoon42UncertaintyPreserverConfig_PerSignalConfigE","__ZTSN3geo2ar3lib31QualityFramePriorityQueueConfigE","__ZTVN6tflite14MMAPAllocationE","__ZTIN4logs5proto3geo2ar47CameraIntrinsics_KannalaBrandtFisheyeDistortionE","__ZN4viro10Node_Light7AmbientE","_FLAGS_nolocalizer_remappings","__ZTIN3geo2ar3lib13LightEstimateE","__ZTVN3geo2ar32BearingTrackingPerturbationProtoE","_iPhone8_1","__ZN4logs5proto3geo2ar25PoseJumpEvent_class_data_E","_ar_persistence_CloudAnchorDebugStats_fields","_silk_Resampler_1_6_COEFS","__ZTVN4logs5proto3geo2ar12ARCoreConfigE","__ZTSN4logs5proto3geo2ar35NetworkEventAggregate_TimingMetricsE","__ZN6google3geo2ar2v130WarmUpCacheRequest_class_data_E","__ZTIN3geo2ar47CameraIntrinsics_KannalaBrandtFisheyeDistortionE","__ZTVN3geo2ar3lib48ClearcutLoggingConfig_PoseStabilityMonitorConfigE","__ZTVN8location8bluemoon21DistributionInterfaceE","_kBoringSSLRSASqrtTwo","__ZTVN2ar11persistence20FeatureOccupancyGridE","__ZN3geo2ar7service40_T2LocalizeRequest_default_instance_ptr_E","__ZTI15VROFrustumPlane","__ZTIN3geo2ar8geometry8TriangleE","__ZN6google3geo2ar2v134_TerrainMesh_default_instance_ptr_E","__ZTSN6google3rpc6StatusE","__ZN3fLB27FLAGS_watch_pthread_managerE","__ZN4logs5proto3geo2ar40_NetworkEventAggregate_default_instance_E","__ZTIN8tcmalloc20AddressRegionFactoryE","__ZTI25VROImagePostProcessOpenGL","__ZN4logs5proto3geo2ar30TimedImageFrameLocalizerConfig7_table_E","__ZN3geo2ar45_CovarianceMatrix3Proto_default_instance_ptr_E","__ZTI11VRODebugHUD","__ZN3geo2ar68_HorizontalPositionAndYawGaussianDistributionProto_default_instance_E","_kOpenSSLReasonValuesLen","_x25519_pkey_meth","__ZTVN8location8bluemoon22BearingTrackingOptionsE","__ZTSN3geo2ar3lib28ClientConfig_RenderingConfigE","__ZTIN3geo2ar3lib28NoopSurfaceElevationProviderE","_iPhone9_4","__ZTVN6google3geo2ar2v128BatchQueryElevationsResponseE","_google_arcorecloudanchor_v1beta2_PoseLikelihoodFunctionProto_fields","__ZN6google3geo2ar2v159_CloudLocalizationLikelihoodFunctionProto_default_instance_E","__ZN4logs5proto3geo2ar40_InertialAnchorOptions_default_instance_E","_kVPSVersionStringV1BETA2","__ZTIN4logs5proto3geo2ar20StepDetectionOptionsE","__ZN6proto28internal28init_protobuf_defaults_stateE","__ZN3geo2ar63_RoadRelativeOrientationDistributionProto_default_instance_ptr_E","_logs_proto_vr_arcore_ArCoreLog_SessionResumeEvent_fields","__ZTVN8location8bluemoon25StepDetectionPerturbationE","_silk_TargetRate_table_MB","__ZTIN3geo2ar3lib24TerrainServiceV1ApiProxyE","__ZTI10VROPolygon","__ZTVN4absl14flags_internal18FlagStateInterfaceE","_Watch4_3","__ZN8location8bluemoon26UncertaintyPreserverConfig7_table_E","_logs_proto_vr_arcore_ArCoreLog_RelocalizationLatencyEvent_fields","__ZTVN3geo2ar3lib28ParticleTrackingQueueOptionsE","__ZTVN3geo2ar7service21LocalizeResult_ResultE","__ZTI15VROARShadowTest","__ZTSN3geo2ar41RoadRelativeOrientationYawPredictionProtoE","__ZN6google3geo2ar2v141_WarmUpCacheRequest_default_instance_ptr_E","__ZTVN4logs5proto3geo2ar45RealDeadReckonedPoseMixerConfig_UncertaintiesE","__ZTS23VROARDeclarativeSession","__ZN4viro10Node_Light21kDirectionFieldNumberE","__ZTVN4logs5proto3geo2ar14BlueskyOptionsE","_logs_proto_vr_arcore_ArCoreLog_StartRecordingEvent_fields","_logs_proto_vr_arcore_ArCoreLog_CalibrationFileStats_CalibrationParameterStatistics_MeanAndStandardDev_fields","__ZTIN6google8protobuf7ClosureE","__ZTI19VROARCameraInertial","_FLAGS_nouse_alternate_stack_for_signal_handlers","__ZN4logs5proto3geo2ar31_ClientConfig_default_instance_E","__ZN6google3rpc29_Status_default_instance_ptr_E","__ZTVN3geo2ar3lib12ClientConfigE","__ZN3geo2ar3lib55ParticleFilterConfig_RoadOrientationOptions_class_data_E","__ZTSN4absl13time_internal4cctz12TimeZoneInfoE","__ZN6google3geo2ar2v147_BatchQueryElevationsResponse_default_instance_E","__ZTSN4base6TracerE","__ZTIN4logs5proto3geo2ar24CloudLocalizationOptionsE","__ZTS13VRONodeCamera","__ZN4viro32_Node_Geometry_default_instance_E","__ZTIN4absl12log_internal10LogMessage11OstreamViewE","__ZN3geo2ar7service14LocalizeResult7_table_E","__ZTSN8location8bluemoon27CarryPoseChangePerturbationE","__ZTSN4logs5proto3geo2ar26TerrainAnchorResolvedEventE","__ZN3geo2ar32_LatLngAlt_default_instance_ptr_E","__ZTV17ThreadStackWriter","__ZTI26VROVideoTextureCacheOpenGL","__ZTVN3geo2ar3lib33NetworkEventMetrics_TimingMetricsE","__ZTV24VROMaterialShaderBinding","__ZN6google8internal7android8location7bluesky4type29_Int64Value_default_instance_E","__ZTV10VROHDRTest","__ZN4util20NonMessageSetPayload7_table_E","_FLAGS_nologtostderr","_logs_proto_vr_arcore_ArCoreLog_RelocalizationLatencyEvent_Latency_fields","__ZN4logs5proto3geo2ar81_RealDeadReckonedPoseMixerConfig_DeadReckonedPoseEstimateConfig_default_instance_E","__ZTI7VRONode","_logs_proto_vr_arcore_ArCoreLog_CalibrationFileStats_CalibrationErrorStdDev_fields","__ZN3geo2ar3lib71_ParticleFilterConfig_PositionAndYawFilterOptions_default_instance_ptr_E","__ZTV14OrientationEKF","__ZN4logs5proto3geo2ar74_LowLightImageProcessingConfig_GammaCorrectionConfig_default_instance_ptr_E","__ZTS10VROFrustum","_sUniqueIDGenerator","__ZN4viro10Node_Light13LightType_MINE","__ZN6google3geo2ar2v143_QueryFacadesResponse_default_instance_ptr_E","__ZTIN4viro11Node_MatrixE","_iPhone10_4","__ZN4viro18Node_Geometry_Skin33kGeometryBindTransformFieldNumberE","_redwood_CameraModelProto_DistortionFisheyeEquisolid_fields","__ZTSN3ion4base10LogCheckerE","__ZTVN3geo2ar40CloudLocalizationLikelihoodFunctionProtoE","__ZTSN4util20NonMessageSetPayloadE","__ZN6google3geo2ar2v14Mesh7_table_E","__ZN4viro29Node_Geometry_Material_Visual31kMagnificationFilterFieldNumberE","__ZTIN4logs5proto3geo2ar15SunAngleOptionsE","_iPad3_2","__ZTVN4logs5proto3geo2ar62RealDeadReckonedPoseMixerConfig_DeadReckonedPoseEstimateConfigE","__ZN6google8protobuf32_Timestamp_default_instance_ptr_E","__ZN4logs5proto3geo2ar60ClearcutLoggingConfig_PoseStabilityMonitorConfig_class_data_E","__ZTIN6tflite8resource20InitializationStatusE","_logs_proto_vr_arcore_ArCoreLog_CalibrationQualificationStats_fields","__ZTS17VROBRDFRenderPass","__ZN3geo2ar3lib50_QualityFramePriorityQueueConfig_default_instance_E","__ZN3fLB30FLAGS_use_thread_subcontainersE","__ZTSN4logs5proto3geo2ar28ParticleTrackingQueueOptionsE","_logs_proto_vr_arcore_ArCoreLog_CalibrationFileStats_fields","__ZTSN4logs5proto3geo2ar74ClearcutLoggingConfig_PoseStabilityMonitorConfig_PoseJumpLoggingThresholdsE","__ZN3geo2ar7service21Elevation_class_data_E","__ZN6google3geo2ar2v136_FacadesSnapshotId_default_instance_E","__ZN4viro13Node_Geometry18kSourceFieldNumberE","__ZTSN3geo2ar3lib21IfmLocalizationFilterE","__ZN6google8protobuf11kuint128maxE","__ZTS11VROMaterial","__ZTIN4logs5proto3geo2ar48RealDeadReckonedPoseMixerConfig_ReinitConditionsE","_iPad3_3","__ZTS20VROARObjectTargetiOS","__ZTSN3geo2ar3lib29LowLightImageProcessingConfigE","__ZN4util40_ErrorSpacePayload_default_instance_ptr_E","__ZTIN8location8bluemoon26InertialAnchorDistributionE","__ZTIN13google_public8protobuf2io16GzipOutputStreamE","__ZTV15GeoARHTTPClient","__ZN3geo2ar3lib23SensorEvent_class_data_E","__ZN6google3geo2ar2v158_CloudLocalizationServiceResultProto_default_instance_ptr_E","__ZTVN3geo2ar3lib24SmoothedTransformOptionsE","__ZTSN6tflite14StderrReporterE","__ZTI32VROPhotometricLightEventDelegate","__ZTSN4viro10Node_LightE","__ZN8location8bluemoon54UncertaintyPreserverConfig_PerSignalConfig_class_data_E","__ZTVN3geo2ar3lib18NetworkMetricsImplE","__ZTIN3geo2ar3lib21IfmLocalizationFilterE","__ZTIN6google3geo2ar2v117GeodeticPosePriorE","__ZN6google3geo2ar2v117GeodeticPosePrior7_table_E","__ZN3geo2ar3lib60ClearcutLoggingConfig_PoseStabilityMonitorConfig_class_data_E","__ZTS9VRODriver","__ZTIN6proto22io18IstreamInputStream25CopyingIstreamInputStreamE","__ZN4logs5proto3geo2ar57RealDeadReckonedPoseMixerConfig_Uncertainties_class_data_E","__ZN4viro18Node_Skeleton_Bone32kAttachmentTransformsFieldNumberE","__ZTSN4viro32Node_Skeleton_BoneAttachmentPairE","__ZN4logs5proto3geo2ar18Config_class_data_E","__ZTSN3geo2ar35CloudLocalizationServiceResultProtoE","_FLAGS_harden_with_context","__ZTVN4logs5proto3geo2ar13LightEstimateE","__ZTS20VROGLTFEventDelegate","__ZTSN3geo2ar43HorizontalPositionGaussianDistributionProtoE","__ZN4logs5proto3geo2ar53_CameraIntrinsics_FisheyeDistortion_default_instance_E","__ZN6google3geo2ar2v119QueryFacadesRequest7_table_E","__ZTIN4viro13Node_SkeletonE","_redwood_CameraProfileProto_DistortionFisheyeSpline3_fields","__ZN3geo2ar7service68_T2ResolveAnchorAndLocalizeRequest_CameraImage_default_instance_ptr_E","__ZN4logs5proto3geo2ar24SmoothedTransformOptions7_table_E","_iPad1_1","__ZTSN4absl13time_internal4cctz10TimeZoneIfE","__ZTIN6proto22io15FileInputStreamE","__ZN3geo2ar3lib74_LowLightImageProcessingConfig_GammaCorrectionConfig_default_instance_ptr_E","__ZN3fLI32FLAGS_nodefault_executor_threadsE","__ZTSN3geo2ar7service14ElevationQueryE","_silk_Quantization_Offsets_Q10","_ec_pkey_meth","__ZTI23VROARDeclarativeSession","__ZN6google3geo2ar2v139_QueryFacadesResponse_default_instance_E","__ZN4jpeg9BitReader6kMasksE","__ZTIN7strings15LimitByteSourceE","__ZTI12VROTorusTest","__ZTSN7strings20GrowingArrayByteSinkE","__ZN6google3geo2ar2v119StartSessionRequest7_table_E","__ZN14VROPhysicsBody13kKinematicTagE","_logs_proto_vr_arcore_ArCoreLog_SemanticsManagerCallStats_SemanticsCallStatusCount_fields","_google_arcorecloudanchor_v1beta2_CreateAnchorRequest_fields","__ZTSN6google3geo2ar2v117FacadesSnapshotIdE","__ZN6google3geo2ar2v129_LatLng_default_instance_ptr_E","__ZTS23VROPortalTreeRenderPass","__ZN4viro29Node_Geometry_Material_Visual17kColorFieldNumberE","__ZTSN3geo2ar10DetectionsE","_AppleTV3_2","__ZN6google3geo2ar2v147_CheckAvailabilityRequest_default_instance_ptr_E","__ZN3geo2ar3lib64_AdaptiveImageFrameLocalizerConfig_PitchConfig_default_instance_E","_silk_Transition_LP_A_Q28","__ZN6google3geo2ar2v117FacadesSnapshotId7_table_E","_silk_Transition_LP_B_Q28","__ZTS6VROBox","__ZN3geo2ar32CarryPoseChangePerturbationProto7_table_E","__ZN6google8internal7android8location7bluesky7v1beta146_GetGridProbabilitiesRequest_default_instance_E","__ZTS22VROBodyRecognitionTest","__ZTIN3ion4base20StaticDeleterDeleterE","__ZN8WatchDog17generation_count_E","__ZTSN8location8bluemoon14inertialanchor40EmpiricalHeadingUncertaintyModelFeaturesE","__ZTIN3geo2ar16CameraIntrinsicsE","__ZTS22VROInputControllerBase","__ZN6google8internal7android8location7bluesky4type14LlaCoordinates7_table_E","__ZN4logs5proto3geo2ar21ClearcutLoggingConfig7_table_E","__ZN6google8internal7android8location7bluesky4type37_LlaCoordinates_default_instance_ptr_E","__ZN6google3geo2ar2v16LatLng7_table_E","__ZTIN4logs5proto3geo2ar14BarometerEventE","__ZN3geo2ar3lib38_FrameSelectorConfig_default_instance_E","__ZTVN4util17ErrorSpacePayloadE","__ZN8location8bluemoon48HeadingFromMotionDistributionOptions_class_data_E","__ZTVN4logs5proto3geo2ar21SessionHeartbeatEventE","__ZN8location8bluemoon65_UncertaintyPreserverConfig_PerSignalConfig_default_instance_ptr_E","__ZN4logs5proto3geo2ar49GnssMeasurementsEvent_GnssMeasurement_class_data_E","__ZTI22VROARImperativeSession","__ZN4viro28Node_KeyframeAnimation_Frame23kTranslationFieldNumberE","__ZTIN4logs5proto3geo2ar44EmpiricalHeadingUncertaintyModelParametersV1E","__ZTIN7strings14StringByteSinkE","_logs_proto_vr_arcore_ArCoreLog_IOSDepthStats_DepthSessionPauseEvent_fields","__ZN4logs5proto3geo2ar16CameraIntrinsics7_table_E","__ZN6google8internal7android8location7bluesky7v1beta150_GetGridProbabilitiesRequest_default_instance_ptr_E","__ZTVN7redwood13FrameSelectorE","__ZTSN4logs5proto3geo2ar21InertialAnchorOptionsE","__ZTSN4logs5proto3geo2ar47SmoothedTransformOptions_SimpleSmoothingOptionsE","__ZN3geo2ar7service30_CellFacades_default_instance_E","__ZTTN3geo2ar3lib16FixedEarthAnchorE","__ZN6google3geo2ar2v129FacadesSnapshotId_class_data_E","__ZTI12CordByteSink","__ZTVN8location8bluemoon35ReinitializingDistributionInterfaceE","__ZN8location8bluemoon32StepDetectionOptions_class_data_E","__ZTIN4logs5proto3geo2ar31FrameRejectReasonEventAggregateE","_redwood_RangeProto_fields","__ZN3geo2ar3lib12ARCoreConfig5Impl_75_i_give_permission_to_break_this_code_default_cloud_anchor_server_endpoint_E","__ZN6google8internal7android8location7bluesky4type32_GnssClock_default_instance_ptr_E","_FLAGS_stderrthreshold","__ZN4logs5proto3geo2ar41LowLightImageProcessingConfig_class_data_E","__ZN6google8internal7android8location7bluesky7v1beta19GridPoint7_table_E","__ZN3geo2ar3lib29_Config_default_instance_ptr_E","__ZTV24VROBodyAnimDataReaderiOS","__ZTI18VROVideoSphereTest","_gTimeZoneFilesInitOnce_77","_FLAGS_infinite_loop_on_signal","_redwood_CameraExtrinsic_fields","__ZN4logs5proto3geo2ar11SensorCount7_table_E","__ZTI19VROBodyIKController","__ZTVN3geo2ar3lib30TimedImageFrameLocalizerConfigE","__ZN3geo2ar3lib64_RealDeadReckonedPoseMixerConfig_Uncertainties_default_instance_E","_redwood_DisplayGeometryLutCell_fields","__ZTV26VROPoseFilterMovingAverage","__ZN4viro22Node_Geometry_Material31kWritesToDepthBufferFieldNumberE","__ZTIN8location8bluemoon14inertialanchor40EmpiricalHeadingUncertaintyModelFeaturesE","__ZN4logs5proto3geo2ar49_TrackingFailureReasonEvent_default_instance_ptr_E","__ZTI8VROPlane","__ZTVN6icu_777UObjectE","__ZTSN3geo2ar3lib11SensorEventE","__ZN3geo2ar30_Orientation_default_instance_E","__ZN4viro20Node_Geometry_Source11BoneIndicesE","__ZN4viro22Node_Geometry_Material19BlendMode_ARRAYSIZEE","__ZTIN4logs5proto3geo2ar48LowLightImageProcessingConfig_PixelBinningConfigE","__ZN4logs5proto3geo2ar38_QuaternionProto_default_instance_ptr_E","_kYuvJPEGConstants","__ZN4logs5proto3geo2ar58_ClearcutLoggingConfig_FrameRejectConfig_default_instance_E","__ZN3geo2ar55_BearingTrackingPerturbationProto_default_instance_ptr_E","__ZTS20VROKeyframeAnimation","__ZN4logs5proto3geo2ar74RealDeadReckonedPoseMixerConfig_DeadReckonedPoseEstimateConfig_class_data_E","_iPad6_12","_FLAGS_install_signal_handlers","__ZTIN4util5ClockE","__ZN4absl18container_internal19kDefaultIterControlE","__ZTI18VROVideoTextureiOS","__ZN3geo2ar3lib45AdaptiveImageFrameLocalizerConfig_class_data_E","__ZN3geo2ar3lib66_SmoothedTransformOptions_SimpleSmoothingOptions_default_instance_E","__ZTV7VROText","__ZTIN6proto22io16CordOutputStreamE","__ZTV19VROGlyphAtlasOpenGL","__ZTVN13google_public8protobuf2io16ArrayInputStreamE","__ZN4logs5proto3geo2ar26TrackingFailureReasonEvent7_table_E","__ZN3geo2ar34HeadingFromMotionDistributionProto7_table_E","__ZN4viro22Node_Geometry_Material8SubtractE","__ZN3geo2ar7service37_T2LocalizeResponse_default_instance_E","__ZTVN13google_public8protobuf2io18StringOutputStreamE","__ZN6google3geo2ar2v119RigidTransformProto7_table_E","_silk_gain_iCDF","__ZTIN6proto22io16FileOutputStream23CopyingFileOutputStreamE","__ZTSN6google8internal7android8location7bluesky4type10FloatValueE","__ZTVN3geo2ar7service18T2LocalizeResponseE","__ZTS6Thread","__ZN3geo2ar37SunAngleDistributionProto_class_data_E","__ZN4absl13base_internal17mmap_replacement_E","_logs_proto_vr_arcore_ArCoreLog_FaceMeshFacesDetected_fields","__ZTVN4logs5proto3geo2ar23SessionStateChangeEventE","__ZN6google3geo2ar2v136_GeodeticPosePrior_default_instance_E","__ZTI10VROOBJTest","__ZTVN6proto22io15FileInputStream22CopyingFileInputStreamE","__ZTIN8location8bluemoon25GaussianPositionPerturberE","__ZTV35btSequentialImpulseConstraintSolver","__ZTIN3geo2ar13Vector3dProtoE","__ZTSN3geo2ar3lib30HybridSurfaceElevationProviderE","__ZTS18VRODriverOpenGLiOS","__ZTV13VROVectorizer","__ZTSN4logs5proto3geo2ar33AdaptiveImageFrameLocalizerConfigE","__ZTIN6proto22io26CopyingOutputStreamAdaptorE","__ZN3geo2ar7service45_T2QueryFacadesResponse_default_instance_ptr_E","__ZTS13VROARFrameiOS","__ZN3geo2ar7service44_LocalizeResult_Result_default_instance_ptr_E","_visualmapping_transfer_DatasetUploadMetadata_fields","__ZTIN3geo2ar3lib21ClearcutLoggingConfigE","__ZN11RunInThread19instance_init_once_E","__ZTI14VROGlyphOpenGL","__ZN6google8protobuf8internal23shutdown_functions_initE","__ZTVN6google8internal7android8location7bluesky4type10FloatValueE","__ZTS12CordByteSink","__ZN4logs5proto3geo2ar32PoseStabilityMetrics_class_data_E","__ZN4viro10Node_Light20kPositionFieldNumberE","__ZN3geo2ar38_QuaternionProto_default_instance_ptr_E","__ZN6google3geo2ar2v145_QueryTerrainMeshesResponse_default_instance_E","_ed25519_asn1_meth","__ZTIN4logs5proto3geo2ar13LightEstimateE","_redwood_IPDAdjustment_fields","__ZN4logs5proto3geo2ar13PoseJumpEvent7_table_E","__ZTIN3geo2ar3lib19InertialAnchorFlagsE","__ZN6proto28internal11empty_cord_E","_google_arcorecloudanchor_v1beta2_RigidTransformProto_fields","_kTangoWorldTOpenGLWorld","__ZN3geo2ar43CameraIntrinsics_CityblockFisheyeDistortion7_table_E","__ZTI11VROTriangle","__ZTSN6google3geo2ar2v119StartSessionRequestE","_google_arcorecloudanchor_v1beta2_CameraIntrinsics_fields","__ZN3geo2ar40PositionProbabilityGridProto_class_data_E","__ZN4logs5proto3geo2ar38_LocalizeOptions_default_instance_ptr_E","_iPad8_7","__ZTS23VROIrradianceRenderPass","__ZTSN6proto22io25CopyingInputStreamAdaptorE","_iPad8_5","__ZN4logs5proto3geo2ar25EstimateConfidenceOptions7_table_E","_redwood_AudioModelProto_fields","__ZN4logs5proto3geo2ar19InertialAnchorFlags7_table_E","__ZTIN3geo2ar3lib74ClearcutLoggingConfig_PoseStabilityMonitorConfig_PoseJumpLoggingThresholdsE","__ZN3geo2ar28_LatLngAlt_default_instance_E","__ZTSN3geo2ar9DetectionE","__ZN4viro22Node_Geometry_Material18kNormalFieldNumberE","_iPad4_4","__ZTVN8tcmalloc13AddressRegionE","__ZTSN6google3geo2ar2v113LocationProtoE","__ZN4viro22Node_Geometry_Material8MultiplyE","__ZN3geo2ar3lib41LowLightImageProcessingConfig_class_data_E","__ZTIN3geo2ar3lib18KeplerServerCallerE","_silk_LTP_vq_ptrs_Q7","__ZTVN4base13TraceConsumerE","_FLAGS_nolog_prefix","__ZTIN4logs5proto3geo2ar21ClearcutLoggingConfigE","__ZTSN3geo2ar3lib24TerrainServiceV1ApiProxyE","__ZN4viro21Node_Geometry_Element19Primitive_ARRAYSIZEE","_silk_pitch_contour_iCDF","_logs_proto_vr_arcore_ArCoreLog_ImageResolution_fields","_iPad2_3","_FLAGS_dump_stack_frames_limit","__ZN4logs5proto3geo2ar36SmoothedTransformOptions_class_data_E","__ZTVN6proto28internal12FieldSkipperE","__ZN4logs5proto3geo2ar33AdaptiveImageFrameLocalizerConfig7_table_E","_google_arcorecloudanchor_v1beta2_GetAnchorRequest_fields","__ZN3geo2ar3lib14PoseConfidence7_table_E","_silk_Resampler_2_3_COEFS_LQ","__ZTSN4absl12crc_internal3CRCE","__ZTVN6proto28internal29CodedOutputStreamFieldSkipperE","_logs_proto_vr_arcore_ArCoreLog_NumberOfClientTexturesChange_fields","__ZN3geo2ar3lib51_ClientConfig_RenderingConfig_default_instance_ptr_E","__ZTIN3geo2ar3lib35LocalizationFilterLikelihoodOptionsE","__ZTSN3geo2ar3lib30TimedImageFrameLocalizerConfigE","_redwood_IosDeviceProfileProto_fields","__ZN3geo2ar37_ReferenceFrame_default_instance_ptr_E","__ZTV13VROShadowTest","__ZTSN4logs5proto3geo2ar48LowLightImageProcessingConfig_PixelBinningConfigE","__ZN4logs5proto3geo2ar47LocalizationFilterLikelihoodOptions_class_data_E","__ZN4logs5proto3geo2ar51LowLightImageProcessingConfig_GammaCorrectionConfig7_table_E","__ZN4logs5proto3geo2ar21GnssMeasurementsEvent7_table_E","__ZTIN3geo2ar3lib22EarthAnchorTrackerImplE","__ZTIN8location8bluemoon22CarryPoseChangeOptionsE","__ZTVN3geo2ar3lib31RealDeadReckonedPoseMixerConfigE","__ZTVN3geo2ar3lib20ParticleFilterConfigE","__ZTIN3geo2ar3lib31NetworkEventMetrics_DataMetricsE","__ZTS11VRODebugHUD","__ZTSN3geo2ar47CameraIntrinsics_KannalaBrandtFisheyeDistortionE","__ZN4viro22Node_Geometry_Material21kMetalnessFieldNumberE","__ZTIN3geo2ar8geometry5PointE","_logs_proto_vr_arcore_ArCoreLog_SessionPauseEvent_fields","__ZTIN6tflite14StderrReporterE","__ZTSN4logs5proto3geo2ar45RealDeadReckonedPoseMixerConfig_UncertaintiesE","__ZN4logs5proto3geo2ar40_ClearcutLoggingConfig_default_instance_E","__ZTVN13google_public8protobuf8internal29CodedOutputStreamFieldSkipperE","__ZTI10VROARScene","__ZN13VROGLTFLoader10_dataCacheE","__ZN4logs5proto3geo2ar39_Config_NetworkConfig_default_instance_E","__ZTSN4logs5proto3geo2ar28ClientConfig_RenderingConfigE","__ZTVN3geo2ar3lib24HeadingFromMotionOptionsE","__ZTIN4logs5proto3geo2ar25EstimateConfidenceOptionsE","__ZTSN4logs5proto3geo2ar22CarryPoseChangeOptionsE","_google_arcorecloudanchor_v1beta2_ResolveAnchorAndLocalizeRequest_fields","__ZTV12CordByteSink","_logs_proto_vr_arcore_ArCoreLog_FeatureExtractionStatistics_fields","_logs_proto_vr_arcore_ArCoreLog_SessionPauseEvent_ApiUsageStat_fields","__ZN4logs5proto3geo2ar27NightTimeConfig_class_data_E","__ZTVN3geo2ar3lib24TerrainServiceV1ApiProxyE","__ZN3geo2ar7service22AnchorPose_class_data_E","__ZTS17VROBodyTrackeriOS","__ZTIN4util20NonMessageSetPayloadE","__ZN3geo2ar7service29T2LocalizeRequest_class_data_E","__ZN3geo2ar3lib60LowLightImageProcessingConfig_PixelBinningConfig_class_data_E","__ZN4viro22Node_Geometry_Material23kLitPerPixelFieldNumberE","__ZTI17ThreadStackWriter","_iPad7_2","__ZN4viro4Node19kSubnodeFieldNumberE","__ZTVN8location8bluemoon14inertialanchor44EmpiricalHeadingUncertaintyModelParametersV1E","__ZN3geo2ar7service33T2QueryFacadesRequest_class_data_E","__ZN3geo2ar7service46_T2QueryTerrainMeshesRequest_default_instance_E","__ZTIN3geo2ar10DetectionsE","__ZTS8VROPlane","__ZTSN13google_public8protobuf2io17ArrayOutputStreamE","__ZTVN8location8bluemoon21PerturbationInterfaceE","__ZN3geo2ar7service49T2ResolveAnchorAndLocalizeResponse_ResolvedAnchor7_table_E","__ZTVN6google3geo2ar2v124CheckAvailabilityRequestE","__ZN3geo2ar8geometry31_Triangle_default_instance_ptr_E","__ZTVN4absl14flags_internal8FlagImplE","__ZN8location8bluemoon45_CarryPoseChangeOptions_default_instance_ptr_E","_iPhone6_2","__ZTS23VROFixedParticleEmitter","_FLAGS_notracking_failure_reason_log_interval","__ZTVN4logs5proto3geo2ar10ErrorCountE","__ZTVN7vraudio10SourceNodeE","__ZTV12VROBloomTest","_iPad5_1","__ZTI32VRORendererSettingsEventDelegate","__ZTVN13google_public8protobuf2io25CopyingInputStreamAdaptorE","__ZTVN3geo2ar35CloudLocalizationServiceResultProtoE","__ZTIN6google3geo2ar2v18TriangleE","__ZN6google3geo2ar2v131RigidTransformProto_class_data_E","__ZTV17VROBRDFRenderPass","__ZTVN3geo2ar33CameraIntrinsics_RadialDistortionE","__ZN4logs5proto3geo2ar85_RealDeadReckonedPoseMixerConfig_DeadReckonedPoseEstimateConfig_default_instance_ptr_E","_redwood_AudioDifferencesProto_AudioLeqValueProto_fields","__ZTIN3geo2ar17GeodeticPosePriorE","_FLAGS_noinstall_named_signal_handlers","__ZN3geo2ar3lib28ClientConfig_RenderingConfig7_table_E","__ZTVN3geo2ar13Vector3dProtoE","_FLAGS_noskip_address_map","__ZTIN3geo2ar3lib15NightTimeConfigE","__ZTIN4viro18Node_Skeleton_BoneE","__ZN6google8protobuf11StringPiece4nposE","__ZTVN7vraudio16AudioAssetStreamE","__ZN6google3geo2ar2v142_QueryFacadesRequest_default_instance_ptr_E","__ZN3geo2ar7service42T2BatchQueryElevationsResponse_class_data_E","__ZTS19VROFBXEventDelegate","__ZTVN6thread5local8internal8InstanceE","_redwood_CameraProfileProto_Stream_fields","__ZN8location8bluemoon22RoadOrientationOptions7_table_E","__ZTIN3geo2ar3lib27SurfaceAnchorClearcutLoggerE","__ZTSN7redwood13FrameSelectorE","__ZTSN6proto22io20ZeroCopyOutputStreamE","__ZTVN6google3geo2ar2v19ElevationE","__ZN4logs5proto3geo2ar12ARCoreConfig5Impl_75_i_give_permission_to_break_this_code_default_cloud_anchor_server_endpoint_E","__ZN3geo2ar39PoseLikelihoodFunctionProto_class_data_E","__ZTSN6google8internal7android8location7bluesky7v1beta128GetGridProbabilitiesResponseE","_iPhone6_1","__ZN6google3geo2ar2v143LocationProto_LocationSource_internal_data_E","_logs_proto_vr_arcore_ArCoreLog_CalibrationFaultStats_fields","__ZN4logs5proto3geo2ar34CovarianceMatrix3Proto_class_data_E","__ZTIN6google8internal7android8location7bluesky4type10Int32ValueE","__ZN4logs5proto3geo2ar63_ClearcutLoggingConfig_SessionHeartbeatConfig_default_instance_E","__ZTVN6google3geo2ar2v114ElevationQueryE","__ZTIN4logs5proto3geo2ar48WrappedCauchyHeadingUncertaintyModelParametersV1E","__ZTSN3geo2ar3lib25RealDeadReckonedPoseMixerE","_redwood_CameraLayeredDistortion_CurvedWindow_fields","__ZTSN3geo2ar3lib17BarometerReporterE","__ZTIN6proto22io19OstreamOutputStreamE","__ZTIN8location8bluemoon27CarryPoseChangePerturbationE","__ZTIN4logs5proto3geo2ar15LocalizeOptionsE","__ZTVN6google3geo2ar2v127BatchQueryElevationsRequestE","__ZTIN6google8internal7android8location7bluesky4type11DoubleValueE","__ZN3geo2ar7service44_T2QueryFacadesRequest_default_instance_ptr_E","__ZN4logs5proto3geo2ar52_NetworkEventAggregate_DataMetrics_default_instance_E","__ZTIN6tflite8resource16ResourceVariableE","__ZN8location8bluemoon55_HeadingFromMotionDistributionOptions_default_instance_E","__ZTS35btSequentialImpulseConstraintSolver","__ZN4logs5proto3geo2ar35LocalizationFilterLikelihoodOptions7_table_E","__ZTIN4logs5proto3geo2ar21GnssMeasurementsEventE","_tf_select_table","__ZTIN3geo2ar7service28T2QueryTerrainMeshesResponseE","__ZTSN3geo2ar3lib12ARCoreConfigE","__ZN4viro21Node_Geometry_Element26kPrimitiveCountFieldNumberE","__ZTVN4logs5proto3geo2ar15QuaternionProtoE","__ZTIN8location8bluemoon14inertialanchor48WrappedCauchyHeadingUncertaintyModelParametersV1E","_logs_proto_vr_arcore_ArCoreLog_IOSDepthStats_fields","__ZN6google3geo2ar2v123_Mesh_default_instance_E","__ZTVN7strings10ByteSourceE","__ZTVN3geo2ar3lib22RealSessionEventLoggerE","__ZN4logs5proto3geo2ar75_RealDeadReckonedPoseMixerConfig_TransformDifferences_default_instance_ptr_E","__ZN6google8protobuf15Any_class_data_E","__ZN4logs5proto3geo2ar72_RealDeadReckonedPoseMixerConfig_UncertaintyRatios_default_instance_ptr_E","__ZTIN4util8callback18CancellableClosureE","__ZTIN13google_public8protobuf2io18CopyingInputStreamE","__ZN3geo2ar3lib42_InertialAnchorFlags_default_instance_ptr_E","__ZTI9VROPortal","__ZTVN13google_public8protobuf7ClosureE","_logs_proto_vr_arcore_ArCoreLog_PlaybackDataSourceMetrics_fields","__ZN4logs5proto3geo2ar32StepDetectionOptions_class_data_E","__ZTIN3geo2ar3lib39ClearcutLoggingConfig_FrameRejectConfigE","__ZN3geo2ar13LocationProto7_table_E","__ZTIN4logs5proto3geo2ar21NetworkEventAggregateE","__ZTSN4logs5proto3geo2ar21GnssMeasurementsEventE","__ZN8location8bluemoon44_EstimateConfidenceOptions_default_instance_E","__ZTIN3geo2ar15QuaternionProtoE","__ZTSN3geo2ar3lib74ClearcutLoggingConfig_PoseStabilityMonitorConfig_PoseJumpLoggingThresholdsE","__ZTV20VROPoseFilterLowPass","__ZN6google3geo2ar2v144_CheckAvailabilityResponse_default_instance_E","__ZTVN3geo2ar3lib28ClientConfig_RenderingConfigE","__ZTS15VROParticleTest","__ZTVN6google8internal7android8location7bluesky4type11DoubleValueE","__ZTIN4logs5proto3geo2ar30TerrainAnchorUnresolvableEventE","__ZN4logs5proto3geo2ar28ParticleTrackingQueueOptions7_table_E","_redwood_ValidArea_fields","__ZTVN4logs5proto3geo2ar15SunAngleOptionsE","__ZTIN3geo2ar7service29T2BatchQueryElevationsRequestE","__ZTVN3geo2ar3lib49RealDeadReckonedPoseMixerConfig_UncertaintyRatiosE","__ZN4viro18Node_Skeleton_Bone25kBindTransformFieldNumberE","__ZTIN6thread5local8internal8InstanceE","__ZTSN4logs5proto3geo2ar43CameraIntrinsics_CityblockFisheyeDistortionE","_IDENTITY_MATRIX_D","__ZTSN6google3geo2ar2v116LocalizeResponseE","__ZN8location8bluemoon34RoadOrientationOptions_class_data_E","_iPad5_4","__ZN6google3geo2ar2v120FacadesCacheContents7_table_E","__ZTVN6tflite16MemoryAllocationE","__ZTSN6proto22io19OstreamOutputStream26CopyingOstreamOutputStreamE","__ZN4logs5proto3geo2ar39_StepDetectionOptions_default_instance_E","__ZN3geo2ar7service10AnchorPose7_table_E","__ZTVN6proto22io15CordInputStreamE","__ZN3geo2ar3lib71_RealDeadReckonedPoseMixerConfig_TransformDifferences_default_instance_E","__ZN3geo2ar33_ReferenceFrame_default_instance_E","__ZTVN6google8protobuf7ClosureE","__ZN4absl14ascii_internal13kPropertyBitsE","__ZN4logs5proto3geo2ar40_SetCameraTDeviceEvent_default_instance_E","__ZN4logs5proto3geo2ar26BlueskyOptions_class_data_E","__ZN3geo2ar5depth18kFuseDepthTimerTagE","__ZN6proto25mutexE","__ZTIN3geo2ar3lib48ClearcutLoggingConfig_PoseStabilityMonitorConfigE","__ZTS19VROARImageTargetiOS","__ZN3geo2ar3lib40_ClearcutLoggingConfig_default_instance_E","__ZN3geo2ar56_CameraIntrinsics_RadialDistortion_default_instance_ptr_E","__ZN4logs5proto3geo2ar19ParticleFilterEvent7_table_E","_kGeoARTimeToARFrame","__ZTV9VROPortal","__ZN4logs5proto3geo2ar57AdaptiveImageFrameLocalizerConfig_PitchConfig_class_data_E","_Watch4_1","__ZN3geo2ar40_FacadesSnapshotId_default_instance_ptr_E","__ZN6google3geo2ar2v132FacadesCacheContents_class_data_E","__ZTV24VROParticleEventDelegate","__ZN4logs5proto3geo2ar45ParticleFilterEvent_TrackedAnchor_class_data_E","__ZTVN4logs5proto3geo2ar33AdaptiveImageFrameLocalizerConfigE","__ZTI23VRORendererSettingsTest","__ZN3geo2ar7service14ElevationQuery7_table_E","__ZTV26VROGeometrySubstrateOpenGL","_logs_proto_vr_arcore_ArCoreLog_TrackingFailureReasonStats_fields","__ZN3geo2ar3lib43NetworkEventMetrics_DataMetrics_class_data_E","__ZTSN4base21SecurityContextHandle20InternalSecurityBaseE","__ZTVN3geo2ar3lib9DevConfigE","__ZTSN4logs5proto3geo2ar25EstimateConfidenceOptionsE","__ZN4logs5proto3geo2ar42_RigidTransformProto_default_instance_ptr_E","_FLAGS_helppackage","__ZN4logs5proto3geo2ar10ErrorCount7_table_E","__ZTIN8location8bluemoon21DistributionInterfaceE","__ZTVN4logs5proto3geo2ar44EmpiricalHeadingUncertaintyModelParametersV1E","__ZTSN4logs5proto3geo2ar13Vector3dProtoE","__ZTIN4base21SecurityContextHandle20InternalSecurityBaseE","__ZTS14VROHeadTracker","__ZTV16VRONormalMapTest","__ZTV18AbstractThreadPool","__ZN6google8internal7android8location7bluesky7v1beta127CompactGridEcef_class_data_E","__ZTI11VROTextTest","__ZTIN4logs5proto3geo2ar51LowLightImageProcessingConfig_GammaCorrectionConfigE","__ZN3geo2ar3lib35_ARCoreConfig_default_instance_ptr_E","__ZN3geo2ar49HorizontalPositionAndYawGaussianDistributionProto7_table_E","_silk_LTP_gain_iCDF_ptrs","_FLAGS_nov","__ZN6google8internal7android8location7bluesky4type9GnssClock7_table_E","__ZTSN4logs5proto3geo2ar21SetCameraTDeviceEventE","__ZN3geo2ar7service29_AnchorPose_default_instance_E","__ZTI13VROShadowTest","__ZTSN3geo2ar7service9ElevationE","__ZTI15VROPhysicsShape","__ZN4logs5proto3geo2ar31RigidTransformProto_class_data_E","_iPad2_1","__ZN4logs5proto3geo2ar38_ParticleFilterEvent_default_instance_E","__ZN4viro20Node_Geometry_Source16kDataFieldNumberE","__ZTVN4logs5proto3geo2ar8T2ConfigE","__ZN4logs5proto3geo2ar41_CovarianceMatrix6Proto_default_instance_E","__ZTV14VROGlyphOpenGL","__ZTIN4logs5proto3geo2ar11WifiOptionsE","_iPad8_2","__ZN3geo2ar3lib60RealDeadReckonedPoseMixerConfig_ReinitConditions_class_data_E","__ZTI15VROSoundDataGVR","__ZTIN6icu_7711ReplaceableE","__ZTVN3geo2ar7service11CellFacadesE","__ZTS32VROPhotometricLightEventDelegate","__ZTVN7vraudio27VrAudioEngineImplDeprecatedE","__ZN3geo2ar7service56_T2ResolveAnchorAndLocalizeRequest_default_instance_ptr_E","_logs_proto_vr_arcore_ArCoreLog_AndroidLightingConditionStats_fields","__ZTIN4base8internal12CallbackBaseE","__ZN4logs5proto3geo2ar48LowLightImageProcessingConfig_PixelBinningConfig7_table_E","__ZTI8VROScene","__ZTIN3geo2ar45CameraIntrinsics_CityblockFisheyeV2DistortionE","__ZN8location8bluemoon61_UncertaintyPreserverConfig_PerSignalConfig_default_instance_E","__ZTSN6icu_7723UnicodeStringAppendableE","__ZN3geo2ar3lib31NetworkEventMetrics_class_data_E","__ZN9perftools7tracing8internal12barrier_saltE","__ZN6google3geo2ar2v132PoseEstimationResult_class_data_E","__ZN4logs5proto3geo2ar27QuaternionProto_class_data_E","_redwood_OneofFrameProto_fields","__ZN4logs5proto3geo2ar34_NightTimeConfig_default_instance_E","__ZTV21VROTypefaceCollection","__ZN3geo2ar7service47_T2QueryTerrainMeshesResponse_default_instance_E","__ZN4viro22Node_Geometry_Material21kBlendModeFieldNumberE","__ZN6google3geo2ar2v138_RigidTransformProto_default_instance_E","__ZTS19GeoAREncodableImage","_FLAGS_notracer_debug_refcounts","__ZTV23VROPortalTreeRenderPass","__ZN4logs5proto3geo2ar67_ParticleFilterConfig_PositionAndYawFilterOptions_default_instance_E","__ZTSN7tinyobj14MaterialReaderE","__ZN6google3geo2ar2v155PlaceSummary_RouteSummary_Directionality_internal_data_E","_FLAGS_helpshort","_silk_rate_levels_iCDF","__ZTS18VROParticleEmitter","__ZTV15VROParticleTest","__ZTIN4absl12crc_internal23FallbackCrcMemcpyEngineE","__ZN15VROPhysicsShape16kTriangleMeshTagE","_redwood_Vector2Proto_fields","__ZTS17VROBoneConstraint","__ZTIN3geo2ar3lib14HttpPostResultE","__ZTSN3geo2ar33PositionGaussianDistributionProtoE","__ZN6google8internal7android8location7bluesky7v1beta128_GridPoint_default_instance_E","__ZTSN3geo2ar3lib31RealDeadReckonedPoseMixerConfigE","__ZN3geo2ar3lib33_HttpPostResult_default_instance_E","__ZN4viro29Node_Geometry_Material_Visual14FilterMode_MAXE","__ZN3geo2ar3lib51_ParticleTrackingQueueOptions_default_instance_ptr_E","__ZTVN4logs5proto3geo2ar48ParticleFilterConfig_PositionAndYawFilterOptionsE","__ZTV21btConeTwistConstraint","__ZTVN4logs5proto3geo2ar26TrackingFailureReasonEventE","__ZN4logs5proto3geo2ar37_LightEstimateEvent_default_instance_E","__ZN4viro28Node_KeyframeAnimation_Frame16kTimeFieldNumberE","__ZN6google8internal7android8location7bluesky4type22FloatValue_class_data_E","__ZN8location8bluemoon14inertialanchor60WrappedCauchyHeadingUncertaintyModelParametersV1_class_data_E","__ZTSN4viro11Node_CameraE","_google_arcorecloudanchor_v1beta2_GeodeticPosePrior_fields","__ZTI10VROBoxTest","__ZN4logs5proto3geo2ar34_SensorCount_default_instance_ptr_E","__ZTSN3geo2ar3lib15BearingReporterE","__ZTSN6google8internal7android8location7bluesky7v1beta115CompactGridEcefE","__ZTV23btDiscreteDynamicsWorld","__ZTVN6icu_7723UnicodeStringAppendableE","__ZTIN3geo2ar3lib48ParticleFilterConfig_PositionAndYawFilterOptionsE","__ZN4logs5proto3geo2ar45InertialAnchorReInitCallbackEvent_class_data_E","__ZTVN3geo2ar3lib15NightTimeConfigE","__ZTIN4logs5proto3geo2ar15SessionEndEventE","__ZTSN4viro13Node_GeometryE","__ZN6google3geo2ar2v116LocalizeResponse7_table_E","__ZN4logs5proto3geo2ar8T2Config7_table_E","__ZTVN3geo2ar3lib24FacadesServiceV1ApiProxyE","__ZTSN3geo2ar8geometry4MeshE","_FLAGS_noalsologtostderr","__ZTSN4logs5proto3geo2ar49RealDeadReckonedPoseMixerConfig_UncertaintyRatiosE","__ZTIN3geo2ar34CameraIntrinsics_FisheyeDistortionE","__ZTVN6google3geo2ar2v120FacadesCacheContentsE","_FLAGS_noprotobuf_enable_hardening","__ZTSN6tflite9telemetry17TelemetryProfilerE","__ZTIN3geo2ar7service11CellFacadesE","__ZTVN7vraudio14ProcessingNodeE","__ZTIN6google8protobuf8internal16FunctionClosure0E","__ZTS10VROMorpher","__ZN3geo2ar7service34T2ResolveAnchorAndLocalizeResponse7_table_E","_ar_persistence_ResolveAnchorStats_LocalizationFilterStats_fields","__ZTSN4logs5proto3geo2ar51LowLightImageProcessingConfig_GammaCorrectionConfigE","__ZTVN3geo2ar3lib16FacadesModelImplE","__ZTVN4logs5proto3geo2ar45CameraIntrinsics_CityblockFisheyeV2DistortionE","__ZTSN3geo2ar3lib9DebugPoseE","__ZN3geo2ar39PositionAndYawGaussianDistributionProto7_table_E","_redwood_ImuModelProto_LinearModel_fields","__ZN6icu_776UMutex9gListHeadE","__ZN15inertial_anchor9estimator7bearing32CarryChangeDetectorConfiguration37kMinValidAdaptiveThresholdBaselineRpsE","__ZTSN4logs5proto3geo2ar35LocalizationFilterLikelihoodOptionsE","__ZN3geo2ar57CameraIntrinsics_CityblockFisheyeV2Distortion_class_data_E","__ZTIN4viro32Node_Skeleton_BoneAttachmentPairE","_silk_LTP_vq_sizes","__ZN4logs5proto3geo2ar40ClientConfig_RenderingConfig_class_data_E","__ZN3geo2ar47_PositionProbabilityGridProto_default_instance_E","__ZN3geo2ar45_ReferenceFrameAndState_default_instance_ptr_E","__ZN4base13process_state10kTestStartE","__ZTV34VROEquirectangularToCubeRenderPass","__ZN6google8internal7android8location7bluesky7v1beta121GridPoint_class_data_E","_kDebugSortOrder","__ZTSN3geo2ar3lib33SessionStatusMonitorForThirdPartyE","__ZN3geo2ar3lib43_HeadingFromMotionOptions_default_instance_E","__ZN3geo2ar3lib9DebugPose7_table_E","_logs_proto_vr_arcore_ArCoreLog_SemanticsManagerCallStats_fields","__ZN3geo2ar7service20T2WarmUpCacheRequest7_table_E","__ZN6google8protobuf3Any7_table_E","__ZN8location8bluemoon33_BlueskyOptions_default_instance_E","__ZTS11VROGLTFTest","__ZTI22VROBillboardConstraint","__ZTIN4logs5proto3geo2ar30TimedImageFrameLocalizerConfigE","__ZN4logs5proto3geo2ar38_NightTimeConfig_default_instance_ptr_E","__ZTVN8location8bluemoon36HeadingFromMotionDistributionOptionsE","_silk_pitch_contour_10_ms_NB_iCDF","__ZN3geo2ar7service29_Anchor_default_instance_ptr_E","_rsa_pss_sha256_pkey_meth","__ZTIN3ion4base10LogCheckerE","__ZN4logs5proto3geo2ar56_GnssMeasurementsEvent_GnssMeasurement_default_instance_E","__ZN6google3geo2ar2v137_ElevationQuery_default_instance_ptr_E","__ZTIN3geo2ar3lib19ActualSurfaceAnchorE","__ZTS18VROToneMappingTest","__ZN15inertial_anchor9estimator7bearing32CarryChangeDetectorConfiguration21kMaxValidUpdateRateHzE","__ZTSN4logs5proto3geo2ar43ParticleFilterConfig_RoadOrientationOptionsE","__ZTVN3ion4base20StaticDeleterDeleterE","_FLAGS_helpfull","__ZN6google3geo2ar2v149_QueryTerrainMeshesResponse_default_instance_ptr_E","__ZTV24VROAnimatedTextureOpenGL","__ZN4logs5proto3geo2ar41_CarryPoseChangeOptions_default_instance_E","__ZN8location8bluemoon20StepDetectionOptions7_table_E","__ZN3geo2ar3lib18Config_class_data_E","__ZTVN2ar5image14ImageBlockDataE","_FLAGS_helpon","__ZTI24VROToneMappingRenderPass","__ZN4logs5proto3geo2ar26UncertaintyPreserverConfig7_table_E","__ZN4logs5proto3geo2ar56EmpiricalHeadingUncertaintyModelParametersV1_class_data_E","__ZN4logs5proto3geo2ar59SmoothedTransformOptions_SimpleSmoothingOptions_class_data_E","__ZTS19VROShadowPreprocess","__ZN4logs5proto3geo2ar58_LocalizationFilterLikelihoodOptions_default_instance_ptr_E","__ZTI25LogErrorThreadStackWriter","_kGeoARBackgroundFrameEvent","__ZTSN3geo2ar7service33T2ResolveAnchorAndLocalizeRequestE","__ZN8location8bluemoon14inertialanchor52EmpiricalHeadingUncertaintyModelFeatures_class_data_E","__ZTI18VROPBRTexturedTest","__ZTSN8location8bluemoon21DistributionInterfaceE","__ZN4logs5proto3geo2ar45_BearingTrackingOptions_default_instance_ptr_E","__ZTI11VROPolyline","__ZN2S28internal17kPosToOrientationE","__ZTVN13google_public8protobuf2io20ZeroCopyOutputStreamE","__ZTIN13google_public8protobuf2io26CopyingOutputStreamAdaptorE","__ZTVN3geo2ar7service11CellTerrainE","_kDefaultSemanticsOutputBatchSize","__ZN15inertial_anchor9estimator7bearing32CarryChangeDetectorConfiguration21kMinValidUpdateRateHzE","_silk_uniform6_iCDF","__ZTV19VROARAnchorInertial","__ZTS23VROPhotometricLightTest","__ZN3geo2ar3lib14HttpPostResult7_table_E","_FLAGS_ecef_t_device_log_interval","__ZTVN6tflite14StderrReporterE","__ZTVN3geo2ar3lib17FacadesClientImplE","__ZTI20VROARObjectTargetiOS","__ZTV9VRODriver","__ZN3geo2ar7service46T2ResolveAnchorAndLocalizeResponse_class_data_E","__ZTSN13google_public8protobuf8internal29CodedOutputStreamFieldSkipperE","__ZN4logs5proto3geo2ar31GnssMeasurementsEvent_GnssClock7_table_E","__ZTV10VROBoxTest","__ZTVN4util5ClockE","__ZTIN4logs5proto3geo2ar11GeoArLibLogE","__ZN4absl13base_internal11sbrk_hooks_E","__ZTV9VROIKTest","__ZN4logs5proto3geo2ar54_RealDeadReckonedPoseMixerConfig_default_instance_ptr_E","_kOpenSSLReasonStringData","__ZN3geo2ar3lib35LocalizationFilterLikelihoodOptions7_table_E","__ZN6google3geo2ar2v136CheckAvailabilityRequest_class_data_E","__ZN3geo2ar3lib68_RealDeadReckonedPoseMixerConfig_UncertaintyRatios_default_instance_E","__ZTI30VROInputControllerCardboardiOS","__ZTSN4base16TraceEntrySourceE","__ZN8location8bluemoon43_CloudLocalizationOptions_default_instance_E","__ZN4logs5proto3geo2ar67_EmpiricalHeadingUncertaintyModelParametersV1_default_instance_ptr_E","__ZTI18AbstractThreadPool","__ZTV23StderrThreadStackWriter","__ZN4logs5proto3geo2ar47SmoothedTransformOptions_SimpleSmoothingOptions7_table_E","__ZTSN4logs5proto3geo2ar48ClearcutLoggingConfig_PoseStabilityMonitorConfigE","__ZN3geo2ar3lib39_ParticleFilterConfig_default_instance_E","__ZTIN6google3geo2ar2v119WarmUpCacheResponseE","_FLAGS_version","__ZTIN3geo2ar3lib30BatchingSurfaceElevationClientE","__ZTVN4absl13time_internal4cctz12TimeZoneLibCE","__ZN4logs5proto3geo2ar39ClearcutLoggingConfig_FrameRejectConfig7_table_E","__ZTVN3geo2ar3lib11SensorEventE","__ZTIN13google_public8protobuf2io19ZeroCopyInputStreamE","__ZN3geo2ar3lib48_LowLightImageProcessingConfig_default_instance_E","_Watch3_4","__ZN3geo2ar3lib30FrameRejectReasons_class_data_E","__ZN3geo2ar3lib85_RealDeadReckonedPoseMixerConfig_DeadReckonedPoseEstimateConfig_default_instance_ptr_E","__ZTSN3geo2ar25SunAngleDistributionProtoE","__ZTIN4logs5proto3geo2ar22FrameRejectReasonEventE","_FLAGS_vmodule","__ZTSN4base8internal12CallbackBaseE","__ZTSN4logs5proto3geo2ar12BearingEventE","__ZN4logs5proto3geo2ar25TerrainAnchorCreatedEvent7_table_E","__ZTSN6google3geo2ar2v119QueryFacadesRequestE","_FLAGS_nodump_all_maps_on_failure","__ZN3geo2ar52CloudLocalizationLikelihoodFunctionProto_class_data_E","_iPad2_4","__ZTIN4viro18Node_Geometry_SkinE","__ZN6google8internal7android8location7bluesky4type11DoubleValue7_table_E","__ZN6google3geo2ar2v142_RigidTransformProto_default_instance_ptr_E","__ZTVN4logs5proto3geo2ar48ClearcutLoggingConfig_PoseStabilityMonitorConfigE","__ZTVN6proto22io26CopyingOutputStreamAdaptorE","_logs_proto_vr_arcore_ArCoreLog_HistogramState_fields","_gDisableDeactivation","__ZTIN4logs5proto3geo2ar16SensorCountEventE","__ZTIN8location8bluemoon42UncertaintyPreserverConfig_PerSignalConfigE","__ZTVN3geo2ar32CarryPoseChangePerturbationProtoE","__ZN4logs5proto3geo2ar39_CameraIntrinsics_default_instance_ptr_E","__ZTVN3geo2ar3lib25TrackedAndLocalizedAnchorE","__ZN4logs5proto3geo2ar65_UncertaintyPreserverConfig_PerSignalConfig_default_instance_ptr_E","__ZTVN13google_public8protobuf2io22LazyStringOutputStreamE","__ZN9TimedCall4StopE","__ZTIN6google8internal7android8location7bluesky4type15EcefCoordinatesE","__ZN4logs5proto3geo2ar27LocalizeOptions_class_data_E","_redwood_DisplayGeometryCalibrationProfile_fields","__ZN4logs5proto3geo2ar48WrappedCauchyHeadingUncertaintyModelParametersV17_table_E","__ZN3geo2ar7service50_T2CheckAvailabilityResponse_default_instance_ptr_E","__ZTVN3geo2ar19RigidTransformProtoE","__ZTS19VROThreadRestricted","__ZTVN6google3geo2ar2v119FacadesCellContentsE","__ZN3geo2ar5depth23kInvokeMLModuleTimerTagE","__ZTVN4viro28Node_SkeletalAnimation_FrameE","__ZN3geo2ar42_RigidTransformProto_default_instance_ptr_E","__ZN4logs5proto3geo2ar38_ErrorCountEvent_default_instance_ptr_E","__ZN4viro21Node_Geometry_Element25kBytesPerIndexFieldNumberE","__ZTVN4logs5proto3geo2ar48WrappedCauchyHeadingUncertaintyModelParametersV1E","__ZN4viro29Node_Geometry_Material_Visual14FilterMode_MINE","__ZTIN3geo2ar4PoseE","__ZTV25VROGaussianBlurRenderPass","_iPad6_7","__ZTSN3geo2ar3lib16Project3x3ConfigE","__ZTIN6google3geo2ar2v113LocationProtoE","__ZTVN8location8bluemoon14BlueskyOptionsE","__ZTIN6proto26bridge10MessageSetE","__ZTVN3geo2ar17GeodeticPosePriorE","__ZTI19VROShadowPreprocess","_iPad2_5","_FLAGS_nosilent_init","__ZN4logs5proto3geo2ar24ARCoreConfig_class_data_E","__ZTV19VROIBLEventDelegate","__ZTIN7strings20GrowingArrayByteSinkE","__ZTSN3geo2ar3lib26LocalizationClearcutLoggerE","__ZN3geo2ar32LocalizeResponseMetricsExtension15request_metricsE","__ZN6google3geo2ar2v140_GeodeticPosePrior_default_instance_ptr_E","__ZTVN4logs5proto3geo2ar22FrameRejectReasonEventE","__ZTSN4viro11Node_MatrixE","__ZTSN3geo2ar3lib48ParticleFilterConfig_PositionAndYawFilterOptionsE","__ZTIN3geo2ar3lib47SmoothedTransformOptions_SimpleSmoothingOptionsE","__ZTIN4logs5proto3geo2ar24LocalizationRequestEventE","__ZN4viro20Node_Geometry_Source10EdgeCreaseE","__ZTV16VROPBRDirectTest","_kGeoARSensorEvent","__ZTVN3geo2ar3lib16FixedEarthAnchorE","__ZTV17VROAudioPlayeriOS","_FLAGS_notryfromenv","__ZTIN3geo2ar3lib33NetworkEventMetrics_TimingMetricsE","__ZTSN3geo2ar3lib28NoopSurfaceElevationProviderE","__ZTVN4logs5proto3geo2ar30RealDeadReckonedPoseMixerEventE","__ZTVN13google_public8protobuf2io19CopyingOutputStreamE","_logs_proto_vr_arcore_ArCoreLog_SceneHistoryStats_fields","__ZTVN6google3geo2ar2v117GeodeticPosePriorE","_FLAGS_tracer_debug_refcounts","__ZN6google3geo2ar2v111TerrainMesh7_table_E","__ZN3geo2ar3lib43_DebugPoseResultProto_default_instance_ptr_E","__ZTS21VROImageShaderProgram","__ZN3fLI30FLAGS_noutil_time_backoff_seedE","_silk_uniform5_iCDF","_FLAGS_nosymbolize_stacktrace","__ZTI24VROParticleEventDelegate","__ZN4absl12RFC1123_fullE","__ZN4viro18Node_Skeleton_Bone26kLocalTransformFieldNumberE","__ZTV9VROSkybox","__ZTI22VROARDraggableNodeTest","__ZTI15GeoARHTTPClient","__ZTV9ACMRandom","__ZTIN13google_public8protobuf2io16ArrayInputStreamE","_redwood_Vector2iProto_fields","__ZN3geo2ar3lib30TimedImageFrameLocalizerConfig7_table_E","__ZN4logs5proto3geo2ar35_ARCoreConfig_default_instance_ptr_E","__ZN4logs5proto3geo2ar52_ParticleFilterEvent_TrackedAnchor_default_instance_E","__ZN4viro22Node_SkeletalAnimation17kFrameFieldNumberE","__ZTS14VROPhysicsBody","_kTangoCameraTOpenGLCamera","__ZN4logs5proto3geo2ar54_QualityFramePriorityQueueConfig_default_instance_ptr_E","__ZN3geo2ar21LatLngAlt_class_data_E","_logs_proto_vr_arcore_ArCoreLog_CameraFlashOffEvent_fields","__ZTVN3geo2ar3lib27SurfaceAnchorClearcutLoggerE","__ZTS7VROText","__ZTI21VROVertexBufferOpenGL","__ZTV15VROPhysicsShape","__ZTIN6tflite9telemetry17TelemetryProfilerE","__ZN3geo2ar3lib56_AdaptiveImageFrameLocalizerConfig_default_instance_ptr_E","__ZTV17btTypedConstraint","__ZN4logs5proto3geo2ar63LowLightImageProcessingConfig_GammaCorrectionConfig_class_data_E","_Watch3_3","__ZN4logs5proto3geo2ar59CameraIntrinsics_KannalaBrandtFisheyeDistortion_class_data_E","__ZN4logs5proto3geo2ar51_ParticleTrackingQueueOptions_default_instance_ptr_E","__ZTIN4logs5proto3geo2ar35NetworkEventAggregate_TimingMetricsE","__ZTVN3geo2ar3lib17RealFrameSnapshotE","__ZTSN13google_public8protobuf2io18CopyingInputStreamE","__ZTSN6google3geo2ar2v126QueryTerrainMeshesResponseE","__ZTIN3geo2ar3lib22FrameRejectMetricsImplE","_ar_persistence_ResolveAnchorStats_fields","__ZTSN4logs5proto3geo2ar15ErrorCountEventE","__ZN4logs5proto3geo2ar48_ImageFrameLocalizerConfig_default_instance_ptr_E","__ZTIN3geo2ar7service26T2CheckAvailabilityRequestE","__ZN4viro21Node_Geometry_Element8TriangleE","_redwood_CameraProfileProto_eis_api_support_mode_default","__ZTSN3ion4base20StaticDeleterDeleterE","__ZN6google3geo2ar2v123TerrainMesh_class_data_E","_VPSHotspotRecorderErrorDomain","__ZTSN3geo2ar19RigidTransformProtoE","__ZTI17VROShaderModifier","_google_initializer_module_malloc_memory_release_thread","__ZN3geo2ar25SunAngleDistributionProto7_table_E","__ZTI11VROSoundGVR","__ZN4base13process_state8kTestEndE","__ZTVN4logs5proto3geo2ar19InertialAnchorFlagsE","__ZN4logs5proto3geo2ar43TerrainAnchorFirstTrackingEvent_class_data_E","__ZTVN4viro13Node_SkeletonE","__ZN4logs5proto3geo2ar29_Config_default_instance_ptr_E","__ZN4viro18Node_Geometry_Skin23kBoneIndicesFieldNumberE","__ZN4logs5proto3geo2ar71_RealDeadReckonedPoseMixerConfig_ReinitConditions_default_instance_ptr_E","__ZTSN3geo2ar7service18T2LocalizeResponseE","_kPoseFilterSkeleton","__ZTSN4logs5proto3geo2ar22RoadOrientationOptionsE","__ZTIN6tflite8SubgraphE","__ZTVN4logs5proto3geo2ar35NetworkEventAggregate_TimingMetricsE","__ZTSN6google3geo2ar2v119RigidTransformProtoE","__ZN4viro51_Node_Skeleton_BoneAttachmentPair_default_instance_E","_kBodyAnimJoints","_cpuinfo_isa","__ZTIN6google8internal7android8location7bluesky7v1beta19GridPointE","__ZN4logs5proto3geo2ar45_UncertaintyPreserverConfig_default_instance_E","__ZTS19VROGlyphAtlasOpenGL","__ZN4logs5proto3geo2ar45CameraIntrinsics_CityblockFisheyeV2Distortion7_table_E","__ZTS25LogErrorThreadStackWriter","__ZTSN3geo2ar3lib12GnssReporterE","_redwood_CameraProfileProto_Stream_StreamType_fields","__ZTVN3geo2ar3lib9DebugPoseE","__ZTIN3geo2ar7service10AnchorPoseE","__ZTVN3geo2ar3lib11SessionImplE","__ZTI18VROToneMappingTest","__ZN3geo2ar53RoadRelativeOrientationYawPredictionProto_class_data_E","__ZTVN6proto22io19OstreamOutputStreamE","_redwood_CameraProfileProto_CameraConfigEntry_Int64Array_fields","__ZTSN4viro22Node_KeyframeAnimationE","__ZN6google3geo2ar2v126QueryTerrainMeshesResponse7_table_E","__ZTIN3geo2ar7service14LocalizeResultE","__ZTIN3geo2ar3lib21ParticleTrackingQueueE","__ZN4logs5proto3geo2ar71_LowLightImageProcessingConfig_PixelBinningConfig_default_instance_ptr_E","__ZTVN4logs5proto3geo2ar74ClearcutLoggingConfig_PoseStabilityMonitorConfig_PoseJumpLoggingThresholdsE","__ZN13google_public8protobuf8internal14WireFormatLite20kMessageSetTypeIdTagE","__ZN4absl12log_internal9kCharNullE","__ZN4logs5proto3geo2ar33_ErrorCount_default_instance_ptr_E","__ZTV11btRigidBody","_logs_proto_vr_arcore_ArCoreLog_BackgroundSegmentationFramerateChange_fields","__ZN4viro20Node_Geometry_Source18Semantic_ARRAYSIZEE","_dh_asn1_meth","__ZN6google3geo2ar2v138_StartSessionRequest_default_instance_E","__ZN3geo2ar62_PositionAndYawGaussianDistributionProto_default_instance_ptr_E","__ZTVN6tflite9telemetry17TelemetryProfilerE","__ZN4util39_NonMessageSetPayload_default_instance_E","__ZTIN4logs5proto3geo2ar33InertialAnchorReInitCallbackEventE","__ZN3geo2ar25Vector3dProto_class_data_E","__ZN4logs5proto3geo2ar21NetworkEventAggregate7_table_E","__ZTVN4util11StatusProtoE","__ZTIN6proto28internal12FieldSkipperE","__ZTV10RandomBase","__ZN3geo2ar3lib48_ImageFrameLocalizerConfig_default_instance_ptr_E","__ZN4util23StatusProto_class_data_E","__ZTSN4logs5proto3geo2ar13LightEstimateE","__ZN3geo2ar53_StepDetectionPerturbationProto_default_instance_ptr_E","__ZTVN3geo2ar3lib19FrameSelectorConfigE","__ZN6google3geo2ar2v131_Triangle_default_instance_ptr_E","_dsa_asn1_meth","__ZTSN6icu_7711ReplaceableE","__ZTIN6google8internal7android8location7bluesky4type15GnssMeasurementE","_iPhone7_2","__ZTSN6proto28internal12FieldSkipperE","__ZN3geo2ar15QuaternionProto7_table_E","__ZN4logs5proto3geo2ar63_EmpiricalHeadingUncertaintyModelParametersV1_default_instance_E","__ZTVN4logs5proto3geo2ar19RigidTransformProtoE","__ZN4logs5proto3geo2ar24CloudLocalizationOptions7_table_E","__ZN4logs5proto3geo2ar35_SensorCountEvent_default_instance_E","_silk_LTP_gain_BITS_Q5_ptrs","_logs_proto_vr_arcore_ArCoreLog_ResolveAnchorEndEvent_fields","__ZTIN3geo2ar3lib25TrackedAndLocalizedAnchorE","__ZTVN3geo2ar7service14ElevationQueryE","__ZTVN4viro32Node_Skeleton_BoneAttachmentPairE","__ZTIN4logs5proto3geo2ar24LocationOrientationEventE","__ZTV14VROTypefaceiOS","__ZTIN3geo2ar25SunAngleDistributionProtoE","__ZN4logs5proto3geo2ar34_QuaternionProto_default_instance_E","__ZN3geo2ar7service30_CellTerrain_default_instance_E","__ZTVN4absl16strings_internal13OStringStream9StreambufE","__ZTSN4logs5proto3geo2ar19ParticleFilterEventE","__ZN4logs5proto3geo2ar67_ClearcutLoggingConfig_SessionHeartbeatConfig_default_instance_ptr_E","__ZN4logs5proto3geo2ar60LowLightImageProcessingConfig_PixelBinningConfig_class_data_E","__ZTV14VROARAnchoriOS","__ZN3geo2ar3lib36HeadingFromMotionOptions_class_data_E","__ZN6google3geo2ar2v129GeodeticPosePrior_class_data_E","__ZTIN4logs5proto3geo2ar33AdaptiveImageFrameLocalizerConfigE","_redwood_CameraProfileProto_CameraConfigEntry_DoubleArray_fields","__ZTV11VROTriangle","__ZTSN3geo2ar3lib27SurfaceAnchorClearcutLoggerE","__ZN13google_public8protobuf4util6Status2OKE","_AppleTV5_3","__ZTV22VRORendererTestHarness","__ZTSN4viro28Node_SkeletalAnimation_FrameE","__ZTV10GeoARClock","__ZN3geo2ar3lib71_ClearcutLoggingConfig_PoseStabilityMonitorConfig_default_instance_ptr_E","__ZTVN3geo2ar3lib30BatchingSurfaceElevationClient10QueryProxyE","__ZN6google3geo2ar2v141ReferenceFrame_CommonFrame_internal_data_E","__ZTSN6google3geo2ar2v18TriangleE","__ZTSN4logs5proto3geo2ar30TerrainAnchorUnresolvableEventE","_redwood_CameraProfileProto_qualitative_distortion_default","__ZTIN4logs5proto3geo2ar20PoseStabilityMetricsE","__ZN7octomap14AbstractOcTree10fileHeaderE","__ZN3geo2ar7service25_Anchor_default_instance_E","__ZN3geo2ar7service53_T2BatchQueryElevationsResponse_default_instance_ptr_E","__ZN3geo2ar7service17T2LocalizeRequest7_table_E","__ZN3geo2ar7service19LocalAreaParameters7_table_E","__ZN4logs5proto3geo2ar41_RoadOrientationOptions_default_instance_E","__ZTI21VROImageShaderProgram","__ZN4logs5proto3geo2ar43ParticleFilterConfig_RoadOrientationOptions7_table_E","__ZTIN3ion4base11AllocatableE","__ZTS22VROShadowMapRenderPass","__ZTIN3geo2ar3lib43ParticleFilterConfig_RoadOrientationOptionsE","__ZN3geo2ar3lib67_LowLightImageProcessingConfig_PixelBinningConfig_default_instance_E","__ZTSN3geo2ar3lib9DevConfigE","__ZTVN6proto28internal19ImplicitWeakMessageE","__ZN3geo2ar3lib75_RealDeadReckonedPoseMixerConfig_TransformDifferences_default_instance_ptr_E","__ZTSN3geo2ar3lib30HybridSurfaceElevationProvider10QueryProxyE","__ZTS22VROPrefilterRenderPass","__ZTIN6google3geo2ar2v127PoseLikelihoodFunctionProtoE","__ZN4viro29Node_Geometry_Material_Visual6LinearE","__ZN3geo2ar3lib34_SunAngleOptions_default_instance_E","__ZN6proto28internal15ThreadSafeArena13lifecycle_id_E","__ZN3fLI32FLAGS_default_thread_stack_guardE","__ZN6tflite16logging_internal13MinimalLogger21minimum_log_severity_E","__ZN3geo2ar35_CameraParameters_default_instance_E","__ZN3geo2ar7service39T2QueryTerrainMeshesRequest_class_data_E","_redwood_CameraProfileProto_LogicalCameraInfo_fields","__ZTV11VROGeometry","__ZN3geo2ar56_PositionGaussianDistributionProto_default_instance_ptr_E","__ZN3geo2ar3lib26HttpPostResult_class_data_E","__ZTV9VROPencil","__ZN8tcmalloc17tcmalloc_internal12HookListBase18hooklist_spinlock_E","__ZTS22VROARImperativeSession","__ZTIN4absl14flags_internal8FlagImplE","__ZTI17VROActionAnimated","_FLAGS_dapper_pe_use_regions","__ZTV17VROShaderModifier","__ZTSN8location8bluemoon26UncertaintyPreserverConfigE","__ZTV26VROMaterialSubstrateOpenGL","__ZTI17VROBodyTrackeriOS","__ZTVN3geo2ar7service45T2ResolveAnchorAndLocalizeRequest_CameraImageE","__ZTSN3geo2ar3lib21ParticleTrackingQueueE","__ZTI26VROBodyAnimDataRecorderiOS","__ZTVN4logs5proto3geo2ar13Vector3dProtoE","__ZTSN6proto22io15CordInputStreamE","__ZN4logs5proto3geo2ar12ARCoreConfig5Impl_69_i_give_permission_to_break_this_code_default_arcore_server_endpoint_E","__ZN9PerThread16per_thread_cacheE","__ZTS16VROChoreographer","_FLAGS_noecef_t_device_log_interval","__ZN4logs5proto3geo2ar34_ErrorCountEvent_default_instance_E","_logs_proto_vr_arcore_ArCoreLog_LocalizationInconsistencyEvent_fields","__ZN4viro20Node_Geometry_Source6VertexE","__ZN4logs5proto3geo2ar39_ParticleFilterConfig_default_instance_E","__ZTV21VROVertexBufferOpenGL","__ZTVN4logs5proto3geo2ar25EstimateConfidenceOptionsE","__ZTIN8location8bluemoon24UniformPositionPerturberE","__ZTVN8location8bluemoon22UniformScalarPerturberE","__ZN6google3geo2ar2v127PoseLikelihoodFunctionProto7_table_E","__ZN4absl15RFC1123_no_wdayE","__ZTVN4logs5proto3geo2ar24SmoothedTransformOptionsE","_silk_pitch_contour_NB_iCDF","__ZN6google3geo2ar2v137QueryTerrainMeshesRequest_class_data_E","__ZN3geo2ar3lib37_PoseConfidence_default_instance_ptr_E","__ZTSN3geo2ar14PlaceIdOptionsE","__ZN3geo2ar7service42_LocalAreaParameters_default_instance_ptr_E","__ZTSN8location8bluemoon22RoadOrientationOptionsE","__ZN3geo2ar43PositionProbabilityGridProto_GridPointProto7_table_E","__ZTIN8location8bluemoon36HeadingFromMotionDistributionOptionsE","__ZN6google3geo2ar2v139PlaceLocationSource_Code_internal_data_E","__ZN8location8bluemoon45_BearingTrackingOptions_default_instance_ptr_E","__ZTIN3geo2ar3lib19NetworkEventMetricsE","__ZTVN4logs5proto3geo2ar31FrameRejectReasonEventAggregateE","__ZN4logs5proto3geo2ar43_ParticleFilterConfig_default_instance_ptr_E","__ZTIN6google3geo2ar2v128BatchQueryElevationsResponseE","__ZTV18GeoARPlaneProvider","__ZN3geo2ar35_CameraIntrinsics_default_instance_E","__ZTIN6google8internal7android8location7bluesky7v1beta127GetGridProbabilitiesRequestE","__ZN3geo2ar40RoadRelativeOrientationDistributionProto7_table_E","__ZTI14VROLightingUBO","__ZN4logs5proto3geo2ar66_CameraIntrinsics_CityblockFisheyeDistortion_default_instance_ptr_E","__ZN3geo2ar3lib13LightEstimate7_table_E","__ZTIN3geo2ar3lib15DisplayGeometryE","__ZN4absl14flags_internal17kStrippedFlagHelpE","__ZTIN4base16TraceEntrySourceE","__ZTIN4absl15CommandLineFlagE","__ZN8geostore40FeatureProto_TypeCategory_internal_data_E","__ZN9perftools7tracing8internal11use_regionsE","__ZTSN6google8protobuf8internal16FunctionClosure0E","_redwood_CameraProfileProto_Stream_StreamResolution_fields","__ZN3geo2ar3lib66_ParticleFilterConfig_RoadOrientationOptions_default_instance_ptr_E","__ZTS16VRONormalMapTest","__ZTVN4logs5proto3geo2ar47SmoothedTransformOptions_SimpleSmoothingOptionsE","__ZTIN6proto22io19ZeroCopyInputStreamE","__ZN4viro13Node_Skeleton16kBoneFieldNumberE","__ZTV27VROLayeredSkeletalAnimation","__ZN6google3geo2ar2v133_CircularRegion_default_instance_E","__ZTS14OrientationEKF","__ZTVN3geo2ar3lib25RealDeadReckonedPoseMixerE","__ZTVN6google3geo2ar2v111TerrainMeshE","__ZTI16VROShaderFactory","__ZN4viro30_Node_Matrix_default_instance_E","__ZN4logs5proto3geo2ar54_GnssMeasurementsEvent_GnssClock_default_instance_ptr_E","__ZTVN6proto22io21ByteSourceInputStreamE","__ZTS20VROInputControllerAR","__ZTS9ACMRandom","_logs_proto_vr_arcore_ArCoreLog_IOSDepthStats_DepthCallStatusCount_fields","__ZTS18VROARFrameInertial","__ZTSN3geo2ar7service11CellFacadesE","__ZTI14VROPolygonTest","__ZTVN8location8bluemoon11WifiOptionsE","_redwood_GridCoefficient_fields","__ZTIN3geo2ar3lib51LowLightImageProcessingConfig_GammaCorrectionConfigE","__ZN6google3geo2ar2v135Detection_Visibility_internal_data_E","__ZTV20VROARObjectTargetiOS","_logs_proto_vr_arcore_ArCoreLog_ArCoreInfo_fields","__ZTIN6google8internal7android8location7bluesky4type14LlaCoordinatesE","__ZTS24VROBodyAnimDataReaderiOS","__ZTSN6proto22io17ArrayOutputStreamE","__ZN4logs5proto3geo2ar40_SessionHeartbeatEvent_default_instance_E","__ZTVN3geo2ar7service21T2WarmUpCacheResponseE","__ZN4logs5proto3geo2ar48_EstimateConfidenceOptions_default_instance_ptr_E","__ZTIN4logs5proto3geo2ar18LightEstimateEventE","__ZN3geo2ar3lib15DisplayGeometry7_table_E","__ZTV11VROMaterial","__ZN3geo2ar7service37_LocalizeResult_default_instance_ptr_E","_logs_proto_vr_arcore_ArCoreLog_AnchorMotionStatistics_fields","__ZN4logs5proto3geo2ar12BearingEvent7_table_E","__ZN4logs5proto3geo2ar43_StepDetectionOptions_default_instance_ptr_E","__ZTV22VROObjectRecognizeriOS","__ZN3geo2ar30StepDetectionPerturbationProto7_table_E","__ZTSN3geo2ar17GeodeticPosePriorE","__ZN4logs5proto3geo2ar14BarometerEvent7_table_E","__ZN6google3geo2ar2v113CacheContents7_table_E","__ZTI19GeoARClearcutLogger","__ZTV20VROTextEventDelegate","__ZN3geo2ar7service26T2CheckAvailabilityRequest7_table_E","__ZN6google3geo2ar2v134_LocalizeRequest_default_instance_E","_iPad8_3","__ZN3geo2ar3lib31InertialAnchorFlags_class_data_E","__ZTSN3geo2ar3lib18NetworkMetricsImplE","__ZTVN3geo2ar7service15LocalizeOptionsE","__ZTSN4logs5proto3geo2ar26TrackingFailureReasonEventE","__ZTVN4logs5proto3geo2ar11GeoArLibLogE","__ZN3geo2ar3lib39_Config_NetworkConfig_default_instance_E","_silk_LSFCosTab_FIX_Q12","__ZTV26VROPortalTraversalListener","__ZTV10VROTexture","__ZTIN4logs5proto3geo2ar31QualityFramePriorityQueueConfigE","__ZTSN8location8bluemoon39InertialAnchorWrappedCauchyDistributionE","__ZTVN6google8protobuf14FatalExceptionE","__ZTVN4logs5proto3geo2ar31TerrainAnchorFirstTrackingEventE","__ZTVN3geo2ar7service10AnchorPoseE","__ZTVN6proto22io20ZeroCopyOutputStreamE","__ZN3geo2ar22CovarianceMatrix3Proto7_table_E","__ZN4viro28Node_SkeletalAnimation_Frame21kBoneIndexFieldNumberE","__ZTV30VROInputControllerCardboardiOS","__ZTVN6proto22io24ConcatenatingInputStreamE","__ZTSN4logs5proto3geo2ar25ImageFrameLocalizerConfigE","__ZN8location8bluemoon34_WifiOptions_default_instance_ptr_E","__ZTVN4logs5proto3geo2ar13PoseJumpEventE","__ZN6google3geo2ar2v128BatchQueryElevationsResponse7_table_E","_redwood_CameraProfileProto_fields","__ZN4logs5proto3geo2ar70_CameraIntrinsics_KannalaBrandtFisheyeDistortion_default_instance_ptr_E","__ZN3geo2ar3lib44_ImageFrameLocalizerConfig_default_instance_E","_FLAGS_default_executor","__ZTSN13google_public8protobuf2io18StringOutputStreamE","_logs_proto_vr_arcore_ArCoreLog_DepthManagerCallStats_fields","__ZTVN6google8protobuf3AnyE","__ZTSN6proto22io26CopyingOutputStreamAdaptorE","_silk_stereo_pred_quant_Q13","__ZTVN8location8bluemoon22CarryPoseChangeOptionsE","__ZN4logs5proto3geo2ar23WifiOptions_class_data_E","__ZN4logs5proto3geo2ar23SensorCount_class_data_E","__ZN3geo2ar7service33_ElevationQuery_default_instance_E","__ZN3geo2ar7service49_T2CheckAvailabilityRequest_default_instance_ptr_E","__ZTI9ACMRandom","__ZN3geo2ar3lib32ParticleFilterConfig_class_data_E","__ZTSN4logs5proto3geo2ar31GnssMeasurementsEvent_GnssClockE","__ZN4logs5proto3geo2ar45_CovarianceMatrix6Proto_default_instance_ptr_E","__ZTS14VROTypefaceiOS","__ZTVN3geo2ar14ReferenceFrameE","__ZTVN6google3geo2ar2v120StartSessionResponseE","__ZN4viro21Node_Geometry_Element16kDataFieldNumberE","__ZTSN4logs5proto3geo2ar26UncertaintyPreserverConfigE","__ZN3geo2ar3lib67_RealDeadReckonedPoseMixerConfig_ReinitConditions_default_instance_E","__ZTVN8location8bluemoon14inertialanchor40EmpiricalHeadingUncertaintyModelFeaturesE","__ZN4logs5proto3geo2ar36HeadingFromMotionDistributionOptions7_table_E","__ZTIN4logs5proto3geo2ar26TerrainAnchorResolvedEventE","__ZTV18VROPBRTexturedTest","__ZTVN6google8internal7android8location7bluesky7v1beta19GridPointE","__ZN6proto26bridge22MessageSet_class_data_E","__ZN4viro22Node_Geometry_Material8ConstantE","_FLAGS_nothreaded_logging","__ZTV8VROPlane","__ZTSN6icu_7710AppendableE","__ZN4logs5proto3geo2ar34CameraIntrinsics_FisheyeDistortion7_table_E","__ZTS10GeoARClock","_silk_NLSF_interpolation_factor_iCDF","__ZTSN4logs5proto3geo2ar16CameraIntrinsicsE","__ZTI11VROMaterial","__ZTSN6google8internal7android8location7bluesky4type11DoubleValueE","__ZTSN7strings8ByteSinkE","__ZN3geo2ar8geometry8Triangle7_table_E","__ZN4viro22Node_Geometry_Material20kEmissionFieldNumberE","__ZN4logs5proto3geo2ar52_LowLightImageProcessingConfig_default_instance_ptr_E","__ZTIN8location8bluemoon35ReinitializingDistributionInterfaceE","__ZTSN4absl12log_internal10LogMessage11OstreamViewE","__ZTI19VROARAnchorInertial","__ZN4viro21Node_Geometry_Element13Primitive_MINE","__ZN3geo2ar3lib25LightEstimate_class_data_E","__ZTSN4logs5proto3geo2ar17SessionStartEventE","__ZN3geo2ar3lib67_ClearcutLoggingConfig_SessionHeartbeatConfig_default_instance_ptr_E","__ZTSN3geo2ar22CovarianceMatrix3ProtoE","__ZN4logs5proto3geo2ar33ParticleFilterEvent_TrackedAnchor7_table_E","__ZN3geo2ar3lib47_ClientConfig_RenderingConfig_default_instance_E","__ZTVN6google3geo2ar2v119RigidTransformProtoE","__ZTI35btSequentialImpulseConstraintSolver","__ZN4logs5proto3geo2ar41_BearingTrackingOptions_default_instance_E","__ZTVN8location8bluemoon20SunAngleDistributionE","__ZTIN4logs5proto3geo2ar14BlueskyOptionsE","__ZTIN3geo2ar8geometry4MeshE","__ZTVN6google8internal7android8location7bluesky7v1beta128GetGridProbabilitiesResponseE","__ZTV36GeoARPlatformAnchorProviderWithARKit","__ZTIN6google3geo2ar2v120QueryFacadesResponseE","__ZTIN4logs5proto3geo2ar9GnssEventE","__ZN3geo2ar3lib28CameraModelProto_class_data_E","__ZTVN7vraudio17VrAudioEngineImplE","__ZTSN4logs5proto3geo2ar25TerrainAnchorCreatedEventE","__ZN3geo2ar51PositionAndYawGaussianDistributionProto_class_data_E","__ZN6tflite4impl11Interpreter24kTensorsReservedCapacityE","_AppleTV3_1","__ZTSN3geo2ar7service21T2WarmUpCacheResponseE","_kDebugSortOrderFrameFrequency","__ZN4util29ErrorSpacePayload_class_data_E","__ZN15inertial_anchor9estimator7bearing32CarryChangeDetectorConfiguration33kMinValidFallingToRisingEdgeRatioE","__ZTSN6google3geo2ar2v14MeshE","__ZN6google3geo2ar2v111FacadesCell7_table_E","_iPod2_1","_redwood_ImuMeasurementsProto_fields","__ZTVN3ion4base9AllocatorE","__ZN3geo2ar3lib16CameraModelProto7_table_E","__ZTSN6google8internal7android8location7bluesky4type14LlaCoordinatesE","__ZTSN3geo2ar3lib24CloudLocalizationAlignerE","_redwood_CameraProfileProto_LensShadingModel_fields","__ZN4logs5proto3geo2ar38_SunAngleOptions_default_instance_ptr_E","__ZN3geo2ar28_Detection_default_instance_E","__ZN6google3geo2ar2v128_Point_default_instance_ptr_E","__ZN3geo2ar3lib21DevConfig_class_data_E","__ZTI15VROParticleTest","__ZTI19GeoAREncodableImage","__ZN6google3geo2ar2v124CheckAvailabilityRequest7_table_E","__ZTVN4logs5proto3geo2ar49RealDeadReckonedPoseMixerConfig_UncertaintyRatiosE","__ZN4logs5proto3geo2ar22CovarianceMatrix3Proto7_table_E","__ZTIN3geo2ar3lib14PoseConfidenceE","__ZN4logs5proto3geo2ar33ClearcutLoggingConfig_class_data_E","__ZTVN6tflite9profiling12RootProfilerE","__ZTSN6google3geo2ar2v127PoseLikelihoodFunctionProtoE","_logs_proto_vr_arcore_ArCoreLog_SessionGetSupportedCameraConfigsWithFilterEvent_fields","_redwood_PixelPositionArrayProto_fields","__ZN3geo2ar7service26LocalizeResult_class_data_E","__ZTV10VROFBXTest","__ZN4logs5proto3geo2ar47_LocalizationRequestEvent_default_instance_ptr_E","__ZTIN3geo2ar32CarryPoseChangePerturbationProtoE","__ZTSN6google3geo2ar2v118WarmUpCacheRequestE","__ZTVN13google_public8protobuf11MessageLiteE","__ZN3geo2ar7service9Elevation7_table_E","__ZTIN8location8bluemoon26UncertaintyPreserverConfigE","__ZTV19VROCameraTextureiOS","__ZTV10ThreadPool","__ZN9perftools7tracing8internal17barrier_salt_initE","__ZTI22VROBodyRecognitionTest","__ZN3geo2ar3lib31NetworkEventMetrics_DataMetrics7_table_E","__ZTVN4logs5proto3geo2ar24LocalizationRequestEventE","__ZTV13VROPortalTest","__ZTV18VROParticleEmitter","__ZTSN4logs5proto3geo2ar18LightEstimateEventE","__ZTI36GeoARPlatformAnchorProviderWithARKit","__ZN3geo2ar51_PositionProbabilityGridProto_default_instance_ptr_E","__ZN6google3geo2ar2v113LocationProto7_table_E","__ZTSN6proto22io18CopyingInputStreamE","_ViroKitVersionNumber","__ZN4viro22Node_SkeletalAnimation16kNameFieldNumberE","_utf8_countTrailBytes_77","__ZN3geo2ar7service64_T2ResolveAnchorAndLocalizeRequest_CameraImage_default_instance_E","__ZTIN3geo2ar3lib28GaussianLocalizationReporterE","__ZTIN8location8bluemoon40HeadingFromMotionYawGaussianDistributionE","__ZTI10VROSurface","__ZN3geo2ar44BearingTrackingPerturbationProto_class_data_E","__ZN4viro22Node_SkeletalAnimation20kDurationFieldNumberE","__ZN4viro10Node_Light4SpotE","_Watch2_4","__ZTIN6tflite8internal18CallbackOpResolverE","__ZTV24VROPolylineEventDelegate","__ZN3geo2ar3lib45RealDeadReckonedPoseMixerConfig_Uncertainties7_table_E","__ZTSN3geo2ar3lib62RealDeadReckonedPoseMixerConfig_DeadReckonedPoseEstimateConfigE","_FLAGS_util_status_save_stack_trace","__ZN4viro28Node_SkeletalAnimation_Frame26kLocalTransformFieldNumberE","__ZTIN6tflite9telemetry23TfLiteTelemetryProfilerE","__ZTSN3geo2ar3lib19NetworkEventMetricsE","_silk_CB_lags_stage3","__ZN6google3rpc25_Status_default_instance_E","__ZTV10CordReader","__ZTIN4absl13time_internal4cctz14ZoneInfoSourceE","__ZN4viro29Node_Geometry_Material_Visual6RepeatE","__ZN4viro22Node_Geometry_Material20kMultiplyFieldNumberE","__ZN3geo2ar3lib28Project3x3Config_class_data_E","_logs_proto_vr_arcore_ArCoreLog_UserMotionStatistics_fields","_logs_proto_vr_arcore_ArCoreLog_StopRecordingEvent_fields","__ZN3geo2ar3lib63LowLightImageProcessingConfig_GammaCorrectionConfig_class_data_E","_shaderLog","__ZTV16VROChoreographer","_google_arcorecloudanchor_v1beta2_QuaternionProto_fields","_silk_lsb_iCDF","__ZN4base13process_state12kAppInitDoneE","__ZN6google8internal7android8location7bluesky7v1beta151_GetGridProbabilitiesResponse_default_instance_ptr_E","__ZTSN4logs5proto3geo2ar22FrameRejectReasonEventE","__ZTIN8location8bluemoon22BearingTrackingOptionsE","__ZTIN4logs5proto3geo2ar24HeadingFromMotionOptionsE","__ZN3geo2ar7service6Anchor7_table_E","__ZTV18VRODriverOpenGLiOS","__ZN4logs5proto3geo2ar48RealDeadReckonedPoseMixerConfig_ReinitConditions7_table_E","__ZTVN6google8protobuf9TimestampE","__ZN4viro4Node17kScaleFieldNumberE","_FLAGS_noerror_type_count_log_interval","__ZTIN6thread8ExecutorE","__ZN4viro29Node_Geometry_Material_Visual13ClampToBorderE","__ZTSN3geo2ar3lib17RealFrameSnapshotE","__ZTSN3geo2ar3lib44ClearcutLoggingConfig_SessionHeartbeatConfigE","__ZN4viro21Node_Geometry_Element13TriangleStripE","__ZTIN4logs5proto3geo2ar37GnssMeasurementsEvent_GnssMeasurementE","__ZTIN6google3rpc6StatusE","_Watch4_4","_kGeoARFrameEvent","__ZTVN4base14TraceEntrySinkE","__ZTS22VROARDraggableNodeTest","__ZN4logs5proto3geo2ar48_LowLightImageProcessingConfig_default_instance_E","__ZTVN4logs5proto3geo2ar28ParticleTrackingQueueOptionsE","__ZN4logs5proto3geo2ar36_Vector3dProto_default_instance_ptr_E","_silk_Lag_range_stage3","__ZN6google3geo2ar2v137_WarmUpCacheRequest_default_instance_E","_logs_proto_vr_arcore_ArCoreLog_DeviceProfileDownloadEvent_fields","__ZN3geo2ar46_PoseLikelihoodFunctionProto_default_instance_E","__ZTI19VROARImageTargetiOS","__ZN4viro20Node_Geometry_Source12Semantic_MINE","__ZN4base8internal17KernelVersionInfo21kDefaultKernelVersionE","__ZN4logs5proto3geo2ar37LocalizationResponseEvent_class_data_E","__ZN4logs5proto3geo2ar34_GeoArLibLog_default_instance_ptr_E","_iPhone10_3","__ZTVN3geo2ar3lib16Project3x3ConfigE","__ZN4logs5proto3geo2ar50_PoseLikelihoodFunctionProto_default_instance_ptr_E","__ZN3geo2ar3lib72_RealDeadReckonedPoseMixerConfig_UncertaintyRatios_default_instance_ptr_E","__ZN6google3geo2ar2v120QueryFacadesResponse7_table_E","__ZTSN4logs5proto3geo2ar24CloudLocalizationOptionsE","__ZN6google8internal7android8location7bluesky7v1beta160GetGridProbabilitiesResponse_ObservationResponse_class_data_E","__ZTVN6tflite9telemetry23TfLiteTelemetryProfilerE","__ZN3fLI34FLAGS_nodefault_thread_stack_guardE","__ZTV15VROPhysicsWorld","__ZN4logs5proto3geo2ar23SessionStateChangeEvent7_table_E","__ZTVN3geo2ar7service6AnchorE","__ZTIN3geo2ar3lib23BearingTrackingReporterE","__ZN4viro22Node_Geometry_Material7ReplaceE","__ZN4logs5proto3geo2ar31ParticleFilterEvent_class_data_E","__ZN4viro10Node_Light38kAttenuationFalloffExponentFieldNumberE","__ZN3geo2ar7service61T2ResolveAnchorAndLocalizeResponse_ResolvedAnchor_class_data_E","__ZN4viro20Node_Geometry_Source20kSemanticFieldNumberE","__ZTIN3geo2ar3lib20LocalizationProviderE","__ZN4logs5proto3geo2ar38_InertialAnchorFlags_default_instance_E","__ZTIN7tinyobj18MaterialFileReaderE","__ZTSN3geo2ar7service26T2CheckAvailabilityRequestE","__ZN4viro22Node_KeyframeAnimation20kDurationFieldNumberE","__ZTS10VROOBJTest","__ZN8location8bluemoon37EstimateConfidenceOptions_class_data_E","_redwood_CameraProfileProto_DistortionOpencv_fields","__ZTVN8location8bluemoon29BoundedUniformScalarPerturberE","_gNumAlignedAllocs","__ZTS24VROBodyTrackerController","__ZTVN4logs5proto3geo2ar15ErrorCountEventE","__ZN4logs5proto3geo2ar38_RigidTransformProto_default_instance_E","__ZTIN4viro22Node_KeyframeAnimationE","__ZTV10VROMorpher","__ZN3geo2ar35InertialAnchorPoseDistributionProto7_table_E","__ZTSN6google8protobuf14FatalExceptionE","__ZN4logs5proto3geo2ar15ErrorCountEvent7_table_E","_FLAGS_nounique_id_seed","__ZTSN6google3geo2ar2v125CheckAvailabilityResponseE","__ZTI14VROActionTimed","__ZTIN3geo2ar3lib24FacadesServiceV1ApiProxyE","__ZTV14VROLightingUBO","_kSkeleton","__ZTVN3geo2ar35InertialAnchorPoseDistributionProtoE","__ZTSN3geo2ar7service15LocalizeOptionsE","__ZN6google3geo2ar2v130_FacadesCell_default_instance_E","__ZTVN6icu_7713UnicodeStringE","__ZTSN3geo2ar11OrientationE","__ZTIN3geo2ar3lib45RealDeadReckonedPoseMixerConfig_UncertaintiesE","__ZN4logs5proto3geo2ar34RoadOrientationOptions_class_data_E","__ZTS11VROTriangle","__ZTTN3geo2ar3lib19ActualSurfaceAnchorE","__ZTS28VROFrameSynchronizerInternal","_logs_proto_vr_arcore_ArCoreLog_SessionUpdateAvailableEvent_fields","__ZN4logs5proto3geo2ar15NightTimeConfig7_table_E","__ZN6google3geo2ar2v163_CloudLocalizationLikelihoodFunctionProto_default_instance_ptr_E","__ZN4logs5proto3geo2ar45_TrackingFailureReasonEvent_default_instance_E","__ZN3geo2ar7service30T2LocalizeResponse_class_data_E","__ZN3geo2ar7service33_LocalizeResult_default_instance_E","__ZN4viro22Node_Geometry_Material7LambertE","__ZTVN4viro4NodeE","_iPhone10_2","__ZTS13VROVectorizer","__ZTSN3geo2ar3lib51LowLightImageProcessingConfig_GammaCorrectionConfigE","__ZN3geo2ar3lib27SunAngleOptions_class_data_E","__ZTI20VROPoseFilterLowPass","_iPhone1_2","__ZN6google8internal7android8location7bluesky7v1beta167_GetGridProbabilitiesResponse_ObservationResponse_default_instance_E","_iPhone9_3","__ZTTN7strings13OStringStreamE","_redwood_CameraProfileProto_CameraConfigEntry_CameraConfigRationalValueArray_fields","__ZTIN3geo2ar7service9ElevationE","_redwood_CameraProfileProto_CameraConfigEntry_fields","__ZTIN4logs5proto3geo2ar52RealDeadReckonedPoseMixerConfig_TransformDifferencesE","__ZN8location8bluemoon22BearingTrackingOptions7_table_E","__ZN4logs5proto3geo2ar33InertialAnchorOptions_class_data_E","__ZN4viro22Node_KeyframeAnimation17kFrameFieldNumberE","__ZN4logs5proto3geo2ar13LightEstimate7_table_E","__ZN3geo2ar61HorizontalPositionAndYawGaussianDistributionProto_class_data_E","__ZTVN3ion4base8DateTimeE","__ZN8location8bluemoon21InertialAnchorOptions7_table_E","__ZTS17VROFrameScheduler","__ZN4logs5proto3geo2ar62_ParticleFilterConfig_RoadOrientationOptions_default_instance_E","__ZTSN13google_public8protobuf7ClosureE","__ZN4logs5proto3geo2ar86ClearcutLoggingConfig_PoseStabilityMonitorConfig_PoseJumpLoggingThresholds_class_data_E","__ZTVN3geo2ar3lib48ParticleFilterConfig_PositionAndYawFilterOptionsE","__ZTSN4logs5proto3geo2ar33NetworkEventAggregate_DataMetricsE","__ZN3geo2ar3lib43ParticleFilterConfig_RoadOrientationOptions7_table_E","__ZTIN3geo2ar43PositionProbabilityGridProto_GridPointProtoE","__ZTIN3geo2ar3lib45AdaptiveImageFrameLocalizerConfig_PitchConfigE","__ZTSN3geo2ar3lib19ActualSurfaceAnchorE","__ZN3geo2ar3lib56_NetworkEventMetrics_TimingMetrics_default_instance_ptr_E","__ZN6google8internal7android8location7bluesky4type10Int64Value7_table_E","__ZTVN7strings22UncheckedArrayByteSinkE","__ZTIN2ar5image14ImageBlockDataE","__ZTS17VROAnimationChain","__ZN3geo2ar46CameraIntrinsics_FisheyeDistortion_class_data_E","__ZTIN7strings15ArrayByteSourceE","__ZTSN8location8bluemoon25EstimateConfidenceOptionsE","_fixed_invtbl8","__ZTSN3geo2ar3lib19ActualSurfaceAnchor20ResolvedStateHandlerE","__ZTSN3geo2ar7service21LocalizeResult_ResultE","__ZN2S28internal12kFaceUVWAxesE","__ZN8location8bluemoon34CarryPoseChangeOptions_class_data_E","__ZTSN3geo2ar3lib39ClearcutLoggingConfig_FrameRejectConfigE","__ZTSN6google3geo2ar2v135CloudLocalizationServiceResultProtoE","__ZN4logs5proto3geo2ar56_InertialAnchorReInitCallbackEvent_default_instance_ptr_E","_kBodyAnimInitModelTransform","__ZTSN3geo2ar7service17T2LocalizeRequestE","_FLAGS_noundefok","__ZTVN4logs5proto3geo2ar31RealDeadReckonedPoseMixerConfigE","__ZN3geo2ar47CameraIntrinsics_KannalaBrandtFisheyeDistortion7_table_E","__ZN4jpeg9BitReader5kLog2E","__ZN3geo2ar7service40T2QueryTerrainMeshesResponse_class_data_E","__ZTIN8location8bluemoon11GridSamplerE","__ZN6google3geo2ar2v131QueryFacadesOptions_class_data_E","__ZN3geo2ar7service32_Elevation_default_instance_ptr_E","__ZTVN6google3geo2ar2v14MeshE","__ZTSN6google3geo2ar2v125QueryTerrainMeshesRequestE","__ZN3geo2ar3lib14kWorldTGlWorldE","__ZTI22VRORendererTestHarness","_FLAGS_silent_init","__ZTSN4logs5proto3geo2ar21NetworkEventAggregateE","__ZN3geo2ar41RoadRelativeOrientationYawPredictionProto7_table_E","__ZTSN4logs5proto3geo2ar14BlueskyOptionsE","__ZTIN3geo2ar3lib28ParticleTrackingQueueOptionsE","__ZTVN3geo2ar3lib15DisplayGeometryE","_silk_NLSF_EXT_iCDF","_kDefaultSemanticsOutputTensorIndex","__ZTV15VROFrustumPlane","__ZN4logs5proto3geo2ar45_TerrainAnchorResolvedEvent_default_instance_E","__ZTIN3geo2ar7service33T2ResolveAnchorAndLocalizeRequestE","__ZN4viro22Node_Geometry_Material23LightingModel_ARRAYSIZEE","__ZN6google3geo2ar2v128_Elevation_default_instance_E","__ZN4viro13Node_Geometry16kDataFieldNumberE","__ZN3geo2ar3lib54_NetworkEventMetrics_DataMetrics_default_instance_ptr_E","__ZTSN3geo2ar3lib52RealDeadReckonedPoseMixerConfig_TransformDifferencesE","__ZTIN13google_public8protobuf2io20ZeroCopyOutputStreamE","__ZTVN8location8bluemoon40HeadingFromMotionYawGaussianDistributionE","_FLAGS_nolight_estimate_log_interval","__ZTSN3geo2ar34CameraIntrinsics_FisheyeDistortionE","__ZN4logs5proto3geo2ar54UncertaintyPreserverConfig_PerSignalConfig_class_data_E","__ZTVN3geo2ar3lib48LowLightImageProcessingConfig_PixelBinningConfigE","__ZTSN7strings22UncheckedArrayByteSinkE","_silk_Resampler_1_3_COEFS","__ZN6google3geo2ar2v118WarmUpCacheRequest7_table_E","__ZTIN6google3geo2ar2v120PoseEstimationResultE","__ZN4viro29_Node_Light_default_instance_E","__ZN4viro32Node_Skeleton_BoneAttachmentPair17kValueFieldNumberE","_redwood_DeviceProfile2Proto_fields","_iPad3_6","__ZTIN4logs5proto3geo2ar45CameraIntrinsics_CityblockFisheyeV2DistortionE","_logs_proto_vr_arcore_ArCoreLog_LightEstimateEvent_fields","__ZTI24VROMaterialShaderBinding","__ZTSN3geo2ar3lib6ConfigE","__ZTIN6google8internal7android8location7bluesky4type9TimestampE","__ZTVN3geo2ar3lib23BearingTrackingReporterE","__ZTS12VROTorusKnot","__ZTIN3geo2ar3lib12GnssReporterE","__ZTI26VROMonocularDepthEstimator","_logs_proto_vr_arcore_ArCoreLog_SummaryStats_fields","__ZN6google8internal7android8location7bluesky7v1beta115CompactGridEcef7_table_E","__ZTVN4logs5proto3geo2ar36HeadingFromMotionDistributionOptionsE","_FLAGS_debugger_command","__ZTS11VROSoundGVR","__ZTIN6google3geo2ar2v111FacadesCellE","__ZN4logs5proto3geo2ar31InertialAnchorFlags_class_data_E","__ZN3geo2ar3lib59SmoothedTransformOptions_SimpleSmoothingOptions_class_data_E","__ZN4logs5proto3geo2ar50_RealDeadReckonedPoseMixerConfig_default_instance_E","__ZN4absl16numbers_internal8kHexCharE","_iPad5_2","__ZTIN13google_public8protobuf14FatalExceptionE","_kGeoARTimeToLocation","__ZN4logs5proto3geo2ar32_Vector3dProto_default_instance_E","__ZTI10RandomBase","__ZTSN3geo2ar7service27T2QueryTerrainMeshesRequestE","__ZTSN13google_public8protobuf2io15GzipInputStreamE","__ZN4viro32_Node_Skeleton_default_instance_E","__ZN6google8internal7android8location7bluesky4type34_DoubleValue_default_instance_ptr_E","__ZN6google3geo2ar2v137WalkingHazardArea_Type_internal_data_E","__ZTS26VROMonocularDepthEstimator","__ZTIN4viro10Node_LightE","__ZTV23btGeneric6DofConstraint","__ZTIN8location8bluemoon22GaussianAnglePerturberE","__ZTIN7strings20CheckedArrayByteSinkE","__ZN14VROPhysicsBody10kStaticTagE","__ZTIN3geo2ar22ReferenceFrameAndStateE","__ZN4logs5proto3geo2ar43RealDeadReckonedPoseMixerConfig_class_data_E","__ZN4util15status_internal14kMessageSetUrlE","__ZTVN4logs5proto3geo2ar17SessionStartEventE","_redwood_Point3dInMeter_fields","__ZTIN4logs5proto3geo2ar25TerrainAnchorCreatedEventE","__ZN4viro10Node_Light26kSpotInnerAngleFieldNumberE","__ZTVN3geo2ar16CameraParametersE","__ZN4logs5proto3geo2ar66_ParticleFilterConfig_RoadOrientationOptions_default_instance_ptr_E","__ZN4logs5proto3geo2ar27ErrorCountEvent_class_data_E","__ZN4logs5proto3geo2ar42TimedImageFrameLocalizerConfig_class_data_E","_VPSAPIErrorDomain","__ZTVN6google3geo2ar2v125QueryTerrainMeshesRequestE","__ZN6google3geo2ar2v132_LocationProto_default_instance_E","__ZTSN4viro4NodeE","__ZN3geo2ar26PlaceIdOptions_class_data_E","__ZN6google3geo2ar2v143_FacadesCacheContents_default_instance_ptr_E","__ZTSN4logs5proto3geo2ar44EmpiricalHeadingUncertaintyModelParametersV1E","_logs_proto_vr_arcore_ArCoreLog_NewPlaneDetectionEvent_fields","__ZTV26VROVideoTextureCacheOpenGL","__ZN4logs5proto3geo2ar57CameraIntrinsics_CityblockFisheyeV2Distortion_class_data_E","__ZTIN6icu_7713UnicodeStringE","__ZN6google3geo2ar2v125CacheContents_class_data_E","__ZN3geo2ar3lib20T2Config_class_data_E","__ZN6google8protobuf26_Any_default_instance_ptr_E","__ZN8geostore26FeatureIdProto_class_data_E","__ZTSN4logs5proto3geo2ar19RigidTransformProtoE","_kGeoARTimeToLocalizeRequest","__ZTIN6google3geo2ar2v127BatchQueryElevationsRequestE","__ZTVN3geo2ar10DetectionsE","__ZTSN8location8bluemoon29BoundedUniformScalarPerturberE","__ZTV17VROBodyTrackeriOS","__ZN3geo2ar3lib12ClientConfig7_table_E","__ZTSN4logs5proto3geo2ar22BearingTrackingOptionsE","_FLAGS_nostacktrace_skip_waiting_threads","__ZTSN6google3geo2ar2v120PoseEstimationResultE","__ZTS26VROPortalTraversalListener","__ZTV14VROPolygonTest","__ZTVN7vraudio21ResonanceAudioApiImplE","__ZTS10ThreadPool","__ZTIN4viro28Node_KeyframeAnimation_FrameE","__ZN4logs5proto3geo2ar36_PoseJumpEvent_default_instance_ptr_E","_google_arcorecloudanchor_v1beta2_CameraIntrinsics_FisheyeDistortion_fields","_logs_proto_vr_arcore_ArCoreLog_SixDofSessionStats_fields","__ZN3geo2ar31RigidTransformProto_class_data_E","__ZN4viro41_Node_KeyframeAnimation_default_instance_E","__ZTVN3geo2ar3lib19ActualSurfaceAnchor20ResolvedStateHandlerE","__ZN5sadie10HrtfAssets9kAssetMapE","__ZN3geo2ar3lib44ClearcutLoggingConfig_SessionHeartbeatConfig7_table_E","__ZTVN6google8internal7android8location7bluesky4type10Int64ValueE","__ZTS10VROSurface","__ZTV8VROScene","__ZTVN6google8protobuf8DurationE","__ZTIN8location8bluemoon21PerturbationInterfaceE","_kYvuH709Constants","__ZN4logs5proto3geo2ar51ClearcutLoggingConfig_FrameRejectConfig_class_data_E","__ZTVN7vraudio14FoaRotatorNodeE","__ZN4logs5proto3geo2ar22ErrorCount_class_data_E","__ZN3geo2ar3lib47SmoothedTransformOptions_SimpleSmoothingOptions7_table_E","__ZN4viro22Node_Geometry_Material27kFresnelExponentFieldNumberE","__ZTSN3geo2ar40RoadRelativeOrientationDistributionProtoE","_FLAGS_helpxml","__ZN13google_public8protobuf8internal14WireFormatLite21kWireTypeForFieldTypeE","__ZN6proto28internal26fixed_address_empty_stringE","__ZN4logs5proto3geo2ar43_SmoothedTransformOptions_default_instance_E","__ZTI23VROARObjectTrackingTest","__ZN3geo2ar39_CameraParameters_default_instance_ptr_E","__ZTSN6proto28internal19ImplicitWeakMessageE","__ZTSN3geo2ar3lib43ParticleFilterConfig_RoadOrientationOptionsE","__ZTVN7vraudio18BufferedSourceNodeE","__ZN3geo2ar7service38T2CheckAvailabilityRequest_class_data_E","__ZTV18VROBodyTrackerYolo","__ZN4logs5proto3geo2ar20ParticleFilterConfig7_table_E","__ZTVN4logs5proto3geo2ar31GnssMeasurementsEvent_GnssClockE","_logs_proto_vr_arcore_ArCoreLog_SixDofSessionStats_MapStats_fields","__ZTS21VROTypefaceCollection","__ZTSN8location8bluemoon26InertialAnchorDistributionE","__ZTIN4logs5proto3geo2ar21SessionHeartbeatEventE","__ZN6google8internal7android8location7bluesky4type38_EcefCoordinates_default_instance_ptr_E","__ZTIN4logs5proto3geo2ar12ARCoreConfigE","__ZTSN3geo2ar3lib48ClearcutLoggingConfig_PoseStabilityMonitorConfigE","__ZN6google8protobuf8internal13shutdown_dataE","__ZN3geo2ar29GeodeticPosePrior_class_data_E","__ZN3geo2ar3lib47_SmoothedTransformOptions_default_instance_ptr_E","__ZTIN6proto22io20ByteSinkOutputStreamE","__ZN3geo2ar3lib68_AdaptiveImageFrameLocalizerConfig_PitchConfig_default_instance_ptr_E","_kYuv2020Constants","__ZTV14VROParticleUBO","__ZN6proto28internal11kZeroBufferE","__ZN6google3geo2ar2v157BuildingLevels_Level_LevelChangePoint_Type_internal_data_E","__ZTSN4logs5proto3geo2ar20ParticleFilterConfigE","_silk_stereo_pred_joint_iCDF","__ZTIN3geo2ar7service20T2WarmUpCacheRequestE","__ZTIN6google3geo2ar2v114ElevationQueryE","_iPhone2_1","__ZN3geo2ar3lib53_TimedImageFrameLocalizerConfig_default_instance_ptr_E","__ZN3geo2ar7service29T2BatchQueryElevationsRequest7_table_E","__ZN6google8internal7android8location7bluesky7v1beta148GetGridProbabilitiesResponse_ObservationResponse7_table_E","__ZTSN6tflite17MutableOpResolverE","__ZTIN4logs5proto3geo2ar28ParticleTrackingQueueOptionsE","__ZTVN3geo2ar3lib21ParticleTrackingQueueE","__ZN3geo2ar23Orientation_class_data_E","__ZN6icu_7711StringPiece4nposE","__ZTVN3geo2ar3lib22BearingTrackingWrapperE","_kDefaultSemanticParams","__ZN3geo2ar28CameraParameters_class_data_E","__ZN3fLI33FLAGS_nodefault_thread_stack_sizeE","__ZTSN4absl15CommandLineFlagE","__ZN4logs5proto3geo2ar47_SmoothedTransformOptions_default_instance_ptr_E","__ZN4logs5proto3geo2ar43_LocalizationRequestEvent_default_instance_E","__ZTVN6google8internal7android8location7bluesky4type14LlaCoordinatesE","__ZTVN7vraudio8SinkNodeE","__ZTI20VROSkeletalAnimation","_iPad4_1","__ZTV17VROActionPerFrame","__ZTI14VROHeadTracker","__ZTS10VROFBXTest","__ZTCN3geo2ar3lib16FixedEarthAnchorE0_NS1_19EarthRelativeAnchorE","__ZN3geo2ar50_PoseLikelihoodFunctionProto_default_instance_ptr_E","__ZN4viro20Node_Geometry_Source11BoneWeightsE","__ZN4viro22Node_Geometry_Material19kDiffuseFieldNumberE","__ZTSN6tflite8resource20InitializationStatusE","__ZN4viro10Node_Light19LightType_ARRAYSIZEE","__ZN4logs5proto3geo2ar12ARCoreConfig7_table_E","_logs_proto_vr_arcore_ArCoreLog_TransformationProto_fields","__ZTS11VROPolyline","__ZTI19VROStereoscopicTest","__ZN4viro4Node20kSkeletonFieldNumberE","__ZN3geo2ar8geometry23_Mesh_default_instance_E","__ZTIN3geo2ar30StepDetectionPerturbationProtoE","__ZN6google8internal7android8location7bluesky7v1beta127GetGridProbabilitiesRequest7_table_E","__mpiiTypesToJointTypes","__ZN3geo2ar3lib31QualityFramePriorityQueueConfig7_table_E","__ZN3geo2ar3lib24ClientConfig_class_data_E","__ZTIN8location8bluemoon39InertialAnchorWrappedCauchyDistributionE","__ZTI17VROPoseFilterEuro","__ZTI16VROBodyPlayeriOS","__ZTIN4util11StatusProtoE","__ZTSN6google8protobuf3AnyE","_logs_proto_vr_arcore_ArCoreLog_FaceMeshFramerateChange_fields","__ZN4logs5proto3geo2ar41_FrameRejectReasonEvent_default_instance_E","__ZN4viro32Node_Skeleton_BoneAttachmentPair15kKeyFieldNumberE","__ZN6google8internal7android8location7bluesky4type21GnssClock_class_data_E","__ZN15VROPhysicsShape16kAutoCompoundTagE","_Watch3_2","_redwood_CompactKeyframeStateProto_fields","__ZN4logs5proto3geo2ar22BearingTrackingOptions7_table_E","__ZTSN3geo2ar3lib15DisplayGeometryE","__ZTIN3geo2ar3lib19BasicEarthTrackableE","__ZN4util43_NonMessageSetPayload_default_instance_ptr_E","__ZN4logs5proto3geo2ar64_CameraIntrinsics_CityblockFisheyeV2Distortion_default_instance_E","__ZN4logs5proto3geo2ar45NetworkEventAggregate_DataMetrics_class_data_E","__ZTIN6google8internal7android8location7bluesky7v1beta146GetGridProbabilitiesRequest_ObservationRequestE","__ZN4logs5proto3geo2ar35NetworkEventAggregate_TimingMetrics7_table_E","__ZN4absl13base_internal16premunmap_hooks_E","__ZN3geo2ar3lib32_DebugPose_default_instance_ptr_E","__ZTVN6google3geo2ar2v113LocationProtoE","__ZTSN6google3geo2ar2v111FacadesCellE","__ZTSN6google8internal7android8location7bluesky7v1beta127GetGridProbabilitiesRequestE","__ZN4logs5proto3geo2ar30RealDeadReckonedPoseMixerEvent7_table_E","__ZTIN3geo2ar7service17T2LocalizeRequestE","__ZTV23VROIrradianceRenderPass","__ZTVN3geo2ar3lib24CloudLocalizationAlignerE","_redwood_CompactCameraImageProto_fields","__ZN4logs5proto3geo2ar62_ClearcutLoggingConfig_FrameRejectConfig_default_instance_ptr_E","__ZTI22VROARCameraPrerecorded","__ZN6proto22io16CodedInputStream24default_recursion_limit_E","_kDefaultHeadingAccuracy","__ZTVN4base21SecurityContextHandle20InternalSecurityBaseE","__ZTIN4logs5proto3geo2ar31TerrainAnchorFirstTrackingEventE","__ZTV25VROImagePostProcessOpenGL","__ZTIN4logs5proto3geo2ar22BearingTrackingOptionsE","__ZN6google3geo2ar2v121Elevation_class_data_E","_iPhone11_8","__ZN6google3geo2ar2v140PreprocessingOptions_Mode_internal_data_E","__ZTSN8tcmalloc20AddressRegionFactoryE","__ZTSN13google_public8protobuf2io22LazyStringOutputStreamE","__ZTIN4logs5proto3geo2ar15ErrorCountEventE","__ZTSN3geo2ar3lib18FrameRejectReasonsE","__ZTIN4logs5proto3geo2ar48ClearcutLoggingConfig_PoseStabilityMonitorConfigE","__ZN6google3geo2ar2v125_LatLng_default_instance_E","__ZN4logs5proto3geo2ar16SensorCountEvent7_table_E","__ZTI8MTRandom","__ZN3geo2ar49_StepDetectionPerturbationProto_default_instance_E","_iPad3_1","_logs_proto_vr_arcore_ArCoreLog_TargetFpsRangeSwitchEvent_fields","__ZTVN3geo2ar3lib19BasicEarthTrackableE","__ZN11RunInThread9instance_E","__ZN8location8bluemoon36CloudLocalizationOptions_class_data_E","_logs_proto_vr_arcore_ArCoreLog_CameraFpsStats_fields","__ZN3geo2ar3lib35_ClientConfig_default_instance_ptr_E","__ZTIN8location8bluemoon22RoadOrientationOptionsE","__ZTV14VROPhysicsBody","__ZTSN6google3geo2ar2v119WarmUpCacheResponseE","_silk_Resampler_3_4_COEFS","__ZN3geo2ar3lib74ClearcutLoggingConfig_PoseStabilityMonitorConfig_PoseJumpLoggingThresholds7_table_E","_iPhone5_2","__ZTIN4absl13time_internal4cctz12TimeZoneLibCE","__ZTIN7S1Angle5CoderE","_Watch2_3","__ZTSN4absl14flags_internal8FlagImplE","__ZTVN7vraudio19NearFieldEffectNodeE","__ZTS11VROGeometry","__ZTVN4logs5proto3geo2ar9GnssEventE","__ZTI18VROARFrameInertial","__ZN3geo2ar59_CloudLocalizationLikelihoodFunctionProto_default_instance_E","__ZTI22VROBodySurfaceRenderer","_google_arcorecloudanchor_v1beta2_Vector3dProto_fields","__ZN6proto28internal14WireFormatLite23kMessageSetItemTagsSizeE","__ZTVN3geo2ar3lib26FrameSnapshotForThirdPartyE","__ZTIN6proto28internal29CodedOutputStreamFieldSkipperE","__ZN4viro20Node_Geometry_Source22kDataStrideFieldNumberE","__ZN3geo2ar3lib61RealDeadReckonedPoseMixerConfig_UncertaintyRatios_class_data_E","__ZTI23VROFixedParticleEmitter","__ZN7vraudio10FftManager11kMinFftSizeE","__ZN8location8bluemoon49_UncertaintyPreserverConfig_default_instance_ptr_E","__ZN6google3geo2ar2v125LocationProto_class_data_E","__ZN4viro10Node_Light17kColorFieldNumberE","__ZN3geo2ar3lib50_NetworkEventMetrics_DataMetrics_default_instance_E","__ZTV18VROVideoTextureiOS","__ZTSN4util5ClockE","__ZN15inertial_anchor9estimator7bearing32CarryChangeDetectorConfiguration27kExtremaBufferWindowLengthSE"],"objc_class":["AudioEngine","GeoARLogger","GARInertialMeasurement","GARSemanticsManager","VROBodyRecognitionDrawDelegate","VPSHotspotResolverTask","GARCloudAnchorManager","GARResolveAnchorStatsWrapper","GARResolveAnchorAndLocalizeResponseWrapper","GAREarth","GeoART2Service","GARProtoMessage","CoreMlExecutor","VPSHotspotHosterTask","GARLocationDelegateWrapper","VPSDataset","VROARKitSessionDelegate","GeoARFirebasePhenotype","RouteChangeNotifier","GARResolveCloudAnchorFuture","VROViewAR","GARSemanticRawData","GARVPSAvailabilityFuture","GARCloudAnchorInfo","GARV1B2AnchorResult","RPCStatusWrapper","GARHAL","GARCompactDatasetWrapper","VROModelDownloader","GARPseudonymousIDStore","VPSImageRecorder","GARLiveHAL","GARCreateAnchorOnRooftopFuture","VPSCall","VPSAnchorTransformFilter","GeoARFacadeManager","VROAVPlayerDelegate","GARHostAnchorStatsWrapper","GARAnchorWrapper","GeoARConfiguration","GeoARSurfaceAnchor","VROCameraCaptureDelegate","GARHALFrameListener","GARGeoArEventDataObject","GARTransformation","ConfigurationUtils","GARCompactDatasetUtils","VPSDatasetBuilder","GeoARLoggingEvent","GeoARFrameForwarder","GARNullLogger","VPSCloudAnchorServiceV1B2","GeoARFakeARFrame","GARHostCloudAnchorFuture","VROBodyMesherDrawDelegate","VROCameraOrientationListener","VROVideoNotificationListener","VRODeviceUtil","GARSessionDelegateHelper","GARHALGeoListener","GARFrame","GARFirebaseRemoteConfigManager","VPSInertialBuffer","GeoAREarthAnchorTracker","GARFramePair","VPSInertialMeasurement","GARGetAnchorRequestWrapper","VPSAnchorResult","GARImageUtils","VPSHotspotHoster","GeoARCameraParametersProviderImpl","GeoARDepthFacadeManager","GARSemanticData","GeoARFakeARCamera","GeoARFakeARPointCloud","GARHALImuListener","GeoARSessionManagerCreator","PodsDummy_Pods_ViroKit","GeoARAnchor","GARDatasetUploadMetadataWrapper","VROViewRecorder","VPSAPIV1B2","GARResolveAnchorAndLocalizeRequestWrapper","GeoARLightEstimate","GeoARPoseResultProto","VPSFeatureOccupancyGrid","GARTransformationUtils","GARCreateAnchorRequestWrapper","GARMesh","VPSReferenceFrameAndState","MultiArrayFeatureProvider","GeoARS2CellFacades","GARStreetscapeGeometryRaycastResult","VPSFindAnchorResult","GeoARSessionManager","GeoARExponentialMovingAverage","GARSession","GeoARPose","GARPseudonymousID","GARSessionOptions","GARFirelogLogger","GeoARUtil","GeoARImageProcessor","IosSoundFileReader","VPSGridMetadata","GARAnchorErrorWrapper","GARDeviceUtils","VPSFrameBuffer","GARGeospatialTransform","VROAudioPlayerDelegate","GeoARFakePlaneGeometry","GARDeviceProfile","GeoARFakeARDepthData","GARStreetscapeGeometry","GARBaseSemanticsProvider","GARAnchor","VPSHotspotResolver","VRORecognitionDrawDelegate","GARInertialInterpolator","GARGeoAnchorManager","GeoARMovingAverage","VROModelDownloadDelegate","VPSBufferOptions","GARCoreMLSemanticsProvider","GARCloudAnchorResolveState","GARFuture","VROWeakProxy","GeoARLocationForwarder","GARCreateAnchorOnTerrainFuture","GARDeviceProfileProtoWrapper","GeoARFakeARPlaneAnchor","VPSARFrameData","GARSessionConfiguration","GeoARMotionForwarder","VPSRequestBuilderV1B2","GeoAnchorInfo","GVRAudioEngine","VROCloudAnchorProviderARCore","VROGlassView","VROViewScene","GARArCoreLogWrapper"],"objc_ivar":["MultiArrayFeatureProvider._inputs","GARCompactDatasetWrapper._proto","GARDeviceProfileProtoWrapper._proto","GARHostAnchorStatsWrapper._proto","GARCreateAnchorRequestWrapper._proto","RPCStatusWrapper._proto","MultiArrayFeatureProvider._featureNames","GARResolveAnchorStatsWrapper._proto","GARGetAnchorRequestWrapper._proto","GARArCoreLogWrapper._proto","GARAnchorErrorWrapper._proto","GARResolveAnchorAndLocalizeRequestWrapper._proto","GARResolveAnchorAndLocalizeResponseWrapper._proto","GARAnchorWrapper._proto","GARDatasetUploadMetadataWrapper._proto"],"thread_local":["__ZN6proto28internal15ThreadSafeArena13thread_cache_E","__ZZN4absl18container_internal8NextSeedEvE4seed","__ZGVZN4absl18container_internal8NextSeedEvE4seed","__ZN9perftools7tracing8internal10per_threadE","__ZN4absl13base_internal19thread_identity_ptrE"],"weak":["__ZZN4absl18container_internal12raw_hash_setINS0_17FlatHashMapPolicyIxPN4util8callback18CancellableClosureEEENS_13hash_internal4HashIxEENSt3__18equal_toIxEENSB_9allocatorINSB_4pairIKxS6_EEEEE18GetPolicyFunctionsEvE5value","__ZZN4absl18container_internal12raw_hash_setINS0_17FlatHashMapPolicyIxNSt3__112basic_stringIcNS3_11char_traitsIcEENS3_9allocatorIcEEEEEENS_13hash_internal4HashIxEENS3_8equal_toIxEENS7_INS3_4pairIKxS9_EEEEE18GetPolicyFunctionsEvE5value","_kVersionStampBuildInfoStr","__ZGVZN3ion4math10VectorBaseILi3EdE4ZeroEvE1v","__ZN4logs5proto3geo2ar51_PositionProbabilityGridProto_default_instance_ptr_E","__ZZN11flexbuffers3Map8EmptyMapEvE9empty_map","__ZZN4absl18container_internal12raw_hash_setINS0_17FlatHashMapPolicyIPKN3geo2ar3lib6AnchorEiEENS0_6HashEqIS8_vE4HashENSB_2EqENSt3__19allocatorINSE_4pairIKS8_iEEEEE18GetPolicyFunctionsEvE5value","__ZN3geo2ar38_CameraSpherical_default_instance_ptr_E","__ZN4absl13base_internal11FastTypeTagIlE9kDummyVarE","__ZN6google3geo2ar2v143_LimitedBasemapRegion_default_instance_ptr_E","__ZN12TraceContext28kTraceMaskTransientTracingOnE","__ZN4absl13base_internal11FastTypeTagImE9kDummyVarE","__ZZN3ion4math10VectorBaseILi3EfE4ZeroEvE1v","__ZN6proto213RepeatedFieldIxE18kHeapRepHeaderSizeE","_kVersionStampBuildToolStr","__ZN6proto213RepeatedFieldIjE18kHeapRepHeaderSizeE","__ZZN7generic17UniqueIdGeneratorINS_8UniqueIdEE11GetInstanceEvE8instance","__ZGVZN7generic17UniqueIdGeneratorINS_8UniqueIdEE11GetInstanceEvE8instance","__ZN3geo2ar35_CameraSensor_default_instance_ptr_E","__ZN6proto213RepeatedFieldIiE20kSooCapacityElementsE","__ZTSN13camera_models10Poly3ModelIdEE","__ZZN4absl18container_internal12raw_hash_setINS0_17FlatHashMapPolicyINSt3__112basic_stringIcNS3_11char_traitsIcEENS3_9allocatorIcEEEEN3geo2ar3lib19NetworkEventMetricsEEENS0_10StringHashENS0_8StringEqENS7_INS3_4pairIKS9_SD_EEEEE18GetPolicyFunctionsEvE5value","__ZZN3gtl18any_span_transform8IdentityEvE1f","__ZN4absl13base_internal11FastTypeTagIjE9kDummyVarE","__ZN13camera_models10Poly3ModelIdE26kNumDistortionCoefficientsE","_kVersionStampBuildChangelistInt","__ZN4logs5proto3geo2ar57_HeadingFromMotionDistributionProto_default_instance_ptr_E","__ZZN4absl18container_internal12raw_hash_setINS0_17FlatHashMapPolicyINSt3__112basic_stringIcNS3_11char_traitsIcEENS3_9allocatorIcEEEEU8__strongP8ARAnchorEENS0_10StringHashENS0_8StringEqENS7_INS3_4pairIKS9_SC_EEEEE18GetPolicyFunctionsEvE5value","__ZN4logs5proto3geo2ar62_PositionAndYawGaussianDistributionProto_default_instance_ptr_E","_kVersionStampBuildPghoTypeStr","_kVersionStampBuildBaselineChangelistInt","__ZN13camera_models10Poly3ModelIfE8kK1IndexE","__ZN6proto213RepeatedFieldIfE18kHeapRepHeaderSizeE","__ZGVZN2sm6timing6Timing8InstanceEvE9time_impl","__ZN12TraceContext34kTraceMaskGoogleWideFaultInjectionE","__ZN13camera_models10Poly3ModelIfE35kPointToPixelPrecomputationRequiredE","__ZN4logs5proto3geo2ar43_PerSignalConfigProto_default_instance_ptr_E","__ZGVZN5Eigen8internal20manage_caching_sizesENS_6ActionEPlS2_S2_E12m_cacheSizes","__ZN6proto213RepeatedFieldIfE20kSooCapacityElementsE","__ZZN4absl18container_internal12raw_hash_setINS0_17FlatHashMapPolicyINSt3__112basic_stringIcNS3_11char_traitsIcEENS3_9allocatorIcEEEEN3geo2ar3lib15ReferenceFrames20ReferenceFrameAtTimeEEENS0_10StringHashENS0_8StringEqENS7_INS3_4pairIKS9_SE_EEEEE18GetPolicyFunctionsEvE5value","__ZZN4absl13base_internal12CallOnceImplIRFvvEJEEEvPNSt3__16atomicIjEENS0_14SchedulingModeEOT_DpOT0_E5trans","__ZN3geo2ar40_DetectionGeometry_default_instance_ptr_E","__ZZN2sm6timing6Timing8InstanceEvE9time_impl","__ZGVN4util10ErrorSpace10RegistererINS_14ErrorSpaceImplINS_17GenericErrorSpaceEEEE14register_tokenE","__ZN8MTRandom11kMTNumWordsE","__ZGVZN3ion4math10VectorBaseILi4EdE4ZeroEvE1v","__ZN3geo2ar51_YawGaussianDistributionProto_default_instance_ptr_E","__ZN13camera_models10Poly3ModelIdE8kFyIndexE","__ZN6proto28internal14WireFormatLite10kFloatSizeE","__ZN6google3geo2ar2v128_T2Log_default_instance_ptr_E","__ZZN4absl18container_internal12raw_hash_setINS0_17FlatHashMapPolicyIN4logs5proto3geo2ar40FrameRejectReasonEvent_FrameRejectReasonENSt3__110unique_ptrIN3geo2ar3lib15LoggingThrottleENS8_14default_deleteISD_EEEEEENS_13hash_internal4HashIS7_EENS8_8equal_toIS7_EENS8_9allocatorINS8_4pairIKS7_SG_EEEEE18GetPolicyFunctionsEvE5value","__ZZN4absl18container_internal12raw_hash_setINS0_17FlatHashMapPolicyIxN3geo2ar3lib11FacadesCellEEENS_13hash_internal4HashIxEENSt3__18equal_toIxEENSB_9allocatorINSB_4pairIKxS6_EEEEE18GetPolicyFunctionsEvE5value","__ZTVN13camera_models10Poly3ModelIfEE","__ZN3geo2ar66_PlaceIdOptions_SemanticUnderstandingOptions_default_instance_ptr_E","__ZN4logs5proto3geo2ar63_RoadRelativeOrientationDistributionProto_default_instance_ptr_E","__ZZN4absl12crc_internal9CrcMemcpy10CrcAndCopyEPvPKvmNS_8crc32c_tEbE7engines","__ZGVZN3ion4math10VectorBaseILi4EfE4ZeroEvE1v","__ZGVZN9ACMRandomclEvE3uid","__ZN4logs5proto3geo2ar63_CloudLocalizationLikelihoodFunctionProto_default_instance_ptr_E","__ZTIN13camera_models10Poly3ModelIdEE","__ZN4logs5proto3geo2ar47_SunAngleDistibutionProto_default_instance_ptr_E","__ZGVZN4absl12crc_internal9CrcMemcpy10CrcAndCopyEPvPKvmNS_8crc32c_tEbE7engines","__ZN6proto213RepeatedFieldIjE12kInitialSizeE","__ZN13camera_models10Poly3ModelIdE8kFxIndexE","__ZN4logs5proto3geo2ar55_CarryPoseChangePerturbationProto_default_instance_ptr_E","__ZZN6tflite13optimized_ops22ClampWithRangeAndStoreEPa16__simd128_int8_t12uint8x16x2_tE7min_dup","__ZN6proto24util8TimeUtil23kDurationMaxNanosecondsE","__ZZN4absl18container_internal12raw_hash_setINS0_17FlatHashMapPolicyINSt3__14pairIPKvjEENS_4TimeEEENS_13hash_internal4HashIS7_EENS3_8equal_toIS7_EENS3_9allocatorINS4_IKS7_S8_EEEEE18GetPolicyFunctionsEvE5value","__ZN6google3geo2ar2v139_CameraParameters_default_instance_ptr_E","__ZZN6tflite13optimized_ops22ClampWithRangeAndStoreEPa16__simd128_int8_t12uint8x16x2_tE7max_dup","_kVersionStampBuildCompilerStr","__ZZN7strings6TypeId3ForI12CordByteSinkEES0_vE5token","__ZN6proto24util8TimeUtil23kDurationMinNanosecondsE","__ZN6google3geo2ar2v133_Detections_default_instance_ptr_E","__ZN6proto213RepeatedFieldIjE20kSooCapacityElementsE","__ZN6proto213RepeatedFieldIbE18kHeapRepHeaderSizeE","_kVersionStampBuildIdStr","__ZN6proto28internal19ImplicitWeakMessage11class_data_E","__ZN6proto213RepeatedFieldIyE18kHeapRepHeaderSizeE","__ZZNK5Eigen14QuaternionBaseINS_10QuaternionIfLi2EEEE5slerpIS2_EENS1_IfLi0EEERKfRKNS0_IT_EEE3one","__ZN3geo2ar7service43_LimitedBasemapRegion_default_instance_ptr_E","_kVersionStampBuildDirectoryStr","__ZN13camera_models10Poly3ModelIfE15kFyInverseIndexE","__ZN4absl13base_internal11FastTypeTagIaE9kDummyVarE","__ZZN4absl13base_internal12CallOnceImplIMNS_14flags_internal8FlagImplEFvvEJPS3_EEEvPNSt3__16atomicIjEENS0_14SchedulingModeEOT_DpOT0_E5trans","__ZN13camera_models10Poly3ModelIdE8kK1IndexE","__ZN12TraceContext22kTraceMaskVerboseTraceE","__ZN8location8bluemoon43_PerSignalConfigProto_default_instance_ptr_E","__ZN12TraceContext18kTraceMaskTagWidthE","__ZN3geo2ar7service34_AnchorToken_default_instance_ptr_E","_kVersionStampVerifiableInt","__ZN6proto24util8TimeUtil19kDurationMinSecondsE","__ZN4logs5proto3geo2ar51_YawGaussianDistributionProto_default_instance_ptr_E","__ZN6proto28internal14WireFormatLite11kDoubleSizeE","_kVersionStampPrecookedTimestampStr","__ZN6tflite4impl11Interpreter27kPlaceholderSignatureDefKeyE","__ZN3geo2ar49_PlaceIdOptions_DataTagList_default_instance_ptr_E","__ZN13camera_models10Poly3ModelIfE8kCyIndexE","__ZN3geo2ar2t241_LocalizerResources_default_instance_ptr_E","__ZZN4absl18container_internal12raw_hash_setINS0_17FlatHashMapPolicyIxN3geo2ar3lib27CloudLocalizationConstraint16AnchorConstraintEEENS_13hash_internal4HashIxEENSt3__18equal_toIxEENSC_9allocatorINSC_4pairIKxS7_EEEEE18GetPolicyFunctionsEvE5value","__ZN4absl13base_internal11FastTypeTagIN11scaffolding11FlagHashMapINSt3__112basic_stringIcNS4_11char_traitsIcEENS4_9allocatorIcEEEESA_Lc44EEEE9kDummyVarE","__ZGVZNK5Eigen14QuaternionBaseINS_10QuaternionIfLi2EEEE5slerpIS2_EENS1_IfLi0EEERKfRKNS0_IT_EEE3one","__ZN13camera_models10Poly3ModelIfE16kMaxValidRDIndexE","__ZN13camera_models10Poly3ModelIfE15kFxInverseIndexE","__ZN6proto213RepeatedFieldIbE20kSooCapacityElementsE","__ZN6proto213RepeatedFieldIyE12kInitialSizeE","__ZN4absl13base_internal11FastTypeTagIhE9kDummyVarE","__ZN9superroot9knowledge23SunriseSunsetCalculator14kSunriseSunsetE","__ZN13camera_models10Poly3ModelIdE15kFyInverseIndexE","__ZN13camera_models10Poly3ModelIfE8kCxIndexE","__ZN2ar5image6Pixels10kMaxPlanesE","_kVersionStampBuildLtoTypeStr","__ZGVZN6tflite13optimized_ops22ClampWithRangeAndStoreEPa16__simd128_int8_t12uint8x16x2_tE7min_dup","__ZN3geo2ar35_ImagePolygon_default_instance_ptr_E","__ZZN3ion4math10VectorBaseILi3EdE4ZeroEvE1v","__ZGVZN3ion4math10VectorBaseILi3EfE4ZeroEvE1v","__ZN6proto213RepeatedFieldIN4absl4CordEE18kHeapRepHeaderSizeE","__ZZN3ion4math10VectorBaseILi4EdE4ZeroEvE1v","__ZN6proto24util8TimeUtil19kDurationMaxSecondsE","__ZN6google8internal7android8location7bluesky4type40_InterSystemBiases_default_instance_ptr_E","__ZN4logs5proto3geo2ar43_PreprocessingOptions_default_instance_ptr_E","_kVersionStampCitcSnapshotInt","_kVersionStampBuildCoverageEnabledInt","__ZZN4absl18container_internal12raw_hash_setINS0_17FlatHashMapPolicyINSt3__112basic_stringIcNS3_11char_traitsIcEENS3_9allocatorIcEEEES9_EENS0_10StringHashENS0_8StringEqENS7_INS3_4pairIKS9_S9_EEEEE18GetPolicyFunctionsEvE5value","__ZN12TraceContext27kTraceMaskSkeletalTracingOnE","_kVersionStampBuildPropellerTypeStr","__ZN4absl19str_format_internal13ConvTagHolder5valueE","__ZN12TraceContext19kTraceMaskTagOffsetE","__ZN6proto213RepeatedFieldIN4absl4CordEE12kInitialSizeE","_kVersionStampVerifiableStr","__ZN6proto24util8TimeUtil20kTimestampMinSecondsE","__ZN12TraceContext20kTraceMaskNonUniformE","__ZTSN13camera_models10Poly3ModelIfEE","__ZN6proto213RepeatedFieldIN4absl4CordEE20kSooCapacityElementsE","__ZN13camera_models10Poly3ModelIdE15kFxInverseIndexE","__ZN4absl13base_internal11FastTypeTagIxE9kDummyVarE","__ZN6google3geo2ar2v163_RoadRelativeOrientationDistributionProto_default_instance_ptr_E","__ZN8S2CellId8kMaxSizeE","__ZN6proto213RepeatedFieldIiE18kHeapRepHeaderSizeE","__ZN13camera_models10Poly3ModelIdE35kPointToPixelPrecomputationRequiredE","__ZZN9ACMRandomclEvE3uid","__ZN6proto213RepeatedFieldIdE12kInitialSizeE","__ZN13camera_models10Poly3ModelIfE8kK2IndexE","__ZN6google3geo2ar2v127_Pose_default_instance_ptr_E","__ZN4absl13base_internal11FastTypeTagIdE9kDummyVarE","__ZN8S2CellId9kNumFacesE","__ZZN4absl18container_internal5btreeINS0_10set_paramsINS_11string_viewENSt3__14lessIS3_EENS4_9allocatorIS3_EELi256ELb0EEEE9EmptyNodeEvE10empty_node","_kVersionStampBuildClientStr","__ZN4logs5proto3geo2ar58_InertialAnchorPoseDistributionProto_default_instance_ptr_E","__ZZN4absl18container_internal12raw_hash_setINS0_17FlatHashMapPolicyINSt3__112basic_stringIcNS3_11char_traitsIcEENS3_9allocatorIcEEEEPKN4util10ErrorSpaceEEENS0_10StringHashENS0_8StringEqENS7_INS3_4pairIKS9_SD_EEEEE18GetPolicyFunctionsEvE5value","_kVersionStampBuildHasProfileDrivenProtobuf","__ZN13camera_models10Poly3ModelIfE26kNumDistortionCoefficientsE","__ZN4logs5proto3geo2ar55_BearingTrackingPerturbationProto_default_instance_ptr_E","__ZZN4absl18container_internal12raw_hash_setINS0_17FlatHashMapPolicyIN7octomap9OcTreeKeyEfEENS4_7KeyHashENSt3__18equal_toIS4_EENS7_9allocatorINS7_4pairIKS4_fEEEEE18GetPolicyFunctionsEvE5value","__ZN6google3geo2ar2v138_QuaternionProto_default_instance_ptr_E","__ZN3geo2ar33_ExternalId_default_instance_ptr_E","__ZN4util10ErrorSpace10RegistererINS_14ErrorSpaceImplINS_17GenericErrorSpaceEEEE14register_tokenE","__ZZN4absl18container_internal12raw_hash_setINS0_17FlatHashMapPolicyIxN3geo2ar19RigidTransformProtoEEENS_13hash_internal4HashIxEENSt3__18equal_toIxEENSA_9allocatorINSA_4pairIKxS5_EEEEE18GetPolicyFunctionsEvE5value","_kVersionStampBuildUsernameStr","__ZN12TraceContext26kTraceMaskSherlogTracingOnE","__ZZN4absl18container_internal12raw_hash_setINS0_17FlatHashMapPolicyIxN8location8bluemoon20UncertaintyPreserver11SignalStateEEENS_13hash_internal4HashIxEENSt3__18equal_toIxEENSB_9allocatorINSB_4pairIKxS6_EEEEE18GetPolicyFunctionsEvE5value","__ZN6proto213RepeatedFieldIxE20kSooCapacityElementsE","__ZN8S2CellId9kFaceBitsE","__ZNSt3__119piecewise_constructE","__ZN13camera_models10Poly3ModelIdE8kCyIndexE","__ZN6proto28internal14WireFormatLite9kBoolSizeE","_kVersionStampBuildDateTimePstStr","__ZN4absl13base_internal11FastTypeTagIiE9kDummyVarE","__ZN6proto213RepeatedFieldIdE20kSooCapacityElementsE","__ZN13camera_models10Poly3ModelIfE8kK3IndexE","_kVersionStampBuildTargetStr","__ZN6proto24util8TimeUtil24kTimestampMinNanosecondsE","__ZZN5Eigen8internal20manage_caching_sizesENS_6ActionEPlS2_S2_E12m_cacheSizes","__ZZN4absl18container_internal12raw_hash_setINS0_17FlatHashMapPolicyINSt3__14pairIPKvjEEjEENS_13hash_internal4HashIS7_EENS3_8equal_toIS7_EENS3_9allocatorINS4_IKS7_jEEEEE18GetPolicyFunctionsEvE5value","__ZN9superroot9knowledge23SunriseSunsetCalculator14kCivilTwilightE","__ZZN4absl18container_internal12raw_hash_setINS0_17FlatHashMapPolicyINS_11string_viewEPNS_15CommandLineFlagEEENS0_10StringHashENS0_8StringEqENSt3__19allocatorINS9_4pairIKS3_S5_EEEEE18GetPolicyFunctionsEvE5value","_kVersionStampBuildClientMintStatusStr","__ZGVZN6tflite13optimized_ops22ClampWithRangeAndStoreEPa16__simd128_int8_t12uint8x16x2_tE7max_dup","__ZN4absl13base_internal11FastTypeTagIfE9kDummyVarE","__ZN6proto28internal14WireFormatLite13kSFixed64SizeE","__ZZN4absl18container_internal12raw_hash_setINS0_17FlatHashMapPolicyIxN3geo2ar3lib21IfmLocalizationFilter15RunningEstimateEEENS_13hash_internal4HashIxEENSt3__18equal_toIxEENSC_9allocatorINSC_4pairIKxS7_EEEEE18GetPolicyFunctionsEvE5value","__ZN8S2CellId8kPosBitsE","__ZN8S2CellId9kMaxLevelE","_kVersionStampBuildClientMintStatusInt","__ZN4absl13base_internal11FastTypeTagINS_8DurationEE9kDummyVarE","_kVersionStampBuildChangelistStr","__ZN4logs5proto3geo2ar53_StepDetectionPerturbationProto_default_instance_ptr_E","_kVersionStampG3BuildTargetStr","__ZN6tflite7xnnpack18kInMemoryCachePathE","__ZZN4absl18container_internal12raw_hash_setINS0_17FlatHashMapPolicyIxbEENS_13hash_internal4HashIxEENSt3__18equal_toIxEENS7_9allocatorINS7_4pairIKxbEEEEE18GetPolicyFunctionsEvE5value","__ZN12TraceContext27kTraceMaskClientRootedTraceE","__ZN13camera_models10Poly3ModelIfE16kMaxValidRUIndexE","__ZZN4absl13base_internal12CallOnceImplIPFvvEJEEEvPNSt3__16atomicIjEENS0_14SchedulingModeEOT_DpOT0_E5trans","__ZN13camera_models10Poly3ModelIdE16kDistortionModelE","__ZTIN13camera_models10Poly3ModelIfEE","__ZN6proto28internal14WireFormatLite13kSFixed32SizeE","__ZN13camera_models10Poly3ModelIdE8kCxIndexE","__ZN8MathUtil3kPiE","__ZN6proto28internal14WireFormatLite12kFixed64SizeE","__ZN6proto213RepeatedFieldIiE12kInitialSizeE","__ZZN11flatbuffers4dataINS_6OffsetIN6tflite7xnnpack5cache6schema6BufferEEENSt3__19allocatorIS7_EEEEPKT_RKNS8_6vectorISB_T0_EEE1t","__ZZN4absl18container_internal12raw_hash_setINS0_17FlatHashMapPolicyIN3geo2ar3lib13TrackedAnchor3KeyENS5_25TrackedAndLocalizedAnchorEEENS5_21ParticleTrackingQueue20TrackedAnchorKeyHashENSt3__18equal_toIS7_EENSC_9allocatorINSC_4pairIKS7_S8_EEEEE18GetPolicyFunctionsEvE5value","__ZN6google3geo2ar2v138_LocalizeOptions_default_instance_ptr_E","_kVersionStampBuildBaselineChangelistStr","__ZN4absl13base_internal11FastTypeTagIyE9kDummyVarE","__ZN13camera_models10Poly3ModelIfE16kDistortionModelE","_kVersionStampBuildLabelStr","__ZN13camera_models10Poly3ModelIfE8kFyIndexE","__ZZN4absl18container_internal12raw_hash_setINS0_17FlatHashSetPolicyIPvEENS0_6HashEqIS3_vE4HashENS6_2EqENSt3__19allocatorIS3_EEE18GetPolicyFunctionsEvE5value","__ZZN4absl18container_internal12raw_hash_setINS0_17FlatHashMapPolicyIxNS_13flat_hash_mapIN7octomap9OcTreeKeyEfNS5_7KeyHashENSt3__18equal_toIS5_EENS7_9allocatorINS7_4pairIKS5_fEEEEEEEENS_13hash_internal4HashIxEENS8_IxEENSA_INSB_IKxSF_EEEEE18GetPolicyFunctionsEvE5value","__ZZN3ion4math10VectorBaseILi4EfE4ZeroEvE1v","__ZZN4absl18container_internal12raw_hash_setINS0_17FlatHashMapPolicyIN3geo2ar3lib10SensorTypeEiEENS_13hash_internal4HashIS6_EENSt3__18equal_toIS6_EENSB_9allocatorINSB_4pairIKS6_iEEEEE18GetPolicyFunctionsEvE5value","__ZZN4absl18container_internal12raw_hash_setINS0_17FlatHashMapPolicyIxN3geo2ar3lib14TrackedAnchorsEEENS_13hash_internal4HashIxEENSt3__18equal_toIxEENSB_9allocatorINSB_4pairIKxS6_EEEEE18GetPolicyFunctionsEvE5value","__ZN4absl13base_internal11FastTypeTagINSt3__112basic_stringIcNS2_11char_traitsIcEENS2_9allocatorIcEEEEE9kDummyVarE","__ZN4util15internal_status18ErrorSpaceInstanceINS_17GenericErrorSpaceEE5valueE","__ZN6google3geo2ar2v145_CovarianceMatrix3Proto_default_instance_ptr_E","__ZN4absl13base_internal11FastTypeTagIsE9kDummyVarE","__ZN4logs5proto3geo2ar38_LocalizerConfig_default_instance_ptr_E","__ZN4absl13base_internal11FastTypeTagIbE9kDummyVarE","__ZN13camera_models10Poly3ModelIdE8kK2IndexE","__ZN3geo2ar2t228_T2Log_default_instance_ptr_E","__ZN4logs5proto3geo2ar66_HorizontalPositionGaussianDistributionProto_default_instance_ptr_E","_kVersionStampBuildHostnameStr","__ZN4logs5proto3geo2ar72_HorizontalPositionAndYawGaussianDistributionProto_default_instance_ptr_E","__ZN6proto213RepeatedFieldIfE12kInitialSizeE","__ZZN4absl18container_internal12raw_hash_setINS0_17FlatHashMapPolicyIN8location8bluemoon14SignalTypeEnumENS4_42UncertaintyPreserverConfig_PerSignalConfigEEENS_13hash_internal4HashIS5_EENSt3__18equal_toIS5_EENSB_9allocatorINSB_4pairIKS5_S6_EEEEE18GetPolicyFunctionsEvE5value","__ZN4logs5proto3geo2ar56_PositionGaussianDistributionProto_default_instance_ptr_E","__ZN6proto213RepeatedFieldIdE18kHeapRepHeaderSizeE","__ZN3geo2ar62_PlaceIdOptions_PoseConfidenceThresholds_default_instance_ptr_E","__ZZN4absl18container_internal12raw_hash_setINS0_17FlatHashMapPolicyIxN8location8bluemoon17FreeParticleStore14PerSignalStateEEENS_13hash_internal4HashIxEENSt3__18equal_toIxEENSB_9allocatorINSB_4pairIKxS6_EEEEE18GetPolicyFunctionsEvE5value","__ZN4absl6Status16kMovedFromStringE","__ZN6proto24util8TimeUtil24kTimestampMaxNanosecondsE","__ZN4i18n12localization41_LocalizedTextProto_default_instance_ptr_E","__ZN3geo2ar3lib43_Vector3WithBiasProto_default_instance_ptr_E","__ZN13camera_models10Poly3ModelIdE8kK3IndexE","__ZTVN13camera_models10Poly3ModelIdEE","__ZN13camera_models10Poly3ModelIdE16kMaxValidRUIndexE","_kVersionStampCitcSnapshotStr","__ZN6proto213RepeatedFieldIxE12kInitialSizeE","__ZN6google3geo2ar2v142_LocalAreaParameters_default_instance_ptr_E","__ZN4logs5proto3geo2ar37_PlaceIdOptions_default_instance_ptr_E","__ZN12TraceContext32kTraceMaskTransientTracingOffsetE","__ZN3geo2ar59_PlaceIdOptions_EntityGeometryOptions_default_instance_ptr_E","__ZN6google3geo2ar2v136_Vector3dProto_default_instance_ptr_E","__ZN6proto213RepeatedFieldIbE12kInitialSizeE","__ZZN4absl18container_internal12raw_hash_setINS0_17FlatHashSetPolicyIN13camera_models18LensDistortionTypeEEENS_13hash_internal4HashIS4_EENSt3__18equal_toIS4_EENS9_9allocatorIS4_EEE18GetPolicyFunctionsEvE5value","__ZZN4absl18container_internal12raw_hash_setINS0_17FlatHashSetPolicyIPN3geo2ar3lib16HttpPostCallbackEEENS0_6HashEqIS7_vE4HashENSA_2EqENSt3__19allocatorIS7_EEE18GetPolicyFunctionsEvE5value","__ZN12TraceContext22kTraceMaskRPCTracingOnE","__ZN3geo2ar43_PreprocessingOptions_default_instance_ptr_E","__ZZN4absl18container_internal12raw_hash_setINS0_17FlatHashMapPolicyIN4logs5proto3geo2ar40FrameRejectReasonEvent_FrameRejectReasonEiEENS_13hash_internal4HashIS7_EENSt3__18equal_toIS7_EENSC_9allocatorINSC_4pairIKS7_iEEEEE18GetPolicyFunctionsEvE5value","_kVersionStampBuildTimestampStr","__ZN13camera_models10Poly3ModelIfE8kFxIndexE","__ZN3geo2ar39_PlacementOptions_default_instance_ptr_E","__ZN6proto28internal14WireFormatLite12kFixed32SizeE","__ZN3geo2ar50_PlaceIdOptions_RouteOptions_default_instance_ptr_E","_kVersionStampBuildTimestampInt","__ZZN6proto28internal11SerialArena31ArbitraryInternalPointerForInitEvE5dummy","_kVersionStampCitcWorkspaceIdStr","__ZN4absl13base_internal11FastTypeTagINSt3__16vectorINS2_12basic_stringIcNS2_11char_traitsIcEENS2_9allocatorIcEEEENS7_IS9_EEEEE9kDummyVarE","__ZN3geo2ar62_PlaceIdOptions_FacadesVisibilityOptions_default_instance_ptr_E","__ZN6proto24util8TimeUtil20kTimestampMaxSecondsE","__ZN3geo2ar35_PlaceSummary_default_instance_ptr_E","__ZZN6proto28internal8TcParser19GenericFallbackImplINS_11MessageLiteENSt3__112basic_stringIcNS4_11char_traitsIcEENS4_9allocatorIcEEEEEEPKcPS3_SC_PNS0_12ParseContextENS0_11TcFieldDataEPKNS0_16TcParseTableBaseEyE4kOps","__ZZN4absl18container_internal12raw_hash_setINS0_17FlatHashSetPolicyINSt3__110shared_ptrIN3geo2ar3lib30HybridSurfaceElevationProvider9QueryImplEEEEENS0_6HashEqIPS9_vE4HashENSE_2EqENS3_9allocatorISA_EEE18GetPolicyFunctionsEvE5value","_kVersionStampSourceUriStr","_kVersionStampPrecookedClientInfoStr","_kVersionStampBuildFdoTypeStr","__ZZN4absl18container_internal5btreeINS0_10map_paramsIiN6proto28internal12ExtensionSet9ExtensionENSt3__14lessIiEENS7_9allocatorINS7_4pairIKiS6_EEEELi256ELb0EEEE9EmptyNodeEvE10empty_node","__ZN15immersive_tiles43_PoiLayerOptionsProto_default_instance_ptr_E","__ZN4absl13base_internal11FastTypeTagItE9kDummyVarE","__ZN13camera_models10Poly3ModelIdE16kMaxValidRDIndexE","_kVersionStampBuildDepotPathStr","__ZN6proto213RepeatedFieldIyE20kSooCapacityElementsE"]},"text":{"global":["__ZN7vraudio14TaskThreadPoolD1Ev","_BIO_meth_set_read","__ZN3geo2ar3lib31NetworkEventMetrics_DataMetrics5ClearEv","__ZN4absl12log_internal16FormatLogMessageENS_11LogSeverityENS_13time_internal4cctz6detail10civil_timeINS2_10second_tagEEENS_8DurationEiNS_11string_viewEiNS0_12PrefixFormatES9_","__ZN13google_public8protobuf8internal10LogMessagelsEl","_silk_resampler_private_up2_HQ_wrapper","__ZN4viro4Node16default_instanceEv","__ZN16VROBodyMesheriOS19processVisionOutputEP31VNCoreMLFeatureValueObservation17VROCameraPosition11VROMatrix4fS3_","__ZN3geo2ar7service49T2ResolveAnchorAndLocalizeResponse_ResolvedAnchorC2EPN6proto25ArenaERKS2_","__ZN6tflite3ops7builtin24Register_DIV_GENERIC_OPTEv","__ZNK7vraudio12GraphManager15GetStereoBufferEv","__ZN6tflite3ops7builtin5round4EvalEP13TfLiteContextP10TfLiteNode","__ZN9superroot9knowledge9astronomy20RoundToNearestMinuteEN4absl4TimeE","_d2i_DSA_SIG","__ZN6icu_7711ICU_Utility12appendToRuleERNS_13UnicodeStringEPKNS_14UnicodeMatcherEaS2_","__ZN24VROPolylineEventDelegate6onDragEiNSt3__110shared_ptrI7VRONodeEE11VROVector3f","__ZN6tflite3ops7builtin6rfft2d13Rfft2dReorderEiiPPd","__ZN13VROByteBuffer4fillEhm","__ZN13google_public8protobuf2io16CodedInputStream26ReadLittleEndian64FallbackEPy","__ZN6google3geo2ar2v117FacadesSnapshotId8CopyFromERKS3_","__ZN3geo2ar7service20T2WarmUpCacheRequest8CopyFromERKS2_","_transpose_weights_x8","__ZN3geo2ar3lib9DevConfig9MergeImplERN6proto211MessageLiteERKS4_","__ZN3geo2ar35InertialAnchorPoseDistributionProto12InternalSwapEPS1_","__ZN4absl15status_internal9StatusRep10SetPayloadENS_11string_viewENS_4CordE","_CBS_skip","_u_strtok_r_77","_utrace_vformat_77","__ZN13VROByteBuffer10writeCharsEPKc","__ZN4logs5proto3geo2ar15ErrorCountEventC1EPN6proto25ArenaERKS3_","_BN_value_one","__ZN20btConvexHullInternal7computeEPKvbii","__ZN23VRORendererSettingsTestD2Ev","__ZN6icu_7713UnicodeStringC2ERKS0_ii","_EVP_PKEY_cmp_parameters","_I420ToAB30","__ZN7tinyobj7LoadObjENSt3__110shared_ptrINS_8attrib_tEEENS1_INS0_6vectorINS_7shape_tENS0_9allocatorIS5_EEEEEENS1_INS4_INS_10material_tENS6_ISA_EEEEEEPNS0_12basic_stringIcNS0_11char_traitsIcEENS6_IcEEEEPKcSL_bPNS0_3mapISI_SI_NS0_4lessISI_EENS6_INS0_4pairIKSI_SI_EEEEEENS1_I12VROTaskQueueEENS0_8functionIFvbEEEb","__ZN4logs5proto3geo2ar33CameraIntrinsics_RadialDistortionC1EPN6proto25ArenaERKS3_","__ZN4logs5proto3geo2ar26UncertaintyPreserverConfigD1Ev","__ZN6tflite20IntegerDoubleCompareEdd","__ZN11VROMatrix4fC2EN3glm7tmat4x4IfLNS0_9precisionE0EEE","__Z29SystemLoadAverageForTimeRange26SystemLoadAverageTimeRange","__ZN14VROPhysicsBodyD2Ev","__ZN4logs5proto3geo2ar28RigidTransformWithConfidenceD0Ev","__ZN13VROPortalTestC2Ev","__ZN6google3geo2ar2v119QueryFacadesOptionsC2EPN6proto25ArenaERKS3_","__ZN7vraudio19AudioStreamRendererC1EPNS_17ResonanceAudioApiENS_13RenderingModeENSt3__110unique_ptrINS_17AudioSourceStreamENS4_14default_deleteIS6_EEEE","__ZNK4logs5proto3geo2ar48ParticleFilterConfig_PositionAndYawFilterOptions12ByteSizeLongEv","_create_fully_connected_nc_f16","__ZN4viro20Node_Geometry_Source9MergeFromERKS0_","_ByteToFloat","_stepDetectorReset","_EC_GROUP_free","__ZN6google3geo2ar2v119RigidTransformProtoD1Ev","__ZN4util13StatusBuilder19JoinMessageToStatusEN4absl6StatusENS1_11string_viewENS0_16MessageJoinStyleE","__ZN6google8protobuf8internal10LogMessage6FinishEv","__ZN7vraudio17VrAudioEngineImpl24SetRoomReverbAdjustmentsEfff","__ZNK10ThreadPool11queue_countEv","__ZN7VRONode12getAnimationENSt3__112basic_stringIcNS0_11char_traitsIcEENS0_9allocatorIcEEEEb","__ZN3geo2ar7service34T2ResolveAnchorAndLocalizeResponseD0Ev","_ARGBMirrorRow_Any_NEON","__ZN6thread14WaitStateScopeC1EN4absl13base_internal14ThreadIdentity9WaitStateE","__ZNK3geo2ar43HorizontalPositionGaussianDistributionProto12ByteSizeLongEv","__ZN7vraudio16IosStreamDecoderC1Ev","_kai_run_matmul_clamp_f32_qai8dxp1x4_qsi4cxp4x4_1x4_neon_dotprod","__ZN13google_public8protobuf4utillsERNSt3__113basic_ostreamIcNS2_11char_traitsIcEEEERKNS1_6StatusE","__ZN2sm6timing10TimingImpl8GetStatsEm","__ZN18VROParticleEmitter26getSpawnParticlesPerSecondEd","__ZN6tflite3ops7builtin23Register_REDUCE_MAX_OPTEv","__ZNK3geo2ar49HorizontalPositionAndYawGaussianDistributionProto18_InternalSerializeEPhPN6proto22io19EpsCopyOutputStreamE","__ZN6tflite12tensor_utils16PortableCwiseAddEPKsS2_iiPs","__ZN13VRONodeCamera14setAspectRatioEf","__ZN6tflite4impl18InterpreterBuilderclEPNSt3__110unique_ptrINS0_11InterpreterENS2_14default_deleteIS4_EEEEi","__ZNK7vraudio17VrAudioEngineImpl24GetSystemBufferNumFramesEv","_ucdn_get_script","__ZNK22VROAVCaptureController12getImageSizeEv","__ZN3geo2ar3lib13LightEstimateD0Ev","__ZN22VROARCameraPrerecordedD0Ev","__ZN6proto28internal12ParseContext28ReadSizeAndPushLimitAndDepthEPKcPNS0_18EpsCopyInputStream10LimitTokenE","__ZNK6icu_7713UnicodeString13doLastIndexOfEDsii","__ZN10VROFBXTestD2Ev","__ZN3geo2ar33CameraIntrinsics_RadialDistortionC1EPN6proto25ArenaE","_kai_get_sr_matmul_clamp_f32_qai8dxp4x8_qsi4cxp4x4_16x4x32_neon_dotprod","__ZN6proto28internal8TcParser8FastBcS1EPNS_11MessageLiteEPKcPNS0_12ParseContextENS0_11TcFieldDataEPKNS0_16TcParseTableBaseEy","_EVP_DigestFinal_ex","_xnn_setup_slice_nd_x8","__ZN3geo2ar3lib12ARCoreConfig8CopyFromERKS2_","__Z27GetCommandLineFlagInfoOrDieN4absl11string_viewE","__ZN3geo2ar3lib33AdaptiveImageFrameLocalizerConfigC1EPN6proto25ArenaERKS2_","__ZN3gvr14PlatformThreadC1Ev","__ZN8location8bluemoon21InertialAnchorOptionsC2EPN6proto25ArenaERKS1_","_OPENSSL_calloc","_BN_mod_inverse_odd","__ZNK10VROFrustum15distanceFromFCPE11VROVector3f","__ZN4absl24DoesStatusSaveStackTraceEv","__ZN11VROSkeleton28getCurrentBoneWorldTransformENSt3__112basic_stringIcNS0_11char_traitsIcEENS0_9allocatorIcEEEE","__ZN6google3geo2ar2v19ElevationD1Ev","__ZNK3geo2ar3lib17RealFrameSnapshot14GetLatestFrameEv","_cpuinfo_get_processors","__ZN3geo2ar8geometry8TriangleC1EPN6proto25ArenaE","__ZNK4base7Context8deadlineEv","_CBS_peek_asn1_tag","__ZN6tflite3ops7builtin20Register_RIGHT_SHIFTEv","_DSA_sign","__ZN3geo2ar3lib31QualityFramePriorityQueueConfig12InternalSwapEPS2_","__ZN6tflite3ops7builtin15fully_connected7EvalPieEP13TfLiteContextP10TfLiteNodeP26TfLiteFullyConnectedParamsPNS2_6OpDataEPK12TfLiteTensorSD_SD_PSB_","__ZN4logs5proto3geo2ar48WrappedCauchyHeadingUncertaintyModelParametersV1D2Ev","__ZN4util10ErrorSpace8RegisterEPFPKS0_vE","__ZN4absl12log_internal10LogMessageC1EPKciNS1_8ErrorTagE","_ScaleRowDown2Box_C","__ZN2sm6timing10TimingImpl19SecondsToTimeStringENS0_11TimerFormatEd","_OPENSSL_sk_new_null","__ZN11VROMatrix4fC2Ev","__ZN4logs5proto3geo2ar13PoseJumpEventD0Ev","_xnn_pack_kai_qs8_qc8w_weights_and_biases_sme2","__ZN3geo2ar3lib15PlanetoidMotion12GetDayNumberEN4absl4TimeE","__ZN4logs5proto3geo2ar30RealDeadReckonedPoseMixerEventD0Ev","__ZN4absl18container_internal36PrepareInsertLargeGenerationsEnabledERNS0_12CommonFieldsERKNS0_15PolicyFunctionsEmNS0_8FindInfoENS_11FunctionRefIFmmEEE","_DetileSplitUVRow_Any_NEON","__ZN3geo2ar7service49T2ResolveAnchorAndLocalizeResponse_ResolvedAnchorC1EPN6proto25ArenaE","__ZN3geo2ar3lib27GetLocalizationStateMixtureERKNS1_17LocalizationStateES4_d","_cftrec4","__ZN19VROBodyIKController23calculateKnownBoneSizesE16VROBodyJointType","__ZN16VROBodyPlayeriOS5pauseEv","__ZN13google_public8protobuf8internal12FieldSkipper15SkipUnknownEnumEii","__ZN4logs5proto3geo2ar33CameraIntrinsics_RadialDistortionD1Ev","_H010ToABGR","_EVP_PKEY_get0_EC_KEY","__ZNK4viro28Node_SkeletalAnimation_Frame12ByteSizeLongEv","__ZN6tflite4impl11Interpreter6InvokeEv","__ZN13VROStringUtil5splitERKNSt3__112basic_stringIwNS0_11char_traitsIwEENS0_9allocatorIwEEEES8_b","__ZN7vraudio17BufferPartitioner9AddBufferEmRKNS_11AudioBufferE","__ZNK6google8internal7android8location7bluesky4type9Timestamp12ByteSizeLongEv","__ZNK6google3geo2ar2v128BatchQueryElevationsResponse12GetClassDataEv","_CreateResonanceAudioApi","__ZN6tflite3ops6custom23Register_NUMERIC_VERIFYEv","_ScaleRowDown2Box_Odd_NEON","_TfLiteInterpreterInvoke","__ZN4util20InternalErrorBuilderEN4absl14SourceLocationE","_TfLiteInterpreterGetOutputTensor","__ZNK4logs5proto3geo2ar28RigidTransformWithConfidence12GetClassDataEv","__Z17VirtualMemorySizei","_OPENSSL_sk_set_cmp_func","__ZN6tflite3ops7builtin26bidirectional_sequence_rnn9EvalFloatEPK12TfLiteTensorS5_S5_S5_S5_S5_S5_S5_S5_S5_S5_PK36TfLiteBidirectionalSequenceRNNParamsPS3_S9_S9_S9_","__ZNK4logs5proto3geo2ar25LocalizationResponseEvent12ByteSizeLongEv","__ZN4viro29Node_Geometry_Material_VisualC1ERKS0_","_BORINGSSL_self_test_all","_BCM_mlkem1024_encap","__ZN6icu_7710CharString12appendNumberExR10UErrorCode","_decode_pulses","_OPENSSL_gmtime_adj","_reallocarray","__ZN6tflite3ops7builtin20Register_RELU_0_TO_1Ev","__ZNK3geo2ar9Detection18_InternalSerializeEPhPN6proto22io19EpsCopyOutputStreamE","__ZN22VROShadowMapRenderPass16drawShadowFrustaENSt3__110shared_ptrI8VROSceneEEP16VRORenderContextRNS1_I9VRODriverEE","__ZNK4logs5proto3geo2ar48LowLightImageProcessingConfig_PixelBinningConfig18_InternalSerializeEPhPN6proto22io19EpsCopyOutputStreamE","__ZN21VRORenderTargetOpenGL14blitAttachmentEjjjNSt3__110shared_ptrI15VRORenderTargetEEbNS1_I9VRODriverEE","__ZN12VROBloomTestD2Ev","__ZN3p2t5Sweep23FillRightAboveEdgeEventERNS_12SweepContextEPNS_4EdgeEPNS_4NodeE","__ZN6tflite17ParseGreaterEqualEPKNS_8OperatorEPNS_13ErrorReporterEPNS_20BuiltinDataAllocatorEPPv","__ZN7vraudio17LocklessTaskQueue14PushNodeToListEPNSt3__16atomicIPNS0_4NodeEEES4_","_xnn_compute_grouped_batch_hmp_inline_packed_igemm","__ZN6google3geo2ar2v117GeodeticPosePrior12InternalSwapEPS3_","__ZN6proto22io15FileInputStream22CopyingFileInputStreamD1Ev","_cpuinfo_get_uarchs_count","__ZN7vraudio9WavReader11SeekToFrameEy","__ZNK4absl12crc_internal5CRC3214ExtendByZeroesEPjm","__ZN18VROToneMappingTestD2Ev","__ZN4logs5proto3geo2ar11GeoArLibLog37set_allocated_session_heartbeat_eventEPNS2_21SessionHeartbeatEventE","__Z31btSetCustomEnterProfileZoneFuncPFvPKcE","_MirrorUVRow_NEON","__ZN4logs5proto3geo2ar35NetworkEventAggregate_TimingMetrics12InternalSwapEPS3_","_xnn_define_space_to_depth_2d","_ScaleARGBRowDown2_NEON","__ZN4absl13cord_internal11CordzHandleC1Eb","_EVP_AEAD_max_tag_len","__Z34VROMathInterpolateKeyFrameMatrix4ffRKNSt3__16vectorIfNS_9allocatorIfEEEERKNS0_I11VROMatrix4fNS1_IS6_EEEE","__ZN17VROBodyMesherTestD1Ev","__ZN19VROBodyIKController11setDelegateENSt3__110shared_ptrI27VROBodyIKControllerDelegateEE","__ZN8location8bluemoon20UncertaintyPreserver12VerifyConfigERKNS1_12SignalConfigE","__ZN3geo2ar7service45T2ResolveAnchorAndLocalizeRequest_CameraImageC1EPN6proto25ArenaE","__ZN14OrientationEKFC1Ev","__ZThn88_N11VROSoundGVR9dataErrorENSt3__112basic_stringIcNS0_11char_traitsIcEENS0_9allocatorIcEEEE","__ZN4absl12DoIgnoreLeakEPKv","__ZN27VROPostProcessEffectFactoryD1Ev","__ZN3geo2ar3lib17FacadesClientImplD2Ev","__ZN6tflite3ops7builtin44Register_RESIZE_NEAREST_NEIGHBOR_GENERIC_OPTEv","_OPENSSL_lh_num_items","__ZN3p2t5Sweep9FillBasinERNS_12SweepContextERNS_4NodeE","_uprv_strCompare_77","__ZN4absl18container_internal24RecordStorageChangedSlowEPNS0_14HashtablezInfoEmm","__ZN4absl14flags_internal7UnparseEt","__ZN3geo2ar15QuaternionProtoD1Ev","__ZNK4logs5proto3geo2ar33ParticleFilterEvent_TrackedAnchor12ByteSizeLongEv","__ZN4util17SaveStatusToProtoERKN4absl6StatusEPNS_11StatusProtoE","__ZNK7vraudio14SphericalAngle6RotateERKNS_13WorldRotationE","__ZN4viro22Node_Geometry_Material10SharedDtorEv","__ZN11VROTestUtil22loadRadianceHDRTextureENSt3__112basic_stringIcNS0_11char_traitsIcEENS0_9allocatorIcEEEE","__ZN6tflite16logging_internal13MinimalLogger21GetMinimumLogSeverityEv","__ZN4absl19substitute_internal3ArgC1EPKv","__ZN22VROARConstraintMatcher19processDetachedNodeENSt3__110shared_ptrI20VROARDeclarativeNodeEE","__ZN11VRORenderer12prepareFrameEi11VROViewport14VROFieldOfView11VROMatrix4fS2_NSt3__110shared_ptrI9VRODriverEE","__ZNK4logs5proto3geo2ar52RealDeadReckonedPoseMixerConfig_TransformDifferences12ByteSizeLongEv","__ZN4logs5proto3geo2ar25LocalizationResponseEventC1EPN6proto25ArenaE","__ZN4logs5proto3geo2ar24SmoothedTransformOptionsD1Ev","__ZN6proto22io15CordInputStreamC1EPKN4absl4CordE","__ZN12VROTaskQueue7addTaskENSt3__18functionIFvvEEE","__ZN6tflite9telemetry17TelemetryProfiler16AddEventWithDataEPKcNS_8Profiler9EventTypeEPKv","__ZN24VRODiffuseIrradianceTestD0Ev","__ZN6tflite8Subgraph20ResetVariableTensorsEv","__ZN14VROParticleUBO20getNumberOfDrawCallsEv","__ZN13google_public8protobuf2io16GzipOutputStream5CloseEv","__ZN3geo2ar7service45T2ResolveAnchorAndLocalizeRequest_CameraImage25clear_geodetic_pose_priorEv","_xnn_setup_reduce_nd","__ZN6tflite17ParseSpaceToDepthEPKNS_8OperatorEPNS_13ErrorReporterEPNS_20BuiltinDataAllocatorEPPv","__ZN7octomap23AbstractOccupancyOcTreeC2Ev","__ZNK7vraudio16IosStreamDecoder14GetDecoderTypeEv","__ZN6proto28internal8TcParser9FastF64S1EPNS_11MessageLiteEPKcPNS0_12ParseContextENS0_11TcFieldDataEPKNS0_16TcParseTableBaseEy","__ZN6tflite3ops7builtin19Register_REVERSE_V2Ev","__ZN21VRORenderTargetOpenGL27disablePortalStencilWritingE7VROFace","__ZN6proto28internal8TcParser8FastV8P1EPNS_11MessageLiteEPKcPNS0_12ParseContextENS0_11TcFieldDataEPKNS0_16TcParseTableBaseEy","_BCM_sha512_update","__ZNK6tflite7xnnpack18FileDescriptorView4ReadEPvm","_xnn_tensor_get_size_by_id","__ZN3geo2ar3lib18NetworkMetricsImplC1ENSt3__110shared_ptrINS1_15GeoARHttpClientEEENS4_IKNS1_5ClockEEE","__ZN3geo2ar3lib16Project3x3Config8CopyFromERKS2_","__ZN4logs5proto3geo2ar19ParticleFilterEventC1EPN6proto25ArenaE","__ZN13VROGLTFLoader13getFilterModeEi","__Z19VROMathMultMatricesPKfS0_Pf","_ec_GFp_mont_mul_base","__ZN6proto28internal14WireFormatLite25EnumSizeWithPackedTagSizeERKNS_13RepeatedFieldIiEEmRKNS0_10CachedSizeE","__ZN4viro4NodeD1Ev","__ZN8location8bluemoon14inertialanchor48WrappedCauchyHeadingUncertaintyModelParametersV1C2EPN6proto25ArenaERKS2_","_EVP_has_aes_hardware","__ZN6tflite8resource17IsBuiltinResourceEPK12TfLiteTensor","__ZN3geo2ar28PositionProbabilityGridProtoD2Ev","__ZN6tflite5async20AsyncSignatureRunnerC1EPKNS_8internal12SignatureDefEPNS_8SubgraphE","__ZN8VROIKRigC1ENSt3__110shared_ptrI7VRONodeEENS0_3mapINS0_12basic_stringIcNS0_11char_traitsIcEENS0_9allocatorIcEEEES3_NS0_4lessISA_EENS8_INS0_4pairIKSA_S3_EEEEEE","__ZN13google_public8protobuf12StringPrintfEPKcz","__ZN3geo2ar8geometry5PointC1EPN6proto25ArenaERKS2_","_kai_get_kr_matmul_clamp_qai8_qai8p2vlx4_qsi8cxpsb2vlx4_2vlx2vl_sme2_mopa","_RSA_private_key_from_bytes","__ZN6tflite3ops7builtin15Register_SQUAREEv","__ZN6proto28internal12ExtensionSetD2Ev","__ZN6proto28internal14UntypedMapBase14ClearTableImplEb","__ZN19VROThreadRestricted9setThreadE13VROThreadName","__ZNK16VROShaderProgram15getVertexSourceEv","__ZN24VROBodyAnimDataReaderiOS11loadVersionEP12NSDictionaryNSt3__110shared_ptrI15VROBodyAnimDataEE","__ZN3geo2ar3lib21ParticleTrackingQueue26ReleaseAnchoredLikelihoodsEv","__ZN6google3geo2ar2v119WarmUpCacheResponseC1EPN6proto25ArenaE","__ZN35btSequentialImpulseConstraintSolver38getScalarConstraintRowSolverLowerLimitEv","__ZN9VROIKTest19testSingleTJointRigEv","__ZN7strings25CalculateBase64EscapedLenElb","__ZN8location8bluemoon22RoadOrientationOptionsD1Ev","__ZN3gvr5utils16ToMatrixInternalERK9gvr_mat4f","__ZN4viro28Node_KeyframeAnimation_FrameD1Ev","_ScaleARGBFilterCols_NEON","__Z18radians_to_degreesd","__ZN4logs5proto3geo2ar30RealDeadReckonedPoseMixerEventC1EPN6proto25ArenaE","_I212ToAR30Row_Any_NEON","__ZN4logs5proto3geo2ar48ClearcutLoggingConfig_PoseStabilityMonitorConfig12InternalSwapEPS3_","_kai_run_matmul_clamp_f32_qai8dxp4x8_qsi4cxp4x4_16x4x32_neon_dotprod","_u_strCompareIter_77","_I420ToRAW","__ZN3geo2ar3lib19ActualSurfaceAnchor22UnresolvedStateHandlerD0Ev","__ZN6google8internal7android8location7bluesky4type9GnssClockD0Ev","__ZN6google8internal7android8location7bluesky7v1beta115CompactGridEcefC1EPN6proto25ArenaERKS5_","__ZNK4logs5proto3geo2ar48LowLightImageProcessingConfig_PixelBinningConfig12GetClassDataEv","__ZN4logs5proto3geo2ar48ClearcutLoggingConfig_PoseStabilityMonitorConfigC1EPN6proto25ArenaE","__ZN4absl13time_internal4cctz10TimeZoneIfD0Ev","__ZN6tflite9telemetry17TelemetryProfiler8EndEventEj","__ZN35btSequentialImpulseConstraintSolver7btRand2Ev","__ZNK11VROVector4f8toStringEv","__ZN26VROGeometrySubstrateOpenGLC2ERK11VROGeometryNSt3__110shared_ptrI15VRODriverOpenGLEE","_uprv_ebcdicFromAscii_77","_I420Mirror","__ZN3geo2ar34CameraIntrinsics_FisheyeDistortionD0Ev","__ZNK7S1Angle5Coder6DecodeER7DecoderRS_R7S2Error","__ZN7vraudio23CalculateStereoPanGainsERKNS_14SphericalAngleEPNSt3__16vectorIfNS3_9allocatorIfEEEE","_gvr_audio_is_source_id_valid","__ZN11VROSkeleton28setCurrentBoneWorldTransformENSt3__112basic_stringIcNS0_11char_traitsIcEENS0_9allocatorIcEEEE11VROMatrix4fb","_xnn_allocate_weights_memory","__ZNK4logs5proto3geo2ar9GnssEvent18_InternalSerializeEPhPN6proto22io19EpsCopyOutputStreamE","__ZN11VRORenderer12initRendererENSt3__110shared_ptrI9VRODriverEE","_HMAC_CTX_copy","__ZN13google_public8protobuf2io17CodedOutputStream15WriteRawToArrayEPKviPh","__ZN6google8protobufrMERNS0_8DurationERKS1_","_uprv_realloc_77","__ZN4absl20UnauthenticatedErrorENS_11string_viewENS_14SourceLocationE","__ZN4absl24synchronization_internal13PthreadWaiter4WaitENS0_13KernelTimeoutE","__ZN6tflite3ops7builtin28BuiltinOpResolverWithXNNPACKC2Eb","__ZN3geo2ar45CameraIntrinsics_CityblockFisheyeV2DistortionC1EPN6proto25ArenaE","__ZN6proto22io24ConcatenatingInputStream8ReadCordEPN4absl4CordEi","__ZN6tflite3ops7builtin18squared_difference4InitEP13TfLiteContextPKcm","__ZN7vraudio17OpusStreamDecoder17InitializeForFileERKNSt3__112basic_stringIcNS1_11char_traitsIcEENS1_9allocatorIcEEEEm","__ZN8tcmalloc15MallocExtension14MarkThreadBusyEv","_BN_bn2lebinpad","_xnn_delete_runtime","_xnn_internal_weights_cache_is_finalized","__ZN3geo2ar28PositionProbabilityGridProto8CopyFromERKS1_","__ZN11VROSoundGVR5setupEv","__ZN20btConvexHullInternal6shrinkEff","__ZN6proto28internal16StringPieceField16default_instanceEv","_I422ToARGB4444Row_NEON","__ZNK26VROMonocularDepthEstimator13getCurrentFPSEv","_pthreadpool_parallelize_3d_tile_2d_with_uarch","__ZN13google_public8protobuf2io26CopyingOutputStreamAdaptorD1Ev","__ZN6tflite8Subgraph16RedoAllDelegatesEv","__ZN4absl12log_internal13FlushLogSinksEv","__ZN4absl8ByLengthC1El","__ZN6google3geo2ar2v115LocalizeRequest23clear_camera_parametersEv","__ZNK4absl14flags_internal8FlagImpl15AssertValidTypeEPKvPFPKSt9type_infovE","__ZN19TfLiteExecutionTaskC1Ev","__ZNK13VROQuaternion11toAngleAxisERfR11VROVector3f","__ZNK13google_public8protobuf2io25CopyingInputStreamAdaptor9ByteCountEv","_xnn_qp8_f32_qb4w_gemm_minmax_ukernel_16x4c16s2__neoni8mm_mstep4","__ZN28VROFrameSynchronizerInternal16addFrameListenerENSt3__110shared_ptrI16VROFrameListenerEE","__ZN6google8internal7android8location7bluesky4type15EcefCoordinatesC1EPN6proto25ArenaERKS5_","_silk_PLC_glue_frames","_i2a_ASN1_OBJECT","__ZNK4viro13Node_Skeleton24SerializeWithCachedSizesEPN13google_public8protobuf2io17CodedOutputStreamE","__ZN6UniLib18IsInterchangeValidEi","__ZN13google_public8protobuf8internal15InitEmptyStringEv","__ZN4base8CPUUsageEi","_unquant_energy_finalise","__ZN4viro11Node_CameraD1Ev","__ZN4logs5proto3geo2ar21NetworkEventAggregateC2EPN6proto25ArenaERKS3_","__ZN3geo2ar17EcefTDeviceToPoseERKNS0_11FrameTFrameILNS0_9FrameTypeE5ELS2_4EEE","__ZN4absl13base_internal10MallocHook20InvokeMremapHookSlowEPKvS3_mmiS3_","__ZN4viro20Node_Geometry_Source27MergePartialFromCodedStreamEPN13google_public8protobuf2io16CodedInputStreamE","_stepDetectorInitialize","__ZN13google_public8protobuf7uint128dVERKS1_","_BN_CTX_get","_xnn_pf32_gemm_minmax_ukernel_32x32__neonsme2_get_nr","_I410AlphaToARGBRow_SVE2","__ZN4absl9ToTimevalENS_4TimeE","__ZN8location8bluemoon22CarryPoseChangeOptions8CopyFromERKS1_","__ZN20VROARSessionInertial14setVisionModelENSt3__110shared_ptrI14VROVisionModelEE","__ZN4viro22Node_KeyframeAnimation5ClearEv","__ZN14OrientationEKFD0Ev","__ZN3geo2ar34CameraIntrinsics_FisheyeDistortionD1Ev","__ZN3geo2ar3lib16FacadesModelImplD2Ev","_EVP_PKEY_from_raw_public_key","__ZN10VROMorpher21configureMorphTargetsEv","_EVP_blake2b256","__ZN4util5Clock9RealClockEv","__ZN3ion4base10LogCheckerC1Ev","__ZN3geo2ar3lib21PlatformAnchorManager30GetDevicePoseRelativeToAnchorsEN4absl8DurationERKNS0_11FrameTFrameILNS0_9FrameTypeE9ELS6_4EEE","__ZN4base8internal13SharedContext6CreateEv","__ZN6google8internal7android8location7bluesky7v1beta127GetGridProbabilitiesRequest25clear_inter_system_biasesEv","__ZN4logs5proto3geo2ar20StepDetectionOptionsD0Ev","__ZN6proto28internal23SerializeMessageNoTableEPKNS_11MessageLiteEPNS0_11ArrayOutputE","_xnn_subgraph_check_nth_input_type_dense","__ZN4logs5proto3geo2ar14BlueskyOptionsC2EPN6proto25ArenaERKS3_","__ZN4viro11Node_CameraC2ERKS0_","__ZN4absl13cord_internal12CordRepBtree14ConsumeBeginToEPS1_mm","__ZN4logs5proto3geo2ar35LocalizationFilterLikelihoodOptionsD1Ev","__ZN7vraudio16WavStreamDecoderC2Ev","_uprv_tzname_77","__ZN8WatchDog18SetTimeoutDurationEN4absl8DurationE","__ZN6google3geo2ar2v119StartSessionRequestD0Ev","__ZN4viro13Node_Skeleton4SwapEPS0_","__ZN6tflite3ops7builtin6reduce14ResizeTempDimsEP13TfLiteContextPNS2_9OpContextEP12TfLiteTensor","__ZN15VROARSessioniOS14setVisionModelENSt3__110shared_ptrI14VROVisionModelEE","__ZN6Thread11SetJoinableEb","__ZNK4logs5proto3geo2ar15SessionEndEvent12GetClassDataEv","__ZN3geo2ar19RigidTransformProto12InternalSwapEPS1_","__ZN3geo2ar34CameraIntrinsics_FisheyeDistortion9MergeImplERN6proto211MessageLiteERKS3_","__ZNK8WatchDog16timeout_durationEv","__ZN3geo2ar7service29T2BatchQueryElevationsRequest5ClearEv","__ZN9VROSphereC1Efiib","__ZN4absl13cord_internal12CordRepBtree10CopyPrefixEmb","__ZN6google3geo2ar2v135CloudLocalizationServiceResultProtoC2EPN6proto25ArenaERKS3_","__ZN3geo2ar3lib19NetworkEventMetrics8CopyFromERKS2_","__ZN4logs5proto3geo2ar15QuaternionProtoC2EPN6proto25ArenaERKS3_","__ZN6tflite12tensor_utils8CwiseMulEPKsS2_iiiPs","__ZNK11VRORenderer16getChoreographerEv","__ZN6proto26bridge10MessageSet17IsInitializedImplERKNS_11MessageLiteE","__ZNK4util20NonMessageSetPayload12ByteSizeLongEv","_xnn_setup_copy_nc_x16","__ZN6tflite3ops7builtin4tile4FreeEP13TfLiteContextPv","__ZN6google8internal7android8location7bluesky7v1beta19GridPointC2EPN6proto25ArenaE","__ZN15VROARSessioniOSD0Ev","__ZN6UniLib28FullwidthKatakanaToHalfwidthEN4absl11string_viewE","_RGB24ToYRow_Any_NEON","__ZN6proto28internal8TcParser8FastGdS1EPNS_11MessageLiteEPKcPNS0_12ParseContextENS0_11TcFieldDataEPKNS0_16TcParseTableBaseEy","__Z12RunOnFailurePFv14FailureContextEPv","_kai_get_n_step_matmul_clamp_f32_qai8dxp1x4_qsi4c32p4x4_1x4_neon_dotprod","__ZN4logs5proto3geo2ar13LightEstimate26clear_main_light_intensityEv","__ZNK6google8internal7android8location7bluesky4type9GnssClock18_InternalSerializeEPhPN6proto22io19EpsCopyOutputStreamE","__ZN3geo2ar35CloudLocalizationServiceResultProto19clear_base_t_cameraEv","__ZN11VROPolyline10encodeQuadE14VROLineSegmentbbR13VROByteBuffer","__ZN7vraudio20ReflectionsProcessor6UpdateERKNS_20ReflectionPropertiesERKNS_13WorldPositionE","__ZN24VROAnimatedTextureOpenGLC1E13VROStereoMode","__ZN19VROBodyIKControllerC1ENSt3__110shared_ptrI11VRORendererEENS1_I9VRODriverEENS1_I7VRONodeEE","__ZN7VRONode17setRotationAtomicE13VROQuaternion","__ZNK7vraudio20ClientCallbackStream15GetSampleRateHzEv","_udata_swapDataHeader_77","__ZN8VROIKRigC2ENSt3__110shared_ptrI7VRONodeEENS0_3mapINS0_12basic_stringIcNS0_11char_traitsIcEENS0_9allocatorIcEEEES3_NS0_4lessISA_EENS8_INS0_4pairIKSA_S3_EEEEEE","__ZN3geo2ar3lib62RealDeadReckonedPoseMixerConfig_DeadReckonedPoseEstimateConfig8CopyFromERKS2_","_xnn_pf32_gemm_minmax_ukernel_1x32__neonsme_get_mr","__ZN4viro20Node_Geometry_SourceC2ERKS0_","__ZNK6google3geo2ar2v127PoseLikelihoodFunctionProto12GetClassDataEv","__ZN6thread8Executor30CurrentExecutorPointerInternalEv","__ZNK3geo2ar3lib48ParticleFilterConfig_PositionAndYawFilterOptions12ByteSizeLongEv","__ZN12TraceContext13set_global_idEy","_ScaleRowDown34_0_Box_16_C","_J420ToI420","__ZN8VROLight12setDirectionE11VROVector3f","__ZN4viro32Node_Skeleton_BoneAttachmentPair27MergePartialFromCodedStreamEPN13google_public8protobuf2io16CodedInputStreamE","__ZN25VROGaussianBlurRenderPass6renderENSt3__110shared_ptrI8VROSceneEES3_R24VRORenderPassInputOutputP16VRORenderContextRNS1_I9VRODriverEE","_BCM_mldsa65_public_from_private","__ZN11RunInThread13SignalHandlerEiP9__siginfoPv","__ZN9VROCamera19computeLookAtMatrixEv","__ZN4logs5proto3geo2ar25ImageFrameLocalizerConfigC2EPN6proto25ArenaERKS3_","__ZN14OrientationEKFD1Ev","__ZN4logs5proto3geo2ar47SmoothedTransformOptions_SimpleSmoothingOptionsD2Ev","_cftx020","__ZN13google_public8protobuf8internal14NullLogHandlerENS0_8LogLevelEPKciRKNSt3__112basic_stringIcNS5_11char_traitsIcEENS5_9allocatorIcEEEE","__ZN3geo2ar3lib22RealSessionEventLogger5PauseEv","__ZN4logs5proto3geo2ar26TerrainAnchorResolvedEventC1EPN6proto25ArenaERKS3_","__ZN6proto24util8TimeUtil23MicrosecondsToTimestampEx","__ZN3geo2ar19RigidTransformProto9MergeImplERN6proto211MessageLiteERKS3_","__ZN10VROMorpherD0Ev","__ZN9VROIKTest5buildENSt3__110shared_ptrI11VRORendererEENS1_I20VROFrameSynchronizerEENS1_I9VRODriverEE","_RAND_seed","__ZNK6proto213RepeatedFieldIN4absl4CordEE26SpaceUsedExcludingSelfLongEv","__ZN6tflite8ParseSubEPKNS_8OperatorEPNS_13ErrorReporterEPNS_20BuiltinDataAllocatorEPPv","__ZN8MTRandom9InitArrayEPKji","__ZNK4logs5proto3geo2ar45CameraIntrinsics_CityblockFisheyeV2Distortion12ByteSizeLongEv","__ZN6google3geo2ar2v120PoseEstimationResultD0Ev","_xnn_create_convolution2d_nchw_f32_f16","__ZN7vraudio12GraphManager21GetMutableAudioBufferEi","__ZNK4logs5proto3geo2ar11SensorCount12ByteSizeLongEv","__ZN3geo2ar35CloudLocalizationServiceResultProto5ClearEv","__ZN6google3geo2ar2v117FacadesSnapshotId5ClearEv","__ZN3geo2ar7service21T2WarmUpCacheResponseC2EPN6proto25ArenaERKS2_","_xnn_f32_vrcopysignc_ukernel__neon_u4","_I420ToYUY2","__ZN4logs5proto3geo2ar21SessionHeartbeatEventC2EPN6proto25ArenaE","__ZN4absl18debugging_internal16Utf8ForCodePointC1Ey","__ZN3geo2ar3lib22LocalizationFilterImpl18HandleLocalizationERKNS1_14TrackedAnchorsERKNS0_27PoseLikelihoodFunctionProtoE","_OPENSSL_asprintf","__ZN17VROBodyTrackeriOSD0Ev","__ZN4logs5proto3geo2ar43ParticleFilterConfig_RoadOrientationOptions9MergeImplERN6proto211MessageLiteERKS5_","__ZN3geo2ar17GeodeticPosePriorD2Ev","_EVP_MD_CTX_cleanup","__ZN8MathUtil11ExtendedGCDEjjPiS0_","__ZN3geo2ar33PositionGaussianDistributionProtoC2EPN6proto25ArenaE","__ZN4logs5proto3geo2ar11SensorCount12InternalSwapEPS3_","__ZN4logs5proto3geo2ar11WifiOptions8CopyFromERKS3_","__ZN3ion4base11AllocatableC1Ev","__ZN3geo2ar3lib24HeadingFromMotionOptionsD1Ev","__ZNK4logs5proto3geo2ar24LocalizationRequestEvent12GetClassDataEv","__ZN26VROMonocularDepthEstimator19applyTemporalFilterEPfii","__ZN7vraudio9Resampler7ProcessERKNS_11AudioBufferEPS1_","__ZN8S2CellId15FromDebugStringEN4absl11string_viewE","__ZNK3geo2ar3lib19BasicEarthTrackable13HasEcefTWorldEv","_xnn_create_weights_cache_with_size","__ZN4absl14flags_internal20ParseCommandLineImplEiPPcNS0_16UsageFlagsActionENS0_15OnUndefinedFlagERNSt3__113basic_ostreamIcNS5_11char_traitsIcEEEE","__ZN10VROConvert19toDeviceOrientationE20VROCameraOrientation","__ZN6tflite3ops7builtin4ceil4EvalEP13TfLiteContextP10TfLiteNode","_P210ToAR30Row_NEON","__ZN6google3geo2ar2v126QueryTerrainMeshesResponseD1Ev","__ZN4absl8DurationrMES0_","__ZN6icu_7713UnicodeString5setToEaNS_14ConstChar16PtrEi","_EVP_AEAD_CTX_init","__ZN7vraudio10HoaRotatorC2Ei","__ZN13google_public8protobuf2io16CodedInputStream9PushLimitEi","__ZN19VROBodyIKController18updateCachedJointsERNSt3__13mapI16VROBodyJointType12VROBodyJointNS0_4lessIS2_EENS0_9allocatorINS0_4pairIKS2_S3_EEEEEE","_MergeXRGBRow_NEON","__ZN6google3geo2ar2v134LocationProto_LocationSource_ParseEN4absl11string_viewEPNS2_28LocationProto_LocationSourceE","_SHA512_Init","__ZN11VRODebugHUD7prepareERK16VRORenderContext","__ZN3geo2ar3lib16FacadesModelImpl28MaybeSendQueryFacadesRequestERKNS0_10FramePointILNS0_9FrameTypeE5EEE","__ZNK14VROBoundingBox18getDistanceToPointE11VROVector3f","__ZN4logs5proto3geo2ar39ClearcutLoggingConfig_FrameRejectConfigC1EPN6proto25ArenaE","__ZNK4logs5proto3geo2ar47SmoothedTransformOptions_SimpleSmoothingOptions12GetClassDataEv","__ZN4logs5proto3geo2ar13Vector3dProto9MergeImplERN6proto211MessageLiteERKS5_","__ZN6icu_7710CharString8copyFromERKS0_R10UErrorCode","__ZN3geo2ar3lib52RealDeadReckonedPoseMixerConfig_TransformDifferencesC1EPN6proto25ArenaERKS2_","__ZN6proto28internal8TcParser8FastMdR2EPNS_11MessageLiteEPKcPNS0_12ParseContextENS0_11TcFieldDataEPKNS0_16TcParseTableBaseEy","__ZN9superroot9knowledge9astronomy10StartOfDayEd","__Z23btAlignedAllocSetCustomPFPvmEPFvS_E","__ZN19VROThreadRestrictedD0Ev","__ZN6tflite8Subgraph14PartitionGraphEPK14TfLiteIntArrayPNSt3__16vectorINS_10NodeSubsetENS4_9allocatorIS6_EEEE","__ZN4logs5proto3geo2ar74ClearcutLoggingConfig_PoseStabilityMonitorConfig_PoseJumpLoggingThresholdsC2EPN6proto25ArenaERKS3_","__ZN13google_public8protobuf2io16CodedInputStream27ReadVarintSizeAsIntFallbackEv","__ZN6proto28internal7cleanup9ChunkList11AddFallbackEPvPFvS3_ERNS0_11SerialArenaE","__ZN3geo2ar3lib13LightEstimate8CopyFromERKS2_","_xnn_reshape_convert_nc_f32_qdu8","_xnn_reshape_batch_matrix_multiply_nc_pf32","__ZN3ruy7Context11mutable_ctxEv","__ZN4logs5proto3geo2ar11GeoArLibLog40set_allocated_localization_request_eventEPNS2_24LocalizationRequestEventE","_UYVYToARGBMatrix","__ZN6tflite3ops7builtin25Register_STABLEHLO_GATHEREv","__ZN3geo2ar3lib16CameraModelProto21clear_device_t_cameraEv","__ZN3geo2ar35InertialAnchorPoseDistributionProto8CopyFromERKS1_","__ZNK3geo2ar32CarryPoseChangePerturbationProto18_InternalSerializeEPhPN6proto22io19EpsCopyOutputStreamE","__ZN6google3geo2ar2v128BatchQueryElevationsResponse9MergeImplERN6proto211MessageLiteERKS5_","__ZN6google8internal7android8location7bluesky7v1beta128GetGridProbabilitiesResponse12InternalSwapEPS5_","__ZN6proto28internal16StringPieceField8CopyFromERKN4absl4CordE","__ZNK11VROTriangle10barycenterEv","_EC_KEY_set_ex_data","_kai_get_n_step_matmul_clamp_f32_qai8dxp4x8_qsi4cxp8x8_8x8x32_neon_i8mm","__ZNK4logs5proto3geo2ar18LightEstimateEvent18_InternalSerializeEPhPN6proto22io19EpsCopyOutputStreamE","__ZNK7VRONode17getWorldTransformEv","__ZN6tflite3ops7builtin16Register_SUM_REFEv","__ZN3geo2ar3lib48ParticleFilterConfig_PositionAndYawFilterOptionsC2EPN6proto25ArenaERKS2_","__ZNK4logs5proto3geo2ar26UncertaintyPreserverConfig18_InternalSerializeEPhPN6proto22io19EpsCopyOutputStreamE","__ZN12VROFBXLoader11loadFBXNodeERKN4viro4NodeENSt3__110shared_ptrI11VROSkeletonEENS4_12basic_stringIcNS4_11char_traitsIcEENS4_9allocatorIcEEEE15VROResourceTypeNS5_INS4_3mapISD_SD_NS4_4lessISD_EENSB_INS4_4pairIKSD_SD_EEEEEEEENS5_INSF_ISD_NS5_I10VROTextureEESH_NSB_INSI_ISJ_SP_EEEEEEEENS5_I12VROTaskQueueEENS5_I9VRODriverEE","__ZN6google3geo2ar2v126QueryTerrainMeshesResponse9MergeImplERN6proto211MessageLiteERKS5_","_xnn_setup_fully_connected_nc_f32_qc8w","__ZN4logs5proto3geo2ar15SessionEndEvent5ClearEv","__ZN3geo2ar16CameraParameters20set_allocated_sensorEPNS0_12CameraSensorE","__ZN7vraudio14HoaRotatorNodeC1EiRKNS_14SystemSettingsEi","__ZNK4logs5proto3geo2ar24LocalizationRequestEvent12ByteSizeLongEv","__ZN3geo2ar3lib25ExponentialBackoffRetrierC1EN4absl8DurationES4_NS1_32ExponentialBackoffRetrierOptionsEPN4util5ClockE","_RAWToRGBARow_C","__ZN6tflite3ops7builtin4lstm5basic4EvalEP13TfLiteContextP10TfLiteNode","__ZN21VROImageShaderProgram14bindAttributesEv","__ZN6tflite3ops7builtin19Register_REDUCE_ALLEv","__ZN8location8bluemoon29BoundedUniformScalarPerturberC1Eddd","__ZNK19VROARCameraInertial11getPositionEv","__ZN4logs5proto3geo2ar20StepDetectionOptionsC2EPN6proto25ArenaE","__ZN4logs5proto3geo2ar44EmpiricalHeadingUncertaintyModelParametersV1C1EPN6proto25ArenaERKS3_","__ZN8location8bluemoon22CarryPoseChangeOptions12InternalSwapEPS1_","__ZN4util19UnknownErrorBuilderEN4absl14SourceLocationE","__ZN7vraudio14MonoPoleFilter6FilterERKNS_11ChannelViewEPS1_","__ZN6proto28internal8TcParser8FastUmS2EPNS_11MessageLiteEPKcPNS0_12ParseContextENS0_11TcFieldDataEPKNS0_16TcParseTableBaseEy","__ZN6proto28internal14WireFormatLite11WriteDoubleEidPNS_2io17CodedOutputStreamE","__ZN4utillsERNSt3__113basic_ostreamIcNS0_11char_traitsIcEEEERKNS_13StatusBuilderE","__ZN9VROIKTestD2Ev","_BIO_set_write_buffer_size","__ZN4logs5proto3geo2ar21GnssMeasurementsEventC2EPN6proto25ArenaE","_xnn_create_deconvolution2d_nhwc_f16","__ZN11btRigidBodyC2EfP13btMotionStateP16btCollisionShapeRK9btVector3","__ZN6tflite3ops7builtin12Register_SUMEv","__ZN13google_public8protobuf2io18CopyingInputStreamD0Ev","__ZN6proto211MessageLite20ParseFromCodedStreamEPNS_2io16CodedInputStreamE","_kai_run_lhs_quant_pack_qai8dxp_f32","_EVP_CIPHER_CTX_get_app_data","__ZN6tflite4impl18InterpreterBuilder13ParseSparsityEPKNS_18SparsityParametersEPP14TfLiteSparsity","__ZNK6google3geo2ar2v119QueryFacadesRequest12GetClassDataEv","__ZN3geo2ar3lib12ARCoreConfigC1EPN6proto25ArenaE","_RotatePlane180","_BCM_mldsa44_generate_key_external_entropy_fips","__ZN3geo2ar7service28T2QueryTerrainMeshesResponse5ClearEv","__ZN6proto28internal8TcParser5ErrorEPNS_11MessageLiteEPKcPNS0_12ParseContextENS0_11TcFieldDataEPKNS0_16TcParseTableBaseEy","__ZN3geo2ar27PoseLikelihoodFunctionProto44set_allocated_carry_pose_change_perturbationEPNS0_32CarryPoseChangePerturbationProtoE","__ZN3gvr5utils14ToTimeExternalERKNSt3__16chrono10time_pointINS_9ClockBaseINS1_5ratioILl1ELl1000000000EEEEENS2_8durationIxS6_EEEE","__ZN4absl4Cord9InlineRep16AppendTreeToTreeEPNS_13cord_internal7CordRepENS2_18CordzUpdateTracker16MethodIdentifierE","__ZN11VROPolylineC1Ev","_opus_tags_get_binary_suffix","__ZN24VROToneMappingRenderPass17createPostProcessENSt3__110shared_ptrI9VRODriverEE20VROToneMappingMethod","__ZN3ruy24PackFloatColMajorForNeonEPKfS1_S1_S1_iiiiiPf","__ZN6google3geo2ar2v124CheckAvailabilityRequest14clear_locationEv","_stbi_is_hdr_from_file","__ZN6tflite8Subgraph12SetVariablesENSt3__16vectorIiNS1_9allocatorIiEEEE","__ZNK6google8internal7android8location7bluesky4type10FloatValue12ByteSizeLongEv","_I420ToARGBMatrix","__ZN8location8bluemoon14inertialanchor44EmpiricalHeadingUncertaintyModelParametersV112InternalSwapEPS2_","__ZNK7vraudio17OpusStreamDecoder15IsAtEndOfStreamEv","__ZN6google8protobuf8internal10LogMessagelsEm","__ZNK26VROMonocularDepthEstimator18getDepthDimensionsEPiS0_","__ZNK15VROARSessioniOS22isPreferMonocularDepthEv","__ZN4logs5proto3geo2ar26UncertaintyPreserverConfigC2EPN6proto25ArenaERKS3_","_kai_get_m_step_matmul_clamp_f32_f32p2vlx1_f32p2vlx1biasf32_sme2_mopa","__ZN4logs5proto3geo2ar12ARCoreConfigD2Ev","__ZN4logs5proto3geo2ar23SessionStateChangeEvent5ClearEv","__ZNK14VROBoundingBox13intersectsBoxERKS_","__ZN4logs5proto3geo2ar45AdaptiveImageFrameLocalizerConfig_PitchConfigC2EPN6proto25ArenaERKS3_","_ARGBToUVJ444Row_C","_RGB24ToJ420","__ZNK8octomath10Quaternion7toEulerEv","__ZNK8location8bluemoon25ParticlePositionConverter33GetParticleRotationFromEnuQDeviceERKN5Eigen10QuaternionIdLi0EEE","__ZN11VROPolyline11appendPointE11VROVector3f","__ZN3geo2ar3lib20Config_NetworkConfigC2EPN6proto25ArenaE","__ZN18VROVideoTextureiOS7setLoopEb","__ZN8tcmalloc15MallocExtension33GetCacheDemandReleaseLongIntervalEv","__ZN19VROStereoscopicTestC2Ev","__ZN14VROBoundingBoxC1Effffff","__ZN4logs5proto3geo2ar33ParticleFilterEvent_TrackedAnchor30clear_camera_anchor_covarianceEv","__ZN3geo2ar43PositionProbabilityGridProto_GridPointProto29clear_ecef_coordinates_metersEv","_bn_resize_words","__ZN3geo2ar7service21T2QueryFacadesRequestC2EPN6proto25ArenaE","_kai_get_rhs_packed_offset_rhs_pack_kxn_x16p2vlx2b_x16_x16_sme","__ZN7vraudio17AudioAssetManager11LookupAssetEi","__ZNK6google3rpc6Status12ByteSizeLongEv","__ZN11VROSkeleton28setCurrentBoneWorldTransformEi11VROMatrix4fb","__ZN4absl19GetCurrentTimeNanosEv","__ZN3geo2ar3lib43ParticleFilterConfig_RoadOrientationOptionsD1Ev","_ASN1_OBJECT_free","__ZN3geo2ar22CovarianceMatrix3Proto12InternalSwapEPS1_","__ZN8octomath10QuaternionC1ERKS0_","__ZN9perftools7tracing4core11SyncContext14RemoveListenerEPNS0_18TraceEventListenerE","_ARGBUnattenuateRow_C","__ZNK8S2CellId10ToPointRawEv","__ZN6tflite3ops7builtin14depthwise_conv4FreeEP13TfLiteContextPv","__ZN3geo2ar3lib33SessionStatusMonitorForThirdParty6UpdateEv","_u_terminateWChars_77","__ZN6google8protobuf4util6StatusC2ERKS2_","__ZNK4logs5proto3geo2ar43CameraIntrinsics_CityblockFisheyeDistortion18_InternalSerializeEPhPN6proto22io19EpsCopyOutputStreamE","___google_cxa_guard_acquire_begin","_ECDH_compute_key_fips","__ZN3geo2ar3lib25ImageFrameLocalizerConfigC1EPN6proto25ArenaERKS2_","_xnn_define_quantized_tensor_value","__ZN4logs5proto3geo2ar12BearingEventD1Ev","__ZN3p2t12SweepContext12GetTrianglesEv","__ZN3ion4base19WebSafeBase64DecodeERKNSt3__112basic_stringIcNS1_11char_traitsIcEENS1_9allocatorIcEEEE","_exp_rotation","__ZN3geo2ar3lib20DebugPoseResultProto12InternalSwapEPS2_","__ZN3geo2ar3lib49RealDeadReckonedPoseMixerConfig_UncertaintyRatiosC2EPN6proto25ArenaERKS2_","__ZN6google3geo2ar2v135CloudLocalizationServiceResultProto9MergeImplERN6proto211MessageLiteERKS5_","__ZN6tflite3ops6custom21detection_postprocess28ComputeIntersectionOverUnionEPK12TfLiteTensorii","_gvr_audio_set_room_reverb_adjustments","__ZN3p2t5Sweep8LegalizeERNS_12SweepContextERNS_8TriangleE","__ZN3geo2ar7service45T2ResolveAnchorAndLocalizeRequest_CameraImageC2EPN6proto25ArenaE","__ZN4absl12crc_internal7CRCImpl13FillWordTableEjjiPA256_j","__ZN8tcmalloc10MallocHook13AddDeleteHookEPFvRKNS0_10DeleteInfoEE","_I444Rotate","__ZN6tflite12tensor_utils12NeonCwiseMulEPKsS2_iiiiiPa","_quant_energy_finalise","_TfLiteVersion","_SwapUVRow_Any_NEON","__ZN6tflite3ops7builtin27Register_SQUARED_DIFFERENCEEv","__ZN4logs5proto3geo2ar25TerrainAnchorCreatedEventC1EPN6proto25ArenaERKS3_","__ZN6tflite5async13ExecutionTask15SetBufferHandleE12TfLiteIoTypePKci","__ZN6proto28internal8TcParser8FastMtR2EPNS_11MessageLiteEPKcPNS0_12ParseContextENS0_11TcFieldDataEPKNS0_16TcParseTableBaseEy","__ZN6tflite17CpuBackendContext7CpuInfo3AvxEv","__ZN10VROSkinnerC1ENSt3__110shared_ptrI11VROSkeletonEE11VROMatrix4fNS0_6vectorIS4_NS0_9allocatorIS4_EEEENS1_I17VROGeometrySourceEESA_","__ZN4absl13AbslParseFlagENS_11string_viewEPNS_11LogSeverityEPNSt3__112basic_stringIcNS3_11char_traitsIcEENS3_9allocatorIcEEEE","__ZN13google_public8protobuf2io18StringOutputStreamD1Ev","__ZN6tflite12tensor_utils39NeonMatrixBatchVectorMultiplyAccumulateEPKaPKiS2_iiiiiiPiPsPNS_17CpuBackendContextE","_RSA_get0_p","__ZN4absl14flags_internal15DynValueDeleterC1EPFPvNS0_6FlagOpEPKvS2_S2_E","__ZN20VROInputControllerAR11onRotateEndEv","_uprv_modf_77","__ZN7vraudio17VrAudioEngineImpl15SetHeadRotationEffff","__ZN6google3geo2ar2v114ElevationQueryD1Ev","__ZN6google3geo2ar2v120QueryFacadesResponse9MergeImplERN6proto211MessageLiteERKS5_","__ZNK3geo2ar40CloudLocalizationLikelihoodFunctionProto18_InternalSerializeEPhPN6proto22io19EpsCopyOutputStreamE","__ZN6Varint18Skip64BackwardSlowEPKcS1_","__ZN3geo2ar7service14LocalizeResultD2Ev","__ZN4absl13cord_internal9CordzInfo15FillParentStackEPKS1_PPv","__ZN26VROBodyAnimDataRecorderiOSC2Ev","__ZNK4absl15status_internal9StatusRep5UnrefEv","_CRYPTO_set_ex_data","__ZN3geo2ar3lib20PerformanceMode_NameENS1_15PerformanceModeE","__ZNK3geo2ar3lib15NightTimeConfig12ByteSizeLongEv","__ZN2sm6timing10LocalTimerC2Eb","_ogg_sync_init","__ZN6tflite10ParseShapeEPKNS_8OperatorEPNS_13ErrorReporterEPNS_20BuiltinDataAllocatorEPPv","__ZN3geo2ar33PositionGaussianDistributionProto12InternalSwapEPS1_","__ZN4absl13base_internal13LowLevelAlloc11DeleteArenaEPNS1_5ArenaE","_EC_GROUP_get_order","__ZN4base11WithContextD1Ev","__ZN4logs5proto3geo2ar24LocalizationRequestEvent12InternalSwapEPS3_","__ZN18VROSceneController19onSceneDidDisappearEP16VRORenderContextNSt3__110shared_ptrI9VRODriverEE","__ZN6proto22io18IstreamInputStreamC2EPNSt3__113basic_istreamIcNS2_11char_traitsIcEEEEi","__ZNK6proto211MessageLite31SerializeWithCachedSizesToArrayEPh","_stepDetectorProcess","__ZNK6google8internal7android8location7bluesky4type10Int32Value12GetClassDataEv","__ZN6proto28internal18EpsCopyInputStream18HasEnoughTillLimitEiPKc","__ZN13google_public8protobuf8internal14WireFormatLite11WriteSInt32EiiPNS0_2io17CodedOutputStreamE","__ZN8location8bluemoon36HeadingFromMotionDistributionOptions9MergeImplERN6proto211MessageLiteERKS3_","_SHA224_Update","__ZN3geo2ar3lib23BearingTrackingReporterC2ENSt3__110unique_ptrINS1_22BearingTrackingWrapperENS3_14default_deleteIS5_EEEE","__ZNK3geo2ar40CloudLocalizationLikelihoodFunctionProto12GetClassDataEv","__ZN4viro10Node_LightC2ERKS0_","_CBS_get_optional_asn1_octet_string","_OPENSSL_gmtime_diff","__ZN8VROSceneD2Ev","__ZN4chre17DynamicVectorBase9doReserveEmm","__ZN7vraudio17VrAudioEngineImpl21AudioProcessingThreadEv","__ZNK7vraudio20ClientCallbackStream18EndOfStreamReachedEv","_kai_run_matmul_clamp_f32_qai8dxp4x8_qsi8cxp4x8_16x4_neon_i8mm","__ZN3geo2ar3lib20DebugPoseResultProtoD1Ev","__ZN6tflite8resource16ResourceVariableC2EOS1_","__ZN3geo2ar3lib21ClearcutLoggingConfigC2EPN6proto25ArenaERKS2_","__ZN16VROChoreographer27getPostProcessEffectFactoryEv","__ZN4util17ErrorSpacePayload9MergeImplERN6proto211MessageLiteERKS2_","_ARGBToAR30Row_C","_xnn_experimental_check_build_identifier","__ZN6proto28internal16VerifyUtf8StringEPKcPNS0_12ParseContextE","__ZN9VROSkybox12createSkyboxE11VROVector4f","__ZN6tflite3ops7builtin6reduce14ResizeTempAxisEP13TfLiteContextPNS2_9OpContextEP12TfLiteTensor","__ZN3geo2ar3lib30BatchingSurfaceElevationClient10QueryProxyD2Ev","_kai_get_rhs_packed_offset_matmul_clamp_f32_f32_f32p2vlx1b_1x16vl_sme2_mla","__ZN3geo2ar3lib18NetworkMetricsImpl26OnRequestCompletedCallbackEN4absl11string_viewERKNS3_6StatusENS3_8DurationExx","__ZN7vraudio11DelayFilterC1Emm","__ZN6google8internal7android8location7bluesky7v1beta146GetGridProbabilitiesRequest_ObservationRequestC2EPN6proto25ArenaERKS5_","__ZN4util32internal_status_macros_ret_check21CheckOpMessageBuilderC2EPKc","__ZN3ruy30PackFloatColMajorForNeonA55ishEPKfS1_S1_S1_iiiiiPf","_TransposeUVWx8_NEON","_OPENSSL_sk_delete_if","__ZNK8location8bluemoon26UncertaintyPreserverConfig12GetClassDataEv","__ZN4logs5proto3geo2ar43CameraIntrinsics_CityblockFisheyeDistortion12InternalSwapEPS3_","__ZN4logs5proto3geo2ar11WifiOptionsD1Ev","__ZN4logs5proto3geo2ar14BarometerEventC2EPN6proto25ArenaE","_I012ToP012","__Z23VROMathMultMatrices_dfdPKdPKfPd","__ZNK3geo2ar3lib29LowLightImageProcessingConfig12GetClassDataEv","__ZN6tflite8Subgraph18SetExternalContextEP13TfLiteContext25TfLiteExternalContextTypeP21TfLiteExternalContext","__ZN6tflite3ops7builtin6rfft2d10Rfft2dImplEiiPPdPiS3_","__ZN6proto22io17CodedOutputStreamD2Ev","__ZN4logs5proto3geo2ar25EstimateConfidenceOptions8CopyFromERKS3_","__ZN3geo2ar3lib30BlueskyCoordinatesFromLocationERKNS1_8LocationE","_CBS_stow","_EVP_aes_128_ofb","_ABGRToYRow_C","__ZN6tflite33CalculateActivationRangeQuantizedEP13TfLiteContext21TfLiteFusedActivationP12TfLiteTensorPiS5_","__ZNK3geo2ar3lib21ParticleTrackingQueue14GetEcefTDeviceERKNS1_14TrackedAnchorsE","__ZN3geo2ar19LocationToPoseProtoERKNS0_3lib8LocationE","__ZN22VROBodySurfaceRendererD2Ev","__ZN26VROMaterialSubstrateOpenGL14updateTexturesEv","__ZN3geo2ar3lib11SensorEvent9MergeImplERN6proto211MessageLiteERKS4_","_TfLiteInterpreterOptionsCreate","__ZN8octomath6Pose6DC2Ev","_J422ToABGR","__ZN21VRORenderTargetOpenGL11blitStencilENSt3__110shared_ptrI15VRORenderTargetEEbNS1_I9VRODriverEE","_AR64ToARGBRow_C","_kai_get_kr_matmul_clamp_f32_qai8dxp4x8_qsi4cxp8x8_8x8x32_neon_i8mm","__ZN8location8bluemoon25GaussianPositionPerturberC2ERKN5Eigen6MatrixIdLi3ELi3ELi0ELi3ELi3EEE","__ZN6google8internal7android8location7bluesky4type11DoubleValueC2EPN6proto25ArenaE","__ZN13google_public8protobuf2io18StringOutputStream6BackUpEi","__ZN6google8internal7android8location7bluesky4type10FloatValueD0Ev","__ZN24VROAnimatedTextureOpenGLD1Ev","_SobelXRow_NEON","__ZN4absl12log_internal8VLogSite14SlowIsEnabled4Ei","_I420ToRGB24","__ZN4absl13base_internal23ThrowStdInvalidArgumentEPKc","__ZNK4viro11Node_Camera3NewEPN13google_public8protobuf5ArenaE","__ZN6tflite3ops7builtin11activations8ReluEvalEP13TfLiteContextP10TfLiteNode","__ZN16VROPBRDirectTestD0Ev","__ZN7vraudio21PlanarFromInterleavedEPKfmmRKNSt3__16vectorIPfNS2_9allocatorIS4_EEEEm","__ZN6google3geo2ar2v118WarmUpCacheRequest14clear_locationEv","__ZN4logs5proto3geo2ar44ClearcutLoggingConfig_SessionHeartbeatConfig8CopyFromERKS3_","__ZN6google3geo2ar2v119StartSessionRequestC1EPN6proto25ArenaE","__ZN7tinyobj12LoadMTLFilesENSt3__110shared_ptrINS0_6vectorINS_10material_tENS0_9allocatorIS3_EEEEEENS1_INS0_3mapINS0_12basic_stringIcNS0_11char_traitsIcEENS4_IcEEEEiNS0_4lessISD_EENS4_INS0_4pairIKSD_iEEEEEEEEPSD_NS1_INS0_13basic_istreamIcSB_EEEEPNS_14MaterialReaderE","__ZN6tflite4impl15SignatureRunner6InvokeEv","__ZN4logs5proto3geo2ar35LocalizationFilterLikelihoodOptionsC2EPN6proto25ArenaERKS3_","__ZN3geo2ar3lib45RealDeadReckonedPoseMixerConfig_UncertaintiesC2EPN6proto25ArenaE","__ZN3geo2ar3lib9DebugPoseC1EPN6proto25ArenaE","__ZN3geo2ar7service17T2LocalizeRequest20clear_camera_gravityEv","__ZN7vraudio14Int16FromFloatEmPKfPs","__ZNK6tflite5async20AsyncSignatureRunner13output_tensorEPKc","__ZN18VROParticleEmitter13updateEmitterEdRK11VROMatrix4f","__ZN4absl12log_internal25SetLoggingGlobalsListenerEPFvvE","__ZN7VROText6updateEv","__ZN3geo2ar3lib20ComputeEusDifferenceERKN5Eigen9TransformIdLi3ELi18ELi0EEES6_","__ZN6proto22io16CodedInputStream28BackUpInputToCurrentPositionEv","__ZN7vraudio17VrAudioEngineImpl10PauseSoundEi","__Z16GetKernelVersionP13KernelVersion","__ZN13google_public8protobuf8internal10LogMessageC2ENS0_8LogLevelEPKci","__ZNK4logs5proto3geo2ar48ParticleFilterConfig_PositionAndYawFilterOptions18_InternalSerializeEPhPN6proto22io19EpsCopyOutputStreamE","__ZN8location8bluemoon11WifiOptionsC1EPN6proto25ArenaE","__ZN13google_public8protobuf2io16ArrayInputStream4SkipEi","__ZN3gvr5utils22ToReprojectionInternalE16gvr_reprojection","__ZN2ar5image11IsSplitNv21ERKNS_5ImageE","__ZN6tflite3ops7builtin33Register_LOGISTIC_FIXED_POINT_OPTEv","__ZN3geo2ar17FacadesSnapshotIdC1EPN6proto25ArenaERKS1_","_xnn_reshape_batch_matrix_multiply_nc_qs8_const_weights","__ZN6proto28internal21UnknownGroupLiteParseEPNSt3__112basic_stringIcNS1_11char_traitsIcEENS1_9allocatorIcEEEEPKcPNS0_12ParseContextE","__ZN16VROBodyPlayeriOS16onFrameDidRenderERK16VRORenderContext","__ZN4base7Context12SwapDeadlineEPN4absl4TimeE","__ZN7vraudio21ResonanceAudioApiImpl27FillInterleavedOutputBufferEmmPf","__ZNK4absl4Cord11FingerprintEv","__ZN3geo2ar3lib28GaussianLocalizationReporter28CreatePoseLikelihoodFunctionERKNS1_8LocationERKNS1_23LocationReporterOptionsE","__ZN6proto28internal9LazyField29UnsafeArenaReleaseByPrototypeERKNS_11MessageLiteEPNS_5ArenaE","__ZN8location8bluemoon42UncertaintyPreserverConfig_PerSignalConfigD0Ev","__ZN3geo2ar4PoseC2EPN6proto25ArenaE","__ZN4logs5proto3geo2ar49RealDeadReckonedPoseMixerConfig_UncertaintyRatiosC2EPN6proto25ArenaE","__ZN6google3geo2ar2v120FacadesCacheContents12InternalSwapEPS3_","__ZN8location8bluemoon25EstimateConfidenceOptions9MergeImplERN6proto211MessageLiteERKS3_","__ZN4logs5proto3geo2ar33AdaptiveImageFrameLocalizerConfig8CopyFromERKS3_","__ZN4logs5proto3geo2ar28ClientConfig_RenderingConfigD0Ev","__ZN3geo2ar43CameraIntrinsics_CityblockFisheyeDistortionC1EPN6proto25ArenaE","__ZN3geo2ar2v115facades_service10ToApiProtoERKNS0_7service21T2QueryFacadesRequestE","__ZN4absl10FormatTimeENS_4TimeENS_8TimeZoneE","__ZN6proto24util8TimeUtil22DurationToMillisecondsERKN6google8protobuf8DurationE","__ZN8tcmalloc15MallocExtension26SetGuardedSamplingIntervalEx","__ZN11VROMatrix4f10toIdentityEv","_BIO_callback_ctrl","__ZN6proto22io19EpsCopyOutputStream22GetDirectBufferPointerEPPvPiPPh","__ZN3geo2ar3lib24SmoothedTransformOptionsC1EPN6proto25ArenaE","__ZNK3geo2ar40RoadRelativeOrientationDistributionProto12ByteSizeLongEv","__ZN6google8internal7android8location7bluesky4type14LlaCoordinatesD1Ev","__ZN6proto28internal20RepeatedPtrFieldBase13DestroyProtosEv","_op_head","_TfLiteSignatureRunnerGetOutputTensor","__ZN6google3geo2ar2v118WarmUpCacheRequestD1Ev","__ZNK6google3geo2ar2v14Mesh12ByteSizeLongEv","_ustr_hashCharsN_77","__ZN9perftools7tracing18TraceEventListener11OnTraceMarkENS0_10StringImplILb1EEE","_xnn_create_threadpool_v2","__ZN4logs5proto3geo2ar35NetworkEventAggregate_TimingMetricsC2EPN6proto25ArenaERKS3_","__ZNK4logs5proto3geo2ar19ParticleFilterEvent12GetClassDataEv","_xnn_setup_fully_connected_nc_qp8_f32_qb4w","__ZN3geo2ar3lib16Project3x3ConfigC1EPN6proto25ArenaERKS2_","__ZN12VROTaskQueueC1ENSt3__112basic_stringIcNS0_11char_traitsIcEENS0_9allocatorIcEEEE21VROTaskExecutionOrder","__ZN22VROShadowMapRenderPassD1Ev","__ZN6icu_7713UnicodeStringC2EPKciNS0_10EInvariantE","__ZThn32_N7vraudio28AmbisonicBinauralDecoderNodeD1Ev","__ZNK3geo2ar3lib52RealDeadReckonedPoseMixerConfig_TransformDifferences18_InternalSerializeEPhPN6proto22io19EpsCopyOutputStreamE","__ZN4viro18Node_Skeleton_Bone4SwapEPS0_","__ZN17VROAudioPlayeriOSC1ENSt3__110shared_ptrI7VRODataEE","__ZN4absl14flags_internal22SpecifiedOnCommandLineENS_11string_viewE","__ZN8S2LatLng4InitEP7DecoderR7S2Error","_xnn_qp8_f32_qc4w_gemm_minmax_ukernel_8x8c16s2__neoni8mm_mstep2","_I420AlphaToARGBMatrix","__ZN18VROVideoTextureiOS18getVideoDimensionsEv","_CBS_asn1_oid_to_text","_AR64Shuffle","__ZN4absl14flags_internal14GetUsageConfigEv","__ZN18VROVideoTextureiOS8setMutedEb","__Z4Nicev","__ZN4logs5proto3geo2ar9GnssEventC1EPN6proto25ArenaE","__ZN14VROTextureUtil14readASTCHeaderEPKhiP16VROTextureFormatPiS4_","__ZN6icu_775Edits8Iterator31destinationIndexFromSourceIndexEiR10UErrorCode","__ZN22VROObjectRecognizeriOS18initObjectTrackingE17VROCameraPositionNSt3__110shared_ptrI9VRODriverEE","_BCM_mldsa65_verify","__ZN4util8callback18CancellableClosureC2EP7Closure","__Z29TfLiteDelegatePrepareInternalP13TfLiteContextP14TfLiteDelegate","__ZN3geo2ar14ReferenceFrame5ClearEv","__ZN3geo2ar3lib22EarthAnchorTrackerImpl16CreateEcefAnchorERKNS0_11FrameTFrameILNS0_9FrameTypeE5ELS4_0EEE","__ZN17VRODualQuaternionC2Ev","_BCM_fips_186_2_prf","__ZN13google_public8protobuf2io16ArrayInputStream4NextEPPKvPi","__ZN4absl16strings_internal14CordTestAccess11LengthToTagEm","__ZNK3geo2ar34HeadingFromMotionDistributionProto18_InternalSerializeEPhPN6proto22io19EpsCopyOutputStreamE","_ARGBLumaColorTableRow_C","__ZN4logs5proto3geo2ar34CameraIntrinsics_FisheyeDistortionC1EPN6proto25ArenaE","__ZN15VROSoundDataGVRC2ENSt3__112basic_stringIcNS0_11char_traitsIcEENS0_9allocatorIcEEEE15VROResourceType","__ZN18VROVideoTextureiOS9loadVideoEP12AVPlayerItemNSt3__110shared_ptrI20VROFrameSynchronizerEENS3_I9VRODriverEE","__ZN20VROARObjectTargetiOSD0Ev","__ZNK3geo2ar3lib33AdaptiveImageFrameLocalizerConfig12ByteSizeLongEv","__ZN14VROBoundingBox4copyERKS_","__ZN4util11StatusProto5ClearEv","__ZN7tinyobj14MaterialReaderD2Ev","__ZN13google_public8protobuf2io16GzipOutputStreamC1EPNS1_20ZeroCopyOutputStreamE","__ZN4absllsERNSt3__113basic_ostreamIcNS0_11char_traitsIcEEEENS_6int128E","__ZN3geo2ar3lib20LocalizationProviderD0Ev","_pthreadpool_parallelize_2d_tile_1d_with_uarch_with_thread","_GARProtoStringToNSString","__ZN3geo2ar7service11CellFacadesC1EPN6proto25ArenaERKS2_","_EVP_get_digestbyname","__ZN3geo2ar35CloudLocalizationServiceResultProtoC1EPN6proto25ArenaE","__ZN6tflite12tensor_utils30MatrixScalarMultiplyAccumulateEPKaiiiPi","_d2i_DSAparams","_pthreadpool_parallelize_4d","__ZN4util30FailedPreconditionErrorBuilderEN4absl14SourceLocationE","__ZN10VROTexture8setWrapSE11VROWrapMode","__ZN22VROAVCaptureControllerD1Ev","__ZNK6icu_7713UnicodeString23doCompareCodePointOrderEiiPKDsii","__ZN4logs5proto3geo2ar43CameraIntrinsics_CityblockFisheyeDistortionC1EPN6proto25ArenaE","__ZN4absl14flags_internal7UnparseENS_7uint128E","__ZN3ruy29Pack8bitColMajorForNeonA55ishEPKvS1_S1_S1_iiiiiiPaPii","__ZN4absl12log_internal12ExitOnDFatalEv","__ZNK21VRORenderTargetOpenGL10getTextureEi","__ZN6proto22io20ByteSinkOutputStreamD2Ev","__ZNK11VROVector3f16distanceAccurateERKS_","__ZN3ion4port10StackTraceC1Ev","__ZN13VROByteBuffer10readDoubleEv","__ZN3geo2ar39PositionAndYawGaussianDistributionProto5ClearEv","__ZN14VROParticleUBOD0Ev","__ZN4absl9FromUDateEd","__ZN4util11StatusProtoC2EPN6proto25ArenaERKS0_","__ZN3geo2ar7service30T2BatchQueryElevationsResponseC2EPN6proto25ArenaE","__ZN8location8bluemoon14inertialanchor48WrappedCauchyHeadingUncertaintyModelParametersV1D2Ev","_cpuinfo_get_clusters","_stbi_zlib_decode_malloc","_kai_get_nr_matmul_clamp_qai8_qai8p2vlx4_qsi8cxpsb2vlx4_2vlx2vl_sme2_mopa","_AR30ToAB30Row_C","_xnn_setup_transpose_nd_x16","__ZN3geo2ar9Detection12InternalSwapEPS1_","__ZN6tflite3ops7builtin24Register_ASSIGN_VARIABLEEv","__ZN4logs5proto3geo2ar14BarometerEventD0Ev","__ZN7vraudio9MixerNodeC1ERKNS_14SystemSettingsEm","__ZN4viro18Node_Geometry_SkinD0Ev","__Z30VROGeometryUtilGetIndicesCounti24VROGeometryPrimitiveType","__ZNK6tflite8internal7MfccDct7ComputeERKNSt3__16vectorIdNS2_9allocatorIdEEEEPS6_","__ZN3geo2ar3lib33NetworkEventMetrics_TimingMetrics9MergeImplERN6proto211MessageLiteERKS4_","_kai_run_matmul_clamp_f32_qai8dxp1x4_qsi8cxp4x4_1x4_neon_dotprod","__ZN6tflite3ops7builtin16embedding_lookup10EvalSimpleEP13TfLiteContextP10TfLiteNodePK12TfLiteTensorS9_PS7_","__ZN13VROByteBufferC2ERKNSt3__112basic_stringIcNS0_11char_traitsIcEENS0_9allocatorIcEEEE","_xnn_setup_convolution2d_nchw_f16","__ZN6tflite3ops7builtin28unidirectional_sequence_lstm4FreeEP13TfLiteContextPv","__ZN3geo2ar3lib31NetworkEventMetrics_DataMetricsC2EPN6proto25ArenaERKS2_","__ZNK7generic8UniqueId8ToStringEv","__ZN7vraudio20CreateShHrirsFromWavERKNS_3WavEiPNS_9ResamplerE","__ZN4logs5proto3geo2ar23SessionStateChangeEvent9MergeImplERN6proto211MessageLiteERKS5_","__ZN6proto28internal18InlinedStringField3SetEONSt3__112basic_stringIcNS2_11char_traitsIcEENS2_9allocatorIcEEEEPNS_5ArenaEbPjjPNS_11MessageLiteE","__ZN16VROShaderFactory29createToneMappingMaskModifierEv","__ZN4logs5proto3geo2ar33CameraIntrinsics_RadialDistortionC1EPN6proto25ArenaE","_EVP_MD_CTX_block_size","__ZN19VROBodyIKController23findTorsoClusteredDepthERNSt3__13mapI16VROBodyJointType12VROBodyJointNS0_4lessIS2_EENS0_9allocatorINS0_4pairIKS2_S3_EEEEEER11VROMatrix4f","__ZN6icu_7713UnicodeStringC2Ei","__ZN21VRORenderTargetOpenGL9blitColorENSt3__110shared_ptrI15VRORenderTargetEEbNS1_I9VRODriverEE","__ZN6tflite8resource16ResourceVariableD2Ev","__ZN10VROSurfaceD1Ev","__ZN3geo2ar3lib19FrameSelectorConfigC2EPN6proto25ArenaE","__ZN8VROScene11getRootNodeEv","__ZN3geo2ar3lib9DebugPoseC1EPN6proto25ArenaERKS2_","__ZN3geo2ar7service21LocalizeResult_ResultC2EPN6proto25ArenaE","__ZN6google3geo2ar2v111TerrainMeshC2EPN6proto25ArenaERKS3_","__ZN8location8bluemoon20StepDetectionOptionsC1EPN6proto25ArenaERKS1_","__ZN11VROTypefaceD0Ev","__ZN4logs5proto3geo2ar36HeadingFromMotionDistributionOptions8CopyFromERKS3_","__ZN6tflite3ops7builtin4svdf4EvalEP13TfLiteContextP10TfLiteNode","__ZN11VROPolylineC2Ev","_u_strrstr_77","_EVP_aes_192_ecb","__ZN6google8internal7android8location7bluesky4type15GnssMeasurement8CopyFromERKS5_","_i2d_DSAPublicKey","__ZN4logs5proto3geo2ar21SetCameraTDeviceEvent21clear_camera_t_deviceEv","__ZN15VROARSessioniOS31hostCloudAnchorWithNativeAnchorEP8ARAnchoriNSt3__18functionIFvNS2_10shared_ptrI11VROARAnchorEEEEENS3_IFvNS2_12basic_stringIcNS2_11char_traitsIcEENS2_9allocatorIcEEEEEEE","__ZN4absl18SetStderrThresholdENS_18LogSeverityAtLeastE","__ZN3geo2ar3lib28ParticleTrackingQueueOptionsD0Ev","_CRYPTO_get_ex_data","__ZN14VROPhysicsBody13getUseGravityEv","__ZN4logs5proto3geo2ar44EmpiricalHeadingUncertaintyModelParametersV1D2Ev","_bn_set_words","_udata_printError_77","__ZN4absl13base_internal19ThrowStdDomainErrorEPKc","__ZN18GeoARPlaneProviderC2Ev","__ZN6tflite20CalculateInputRadiusEiii","_uprv_pow_77","__ZN9VROSphere15setFacesOutwardEb","_uprv_getNaN_77","_TransposeWx16_Any_NEON","__ZN3ruy3Ctx12mutable_implEv","__ZNK4viro11Node_Matrix12ByteSizeLongEv","__ZNK6R2Rect7ProjectERK7Vector2IdE","__ZN4logs5proto3geo2ar11GeoArLibLog27set_allocated_bearing_eventEPNS2_12BearingEventE","_BCM_mlkem768_check_fips","__ZN4viro22Node_SkeletalAnimation10SharedDtorEv","__ZN14FlagRegistererC1EPKcS1_S1_S1_PvS2_","__ZNK14btAngularLimit7getHighEv","__ZN6tflite9telemetry23TfLiteTelemetryProfiler22ReportTelemetryOpEventEPKcxxNS0_19TelemetryStatusCodeE","_kai_get_kr_matmul_clamp_f32_qai8dxp1x8_qsi4cxp8x8_1x8x32_neon_dotprod","__ZN4absl14flags_internal13AbslParseFlagENS_11string_viewEPxPNSt3__112basic_stringIcNS3_11char_traitsIcEENS3_9allocatorIcEEEE","__ZN4absl13base_internal16InitSigSafeArenaEv","__ZN4logs5proto3geo2ar74ClearcutLoggingConfig_PoseStabilityMonitorConfig_PoseJumpLoggingThresholdsD1Ev","__ZN6thread6python20MaybeAdjustStackSizeEmPKc","__ZN7VROText12setTypefacesENSt3__112basic_stringIcNS0_11char_traitsIcEENS0_9allocatorIcEEEEi12VROFontStyle13VROFontWeight","_DH_get0_priv_key","__ZN4absl17BadStatusOrAccessC2ENS_6StatusE","__ZNK6google3geo2ar2v119StartSessionRequest12ByteSizeLongEv","__ZN4absl14flags_internal15AbslUnparseFlagERKNSt3__16vectorINS1_12basic_stringIcNS1_11char_traitsIcEENS1_9allocatorIcEEEENS6_IS8_EEEE","__ZThn24_N22VROBodyRecognitionTest17onBodyJointsFoundERKNSt3__16vectorINS1_I20VROInferredBodyJointNS0_9allocatorIS2_EEEENS3_IS5_EEEE","__ZN3geo2ar3lib18TerrainAlignmentFnC1EN4absl12AnyInvocableIKFNSt3__18optionalIdEERK8S2LatLngEEEPKNS1_13FrameSnapshotENS5_10shared_ptrIKNS1_13PlaneProviderEEE","_boringssl_self_test_mlkem","__ZN6proto22io18StringOutputStreamC2EPNSt3__112basic_stringIcNS2_11char_traitsIcEENS2_9allocatorIcEEEE","_xnn_reshape_batch_matrix_multiply_nc_qdu8_f32_qc8w","__ZN3geo2ar3lib45AdaptiveImageFrameLocalizerConfig_PitchConfigC2EPN6proto25ArenaE","_EC_POINT_set_affine_coordinates_GFp","_BN_mod_sub_quick","_utf8_range_IsValid","__ZNK4logs5proto3geo2ar33ParticleFilterEvent_TrackedAnchor18_InternalSerializeEPhPN6proto22io19EpsCopyOutputStreamE","__ZN6icu_775Edits8IteratorC1EPKtiaa","__Z36matrix_from_perspective_fov_aspectLHffff","_OPENSSL_sk_insert","__ZN3geo2ar15QuaternionProtoC1EPN6proto25ArenaERKS1_","__ZN6tflite3ops7builtin19Register_L2NORM_REFEv","__ZN23VROFixedParticleEmitterC2ENSt3__110shared_ptrI9VRODriverEE","__ZN6proto211MessageLite23ParsePartialFromIstreamEPNSt3__113basic_istreamIcNS1_11char_traitsIcEEEE","_uprv_fmin_77","_CBS_get_asn1_bool","__ZN3geo2ar3lib45AdaptiveImageFrameLocalizerConfig_PitchConfig12InternalSwapEPS2_","__ZN3geo2ar7service30T2BatchQueryElevationsResponseC2EPN6proto25ArenaERKS2_","__ZN6icu_775Edits5resetEv","__ZN6google8internal7android8location7bluesky7v1beta115CompactGridEcefC2EPN6proto25ArenaERKS5_","__ZN25VROTextureSubstrateOpenGLD1Ev","_AES_wrap_key","__ZN21SimpleJpegEncodeParamC1Ev","__ZN24VROBodyTrackerController24projectJointsInto3DSpaceERNSt3__13mapI16VROBodyJointType12VROBodyJointNS0_4lessIS2_EENS0_9allocatorINS0_4pairIKS2_S3_EEEEEE","__ZNK14VROLineSegment18angle2DWithSegmentES_","_ec_affine_select","_HalfMergeUVRow_NEON","__ZN8location8bluemoon21MatchedPositionAndYawC2ERKN3geo2ar35CloudLocalizationServiceResultProtoERKNS0_24CloudLocalizationOptionsERKNS0_25ParticlePositionConverterERKN5Eigen9TransformIdLi3ELi18ELi0EEEdRKNS0_15ParticleSamplerE","__Z29IsFailureSignalHandlerRunningv","__ZN3geo2ar3lib20Config_NetworkConfigD2Ev","__ZN6google8internal7android8location7bluesky7v1beta128GetGridProbabilitiesResponseC1EPN6proto25ArenaERKS5_","__ZN6tflite3ops7builtin10zeros_like4EvalEP13TfLiteContextP10TfLiteNode","__ZN8location8bluemoon20PositionAndYawFilterC1ERKNS0_27PositionAndYawFilterOptionsE","__ZN10VROReticleC1ENSt3__110shared_ptrI10VROTextureEE","__ZN6google8protobuf8DurationC1EPN6proto25ArenaE","_create_fully_connected_nc_qx8_f16_qc8w","__ZN13google_public8protobuf8internal8InfinityEv","__ZN6tflite8Subgraph29CheckInputAndOutputForOverlapEPKiiS2_i","__ZN4viro18Node_Skeleton_BoneD1Ev","__ZN3geo2ar3lib3hfm26VioCovarianceToXYZHamiltonERKN5Eigen6MatrixIdLi6ELi6ELi0ELi6ELi6EEE","__ZNK8location8bluemoon14inertialanchor44EmpiricalHeadingUncertaintyModelParametersV112ByteSizeLongEv","__ZNK3geo2ar8geometry4Mesh12GetClassDataEv","_BN_print","_create_fully_connected_nc_qx8_f16_qc4w","__ZN23btDiscreteDynamicsWorld25releasePredictiveContactsEv","__ZN4logs5proto3geo2ar48LowLightImageProcessingConfig_PixelBinningConfigD0Ev","__ZN17VROAudioPlayeriOSC2ENSt3__110shared_ptrI12VROSoundDataEE","_BN_zero","__ZN3geo2ar3lib13LightEstimateC2EPN6proto25ArenaE","__ZNK3geo2ar3lib74ClearcutLoggingConfig_PoseStabilityMonitorConfig_PoseJumpLoggingThresholds12GetClassDataEv","__ZN6icu_7713UnicodeString13releaseBufferEi","__ZN3ruy9Allocator33AllocateBytesAvoidingAliasingWithElPKv","_EC_KEY_generate_key_fips","__ZNK10VROTexture10isHydratedEv","__ZNK3geo2ar7service21LocalizeResult_Result12GetClassDataEv","__ZNK8location8bluemoon14BlueskyOptions18_InternalSerializeEPhPN6proto22io19EpsCopyOutputStreamE","__ZNK3geo2ar3lib22InertialAnchorReporter26IsMagneticFieldInitializedEv","__ZN3geo2ar28PositionProbabilityGridProtoD0Ev","__ZN6proto22io16FileOutputStreamD2Ev","__ZNK13VROQuaternioneqERKS_","__ZN3geo2ar3lib16ExpandGridPointsERKN6google8internal7android8location7bluesky7v1beta115CompactGridEcefE","__ZN4logs5proto3geo2ar11GeoArLibLog8CopyFromERKS3_","__ZN14VROTypefaceiOS9loadGlyphEjjj18VROGlyphRenderMode","__ZN3geo2ar3lib52RealDeadReckonedPoseMixerConfig_TransformDifferences8CopyFromERKS2_","__ZN27VROPostProcessEffectFactory11createPixelENSt3__110shared_ptrI9VRODriverEE","_stbi_load_from_file","__ZN4viro18Node_Geometry_Skin4SwapEPS0_","__ZN14VROPhysicsTest16createPhysicsBoxE11VROVector3fNSt3__112basic_stringIcNS1_11char_traitsIcEENS1_9allocatorIcEEEE","__ZN6tflite11ParseUnpackEPKNS_8OperatorEPNS_13ErrorReporterEPNS_20BuiltinDataAllocatorEPPv","__ZN4absl12log_internal18RawEnableLogPrefixEb","__ZN6tflite20IsValidationSubgraphEPKc","_movingAverageOutput","__ZN4logs5proto3geo2ar39ClearcutLoggingConfig_FrameRejectConfigD1Ev","__ZN3ion4port16ReadDataFromFileERKNSt3__112basic_stringIcNS1_11char_traitsIcEENS1_9allocatorIcEEEEPS7_","__ZN4absl12crc_internal20ExtendCrc32cInternalENS_8crc32c_tENS_11string_viewE","_alg_unquant","__ZNK9perftools7tracing4core11SyncContext4Impl4CopyEv","__ZN2ar5image25IsPublicRectangularFormatENS0_6FormatE","__ZN14VROGlyphOpenGL10loadBitmapEP11FT_FaceRec_jjPNSt3__16vectorINS2_10shared_ptrI13VROGlyphAtlasEENS2_9allocatorIS6_EEEENS4_I9VRODriverEE","__ZN8location8bluemoon14inertialanchor48WrappedCauchyHeadingUncertaintyModelParametersV15ClearEv","__ZN14VROGlyphOpenGL18triangulateContourER13VROVectorizeri","__ZN8Vector3d12setComponentEid","_I422ToRGBA","__ZN6tflite3ops7builtin14Register_SPLITEv","__ZN10VROTextureC2Eb13VROMipmapModeNSt3__110shared_ptrI8VROImageEE13VROStereoMode","__ZN6proto28internal14ArenaStringPtr7DestroyEv","_ecdsa_sign_fixed_with_nonce_for_known_answer_test","__Z7convertN4viro29Node_Geometry_Source_SemanticE","_bn_rand_secret_range","__ZN6proto28internal14WireFormatLite9SkipFieldEPNS_2io16CodedInputStreamEjPNS2_17CodedOutputStreamE","__ZN4absl16strings_internal32CappedDamerauLevenshteinDistanceENS_11string_viewES1_h","_I210ToARGBRow_NEON","__ZN3ruy9AllocatorD2Ev","__ZN11VRODebugHUDD2Ev","__ZN6thread5local8internal3VarC2EPNS1_8InstanceE","_udata_swapInvStringBlock_77","__ZN4absl13base_internal12SpinLockWaitEPNSt3__16atomicIjEEiPKNS0_22SpinLockWaitTransitionENS0_14SchedulingModeE","__ZN6tflite3ops7builtin4lstm4full4InitEP13TfLiteContextPKcm","_uprv_tzset_77","_kai_get_rhs_packed_offset_matmul_clamp_f32_qai8dxp4x4_qsi8cxp4x4_16x4_neon_dotprod","_kai_get_bias_offset_rhs_pack_nxk_x16p2vlx2b_x16_x16_sme","_DivideRow_16_NEON","__Z43Hash64StringWithSeedReferenceImplementationPKcmy","_EVP_PKEY_copy_parameters","__ZN4absl12log_internal24CheckstrcasecmpfalseImplEPKcS2_S2_","__ZNK7VRONode20getLastWorldRotationEv","__ZN16VROTextFormatter11wrapByWordsERNSt3__112basic_stringIwNS0_11char_traitsIwEENS0_9allocatorIwEEEEffif15VROTextClipModeRNS0_3mapIjNS0_10shared_ptrI8VROGlyphEENS0_4lessIjEENS4_INS0_4pairIKjSC_EEEEEE","_sampleDecimatorShouldUseReading","__ZN3geo2ar3lib21QuaterniondToLogProtoERKN5Eigen10QuaternionIdLi0EEE","__ZN4logs5proto3geo2ar19FrameSelectorConfigD2Ev","__ZN4viro10Node_LightC2Ev","_BN_CTX_new","__ZN6proto28internal8TcParser9FastV64R2EPNS_11MessageLiteEPKcPNS0_12ParseContextENS0_11TcFieldDataEPKNS0_16TcParseTableBaseEy","__ZN15VROPhysicsWorld17removePhysicsBodyENSt3__110shared_ptrI14VROPhysicsBodyEE","__ZN4base8internal16IsSeccompEnabledEv","__ZNK3geo2ar3lib45RealDeadReckonedPoseMixerConfig_Uncertainties18_InternalSerializeEPhPN6proto22io19EpsCopyOutputStreamE","__ZN4logs5proto3geo2ar15ErrorCountEventC1EPN6proto25ArenaE","__ZN4logs5proto3geo2ar45AdaptiveImageFrameLocalizerConfig_PitchConfigC1EPN6proto25ArenaERKS3_","__ZN6proto26bridge10MessageSet12InternalSwapEPS1_","__ZN6tflite3ops7builtin7bitcast4EvalEP13TfLiteContextP10TfLiteNode","__ZN3geo2ar8geometry4Mesh5ClearEv","__ZN22VROBodyRecognitionTestD2Ev","__ZN3geo2ar27PoseLikelihoodFunctionProto21clear_likelihood_typeEv","_kai_get_lhs_packed_offset_matmul_clamp_f32_qai8dxp1x8_qsi4cxp8x8_1x8x32_neon_dotprod","__ZN3geo2ar3lib18NetworkMetricsImplC2ENSt3__110shared_ptrINS1_15GeoARHttpClientEEENS4_IKNS1_5ClockEEE","__ZN13google_public8protobuf8internal14WireFormatLite13WriteSFixed32EiiPNS0_2io17CodedOutputStreamE","__ZN4absl19str_format_internal17FormatConvertImplEjNS0_24FormatConversionSpecImplEPNS0_14FormatSinkImplE","__ZN3geo2ar9DetectionC2EPN6proto25ArenaE","__ZN3geo2ar3lib52RealDeadReckonedPoseMixerConfig_TransformDifferencesD0Ev","__ZNK4absl13time_internal4cctz9time_zone4nameEv","__ZN6tflite13DynamicBuffer15AddJoinedStringERKNSt3__16vectorIN4mlir3TFL9StringRefENS1_9allocatorIS5_EEEEc","__ZN3geo2ar3lib47SmoothedTransformOptions_SimpleSmoothingOptionsC2EPN6proto25ArenaE","__ZN4viro22Node_KeyframeAnimationD0Ev","__ZN4absl12log_internal10LogMessage12OutputToSinkEPNS_7LogSinkEb","__ZN3gvr5utils18ToRotationInternalERK9gvr_quatf","__ZN3p2t5Sweep24FillRightConvexEdgeEventERNS_12SweepContextEPNS_4EdgeERNS_4NodeE","__ZN19VROBodyIKController18scaleBoneTransformENSt3__112basic_stringIcNS0_11char_traitsIcEENS0_9allocatorIcEEEES6_11VROVector3f","_kai_get_m_step_matmul_clamp_f32_qai8dxp1x8_qsi4cxp8x8_1x8x32_neon_dotprod","_ScaleRowDown4Box_Any_NEON","_CBS_get_optional_asn1_bool","__ZN26VROPortalTraversalListenerD0Ev","__ZN4absl12log_internal10LogMessage14SetFailQuietlyEv","__ZN4absl13cord_internal9CordzInfo7UntrackEv","__ZN3geo2ar3lib19FrameSelectorConfig12InternalSwapEPS2_","__ZN3geo2ar3lib11SensorEvent27set_allocated_accelerometerEPNS0_13Vector3dProtoE","__ZN2ar5image22ImageAllocationOptionsC1Ev","__ZN4logs5proto3geo2ar27PoseLikelihoodFunctionProtoD1Ev","_utf8_back1SafeBody_77","_create_fully_connected_nc_qx8_qc8w","__ZN4base6Tracer12SetStartTimeEN4absl4TimeE","_opus_fft_c","_kai_get_dst_offset_matmul_clamp_f32_qai8dxp4x8_qsi4cxp4x4_16x4x32_neon_dotprod","_op_read_float_stereo","__ZN9perftools7tracing18TraceEventListener18OnTraceSuspendSyncEj","_xnn_subgraph_check_input_type_dense","_SplitRGBRow_Any_NEON","__ZN3geo2ar3lib48ParticleFilterConfig_PositionAndYawFilterOptions9MergeImplERN6proto211MessageLiteERKS4_","_BN_mul_word","__ZN6thread5local8internal10ThreadInfoD2Ev","_uprv_ebcdicToAscii_77","__ZN3geo2ar3lib31RealDeadReckonedPoseMixerConfigC1EPN6proto25ArenaE","_ARGB1555ToUVRow_C","__ZN3geo2ar7service14ElevationQueryD0Ev","__ZN6icu_7713UnicodeStringD0Ev","__ZN8tcmalloc10MallocHook24InvokeSampledNewHookSlowERKNS0_12SampledAllocE","__ZN7vraudio14SphericalAngle11FromDegreesEff","_CRYPTO_is_confidential_build","__ZN13google_public8protobuf8internal5MutexD1Ev","__ZN16VROShaderFactory28createColorLinearizationCodeEv","__ZN3ion4base9AllocatorD1Ev","__ZNK8WatchDog22PrintExpirationMessageEPciRKNS_13WatchDogStateEN4absl4TimeE","__ZNK19GeoAREncodableImage12EncodeAsJpegEi","_ABGRToARGB","__ZN6tflite3ops7builtin14Register_SLICEEv","__ZN8location8bluemoon26UncertaintyPreserverConfig9MergeImplERN6proto211MessageLiteERKS3_","__ZN4logs5proto3geo2ar27PoseLikelihoodFunctionProto23set_allocated_sun_angleEPNS2_24SunAngleDistibutionProtoE","__ZN3geo2ar49HorizontalPositionAndYawGaussianDistributionProtoD0Ev","__ZN4logs5proto3geo2ar44EmpiricalHeadingUncertaintyModelParametersV1C2EPN6proto25ArenaERKS3_","__ZN6tflite12ParseReducerEPKNS_8OperatorEPNS_13ErrorReporterEPNS_20BuiltinDataAllocatorEPPv","_FIPS_version","__ZN8octomath6Pose6D6inv_IPEv","_cftf040","__ZN23btGeneric6DofConstraint13buildJacobianEv","_BCM_sha384_update","__ZNK3geo2ar45CameraIntrinsics_CityblockFisheyeV2Distortion18_InternalSerializeEPhPN6proto22io19EpsCopyOutputStreamE","__ZNK6tflite7xnnpack14FileDescriptor9DuplicateEv","__ZN6tflite14ParseTransposeEPKNS_8OperatorEPNS_13ErrorReporterEPNS_20BuiltinDataAllocatorEPPv","__ZN22VROInputControllerBase13setProjectionE11VROMatrix4f","__ZN6tflite7ParseIfEPKNS_8OperatorEPNS_13ErrorReporterEPNS_20BuiltinDataAllocatorEPPv","__ZN6proto28internal18PackedUInt64ParserEPvPKcPNS0_12ParseContextE","__ZN6proto28internal18InlinedStringField9ArenaInitERNS_5ArenaERKNSt3__112basic_stringIcNS4_11char_traitsIcEENS4_9allocatorIcEEEE","__ZN3geo2ar3lib41WrappedCauchyModelParamsV1ProtoFromNanopbERK82_location_bluemoon_inertialanchor_WrappedCauchyHeadingUncertaintyModelParametersV1","__ZNK6tflite5async13ExecutionTask15GetBufferHandleE12TfLiteIoTypePKc","__ZN6tflite12tensor_utils28PortableVectorScalarMultiplyEPKaifPf","__ZN7vraudio11ChannelViewmLERKS0_","__ZN22VROBodyRecognitionTestC2Ev","__ZN4logs5proto3geo2ar45RealDeadReckonedPoseMixerConfig_Uncertainties5ClearEv","__ZN7VRONode16clearPhysicsBodyEv","__Z20Thread_ExtractStacksP17ThreadStackWriter","__ZN8tcmalloc15MallocExtension34SetCacheDemandReleaseShortIntervalEN4absl8DurationE","_AB64ToARGBRow_C","__ZNK3geo2ar7service33T2ResolveAnchorAndLocalizeRequest18_InternalSerializeEPhPN6proto22io19EpsCopyOutputStreamE","__ZN13google_public8protobuf13SetLogHandlerEPFvNS0_8LogLevelEPKciRKNSt3__112basic_stringIcNS4_11char_traitsIcEENS4_9allocatorIcEEEEE","__ZN6tflite13CombineHashesESt16initializer_listImE","__ZNK13VROQuaternion9getMatrixEv","__ZN21VRORenderTargetOpenGL4bindEv","_pthreadpool_parallelize_3d","__ZNK8VROScene7hasNodeENSt3__110shared_ptrI7VRONodeEE","__ZNK3geo2ar7service20T2WarmUpCacheRequest12ByteSizeLongEv","__ZN4absl12log_internal10LogMessagelsENSt3__117basic_string_viewIwNS2_11char_traitsIwEEEE","_EC_POINT_free","__ZN3geo2ar3lib19FrameSelectorConfig8CopyFromERKS2_","__ZN4logs5proto3geo2ar19RigidTransformProtoD2Ev","__ZN7vraudio20ClientCallbackStreamD0Ev","__ZN6tflite3ops7builtin14transpose_conv4FreeEP13TfLiteContextPv","__ZN14OrientationEKF19processAccelerationE11_GLKVector3d","__ZN14VROModelIOUtil12hydrateAsyncENSt3__110shared_ptrI7VRONodeEENS0_8functionIFvvEEERNS1_I9VRODriverEE","_bn_set_static_words","_EVP_aead_aes_256_gcm_tls12","_GaussCol_F32_C","_RGB24ToUVJRow_NEON","__ZN4cnpy8npz_loadENSt3__112basic_stringIcNS0_11char_traitsIcEENS0_9allocatorIcEEEE","__ZN26VROGeometrySubstrateOpenGL25configureVertexDescriptorEjNSt3__16vectorINS0_10shared_ptrI17VROGeometrySourceEENS0_9allocatorIS4_EEEE","__ZN11VROMaterial22removeOutgoingMaterialEv","__ZN4jpeg9BitWriterC1Ev","__ZN4base19CurrentThreadStatusEv","_BCM_mldsa65_parse_private_key","_xnn_create_batch_matrix_multiply_nc_f32_const_weights","_uprv_isNaN_77","__ZN30VROInputControllerCardboardiOS15onScreenClickedEv","__ZNK13google_public8protobuf11MessageLite17SerializeToStringEPNSt3__112basic_stringIcNS2_11char_traitsIcEENS2_9allocatorIcEEEE","__ZN4logs5proto3geo2ar13Vector3dProto12InternalSwapEPS3_","__ZN6google8internal7android8location7bluesky7v1beta127GetGridProbabilitiesRequest5ClearEv","__ZN6proto28internal12FieldSkipper11SkipMessageEPNS_2io16CodedInputStreamE","_TransposeWxH_C","__ZN11VROMaterial17addShaderModifierENSt3__110shared_ptrI17VROShaderModifierEE","__ZN3ruy15BlockingCounter5ResetEi","__ZN21btConeTwistConstraint8getInfo2EPN17btTypedConstraint17btConstraintInfo2E","__ZNK4viro22Node_KeyframeAnimation12ByteSizeLongEv","__ZN21VRORenderTargetOpenGL12clearStencilEv","__ZNK4viro29Node_Geometry_Material_Visual3NewEPN13google_public8protobuf5ArenaE","_EVP_DigestInit_ex","__ZN23btGeneric6DofConstraintC1ER11btRigidBodyRK11btTransformb","__ZN6tflite3ops7builtin7split_v23UseDynamicOutputTensorsEP13TfLiteContextP10TfLiteNode","__ZN3ion4port5BreakEv","__ZN6VROBoxC1Efff","__ZN13google_public8protobuf2io18StringOutputStream9SetStringEPNSt3__112basic_stringIcNS3_11char_traitsIcEENS3_9allocatorIcEEEE","__ZN14VROARWorldMesh18applyMeshToPhysicsENSt3__110shared_ptrI14VROARDepthMeshEE","_u_strCompare_77","__ZN18VROBodyTrackerTest22onBodyTrackStateUpdateE19VROBodyTrackedState","__ZN3geo2ar16CameraParametersD0Ev","_J422ToARGB","__ZN26VROMonocularDepthEstimator11setDelegateENSt3__18weak_ptrI34VROMonocularDepthEstimatorDelegateEE","__ZNK4logs5proto3geo2ar31QualityFramePriorityQueueConfig12GetClassDataEv","__ZN3geo2ar7service29T2BatchQueryElevationsRequestD0Ev","__ZN3ion4port12BreakOrAbortEv","__ZN8MTRandom5ResetEj","__ZNK11VROVector4f4hashEv","__ZN22VROAVCaptureControllerC1Ev","__ZN7vraudio13GainMixerNode7SetMuteEb","__ZN7vraudio30MultiplyAndAccumulatePointwiseEmPKfS1_Pf","_EC_KEY_new_by_curve_name","_BN_is_negative","_I400ToARGBMatrix","__ZNK14VROLineSegment19intersectsSegment2DES_P11VROVector3f","__ZN4absl13time_internal4cctz10TimeZoneIfD1Ev","__ZN15inertial_anchor8platform21GlobalLogStringStream6AppendEb","__ZN17VROFrameScheduler12processTasksERK13VROFrameTimer","__ZN7strings22UncheckedArrayByteSink15GetAppendBufferEmmPcmPm","_stepDetectorAddPeak","_xnn_define_static_broadcast","__ZN7vraudio17LocklessTaskQueueD2Ev","__ZNK6proto22io16CodedInputStream25BytesUntilTotalBytesLimitEv","__ZN4logs5proto3geo2ar43CameraIntrinsics_CityblockFisheyeDistortionD1Ev","__ZN3geo2ar3lib30BatchingSurfaceElevationClient10QueryProxy5StartERK8S2LatLngNS1_12EarthSurfaceEN4absl12AnyInvocableIFvNS8_8StatusOrINSt3__18optionalIdEEEEOEEE","__ZN4absl24synchronization_internal13PthreadWaiterC2Ev","__ZN6proto28internal30FindExtensionLazyEagerVerifyFnEPKNS_11MessageLiteEi","__ZN6proto22io16CodedInputStream15ReadStringPieceEPN4absl11string_viewEiPNSt3__112basic_stringIcNS5_11char_traitsIcEENS5_9allocatorIcEEEE","__ZN15GeoARHTTPClient24GetMaxConcurrentRequestsEv","__ZN4absl19str_format_internal17FormatConvertImplEcNS0_24FormatConversionSpecImplEPNS0_14FormatSinkImplE","__ZN21VRORenderTargetOpenGLC2E19VRORenderTargetTypeiibbNSt3__110shared_ptrI15VRODriverOpenGLEE","__ZNK4absl13time_internal4cctz12TimeZoneLibC11DescriptionEv","__ZNK6google3geo2ar2v15Point12ByteSizeLongEv","__ZN6tflite9telemetry23TelemetryReportSettingsEP13TfLiteContextPKcPK34TfLiteTelemetryInterpreterSettings","__ZN3geo2ar7service9ElevationC2EPN6proto25ArenaE","__ZN4utillsERNSt3__113basic_ostreamIcNS0_11char_traitsIcEEEEONS_13StatusBuilderE","__ZN11VROVector4f5clearEv","__ZN4absl19str_format_internal16ParsedFormatBaseC1ENS_11string_viewEbSt16initializer_listINS_23FormatConversionCharSetEE","__ZN7vraudio10FoaRotator6RotateERKNS_13WorldRotationEmmRKNS_11AudioBufferEPS4_","__ZN3geo2ar3lib29LowLightImageProcessingConfig5ClearEv","__ZN7vraudio40GetRawChannelDataPointersFromAudioBufferEPNS_11AudioBufferEPNSt3__16vectorIPfNS2_9allocatorIS4_EEEE","__ZN6google3geo2ar2v128BatchQueryElevationsResponseC2EPN6proto25ArenaE","__ZN6tflite12tensor_utils35MatrixBatchVectorMultiplyAccumulateEPKaiiS2_PKfiPiPfPNS_17CpuBackendContextE","_kai_get_dst_size_matmul_clamp_f32_qai8dxp1x8_qsi4c32p4x8_1x4x32_neon_dotprod","__ZN25VROPoseFilterBoneDistance23getAverageLimbDirectionERKNSt3__16vectorINS1_INS1_I20VROInferredBodyJointNS0_9allocatorIS2_EEEENS3_IS5_EEEENS3_IS7_EEEE16VROBodyJointTypeSC_","__ZN6tflite8Subgraph17ResizeInputTensorEiPKii","_SplitARGBPlane","__ZN19VROBodyIKController23restoreTopBoneTransformEv","__ZN3geo2ar27PoseLikelihoodFunctionProto26set_allocated_yaw_gaussianEPNS0_28YawGaussianDistributionProtoE","__ZN4absl13time_internal4cctz12TimeZoneLibC4MakeERKNSt3__112basic_stringIcNS3_11char_traitsIcEENS3_9allocatorIcEEEE","__ZN19VROARCameraInertial3runEv","_pthreadpool_parallelize_2d_tile_2d_with_uarch","__ZN6tflite3ops7builtin30Register_SPACE_TO_BATCH_ND_REFEv","_ERR_restore_state","_RSA_bits","__ZN18VROVideoTextureiOS11updateFrameEv","__ZN3ruy15GetBlockByIndexERKNS_8BlockMapEiPNS_8SidePairIiEE","__ZN8VROScene16updateVisibilityERK16VRORenderContext","__ZNK3geo2ar41RoadRelativeOrientationYawPredictionProto12GetClassDataEv","_xnn_invoke_runtime","__ZNK7vraudio9WavReader18GetNumTotalSamplesEv","__ZN3geo2ar3lib25GetInertialAnchorAttitudeERKNS1_19InertialAnchorFlagsE","__ZN4logs5proto3geo2ar19ParticleFilterEvent5ClearEv","__ZN6proto28internal15ThreadSafeArena4FreeEv","_kai_get_rhs_packed_offset_rhs_pack_kxn_qsi8cxp_qsi8cx_neon","__Z17VROMathReciprocalf","__ZN6proto28internal11MicroString16SetFromOtherSlowERKS1_PNS_5ArenaEm","_DH_get0_g","__ZN4absl13cord_internal14ReverseConsumeEPNS0_7CordRepENS_11FunctionRefIFvS2_mmEEE","__ZN9BuildData17CitcSnapshotAsIntEv","__ZN7VRONode8setSceneENSt3__110shared_ptrI8VROSceneEEb","__ZN8VROScene14updateSortKeysERNSt3__110shared_ptrI17VRORenderMetadataEERK16VRORenderContextRNS1_I9VRODriverEE","__ZN3geo2ar3lib15NightTimeConfigC1EPN6proto25ArenaE","_op_test_memory","__ZN4logs5proto3geo2ar20PoseStabilityMetricsD1Ev","__ZN4logs5proto3geo2ar24CloudLocalizationOptionsD1Ev","__ZN14VROPhysicsBody14getIsSimulatedEv","__ZN4viro10Node_LightD1Ev","__ZN4logs5proto3geo2ar52RealDeadReckonedPoseMixerConfig_TransformDifferences9MergeImplERN6proto211MessageLiteERKS5_","_I422AlphaToARGBMatrix","__ZN3geo2ar7service10AnchorPoseD0Ev","_I422ToUYVY","__ZN6proto28internal17PackedInt32ParserEPvPKcPNS0_12ParseContextE","__ZNK13google_public8protobuf11MessageLite25SerializeToZeroCopyStreamEPNS0_2io20ZeroCopyOutputStreamE","__ZN11btRigidBody12setMassPropsEfRK9btVector3","__ZN3geo2ar16CameraIntrinsicsD2Ev","__ZN4logs5proto3geo2ar74ClearcutLoggingConfig_PoseStabilityMonitorConfig_PoseJumpLoggingThresholdsD2Ev","__ZN4util15status_internal17ErrorSpacePayload3SetEPKNS_10ErrorSpaceEiPN4absl6StatusE","__ZN3geo2ar7service11CellFacadesC2EPN6proto25ArenaE","__ZN6google8internal7android8location7bluesky7v1beta146GetGridProbabilitiesRequest_ObservationRequest37set_allocated_estimated_position_ecefEPNS3_4type15EcefCoordinatesE","__ZN7vraudio10HoaRotator20UpdateRotationMatrixERKNS_13WorldRotationE","_NV16ToNV24","_GARProtoBytesToNSData","__ZN3geo2ar40RoadRelativeOrientationDistributionProtoC1EPN6proto25ArenaE","__ZN6google8internal7android8location7bluesky4type10FloatValueD2Ev","_kai_f16_from_float_matmul_clamp_f16_f16p2vlx2_f16p2vlx2_2vlx2vl_sme2_mopa","__ZN6google3geo2ar2v114CircularRegionC2EPN6proto25ArenaERKS3_","_ABGRToNV21","__ZN6proto28internal12ExtensionSet21MutableRepeatedStringEii","__ZN6tflite21GetAllocationFromFileEPKcPNS_13ErrorReporterE","__ZN6tflite8Subgraph22AcquireSubgraphContextEP13TfLiteContextiPS2_","_EVP_CIPHER_CTX_copy","__ZN7vraudio10FftManager21FreqDomainConvolutionERKNS_11ChannelViewES3_PS1_","__ZNK6proto211MessageLite22SerializePartialAsCordEv","__ZNK3geo2ar7service14LocalizeResult12ByteSizeLongEv","_BIO_up_ref","__ZN4absl17IsUnauthenticatedERKNS_6StatusE","__ZNK6google3geo2ar2v116LocalizeResponse12GetClassDataEv","_kai_get_nr_matmul_clamp_f32_qai8dxp1x8_qsi4cxp8x8_1x8x32_neon_dotprod","__ZNK21VRORenderTargetOpenGL24getTextureAttachmentTypeEi","__Z25VROPlatformGetDeviceModelv","__ZN6proto28internal12ExtensionSet10AddMessageEihPKNS0_9ClassDataEPKNS_15FieldDescriptorE","__ZN7VRONode22setVisibilityRecursiveEb","__ZN4logs5proto3geo2ar74ClearcutLoggingConfig_PoseStabilityMonitorConfig_PoseJumpLoggingThresholds12InternalSwapEPS3_","__ZN9perftools7tracing18TraceEventListener23OnTraceStreamingReceiveENS0_9MsgOriginEyjNS0_8MsgFlagsE","__ZNK3geo2ar3lib17BestLocationStore12BestLocationEv","_uprv_fmax_77","__ZN4base16WithTraceContextC1ERK12TraceContextN9perftools7tracing10StringImplILb1EEE","_xnn_f16_vexp_ukernel__neonfp16arith_poly_3_u32","_EVP_PKEY_CTX_set1_hkdf_key","__ZN3geo2ar17FacadesSnapshotIdD0Ev","__ZN3geo2ar3lib20ParticleFilterConfig9MergeImplERN6proto211MessageLiteERKS4_","_SHA1_Transform","_BIO_test_flags","_OPENSSL_init_cpuid","_pthreadpool_parallelize_3d_tile_1d_with_uarch_with_thread","__ZN4absl14flags_internal12FlagRegistry8FindFlagENS_11string_viewE","__ZNK7vraudio20AmbisonicLookupTable17GetEncodingCoeffsEiRKNS_14SphericalAngleEfPNSt3__16vectorIfNS4_9allocatorIfEEEE","__ZN21VROTypefaceCollectionD1Ev","__ZN4logs5proto3geo2ar51LowLightImageProcessingConfig_GammaCorrectionConfig12InternalSwapEPS3_","_ARGB4444ToYRow_NEON","__ZN8Hasher649AddStringEN4absl11string_viewE","_xnn_value_clear","__ZNK14VROLineSegment3rayEv","__ZN4logs5proto3geo2ar24SmoothedTransformOptions12InternalSwapEPS3_","_ARGBAttenuate","__ZN3geo2ar7service6AnchorD0Ev","_xnn_reshape_fully_connected_nc_f32","_kai_get_sr_matmul_clamp_f32_f32_f32p2vlx1b_1x8vl_sme_mla","__ZN7vraudio14TaskThreadPoolD2Ev","__ZN11VROGeometryD0Ev","_gvr_audio_create","_xnn_subgraph_rewrite_for_fp16","__ZN4absl12Base64EscapeENS_11string_viewEPNSt3__112basic_stringIcNS1_11char_traitsIcEENS1_9allocatorIcEEEE","__ZN7VRODataC2EPKvii","_U010ToABGR","_u_getVersion_77","__ZN11VROFontUtil19isVariationSelectorEj","__ZN6tflite3ops7builtin7one_hot18ResizeOutputTensorEP13TfLiteContextRKNS2_13OneHotContextE","__ZN20VROAllocationTracker3addE19VROAllocationBucketj","__ZN3geo2ar7service21T2WarmUpCacheResponseC2EPN6proto25ArenaE","__ZN7vraudio17AudioAssetManagerC1Emi","_ABGRToUVRow_SVE2","_OPENSSL_vasprintf","_ec_enc_init","_ogg_stream_destroy","__ZNK4viro10Node_Light24SerializeWithCachedSizesEPN13google_public8protobuf2io17CodedOutputStreamE","__ZN6proto22io16CodedInputStreamD1Ev","__ZN17VROAnimationGroup8setSpeedEf","__ZN6tflite3ops7builtin6reduce19GetQuantProdScalingEddi","__ZN4absl12log_internal11EncodeBytesEyNS_4SpanIKcEEPNS1_IcEE","__ZN15VROVideoSurface9setVolumeEf","__ZNK3geo2ar3lib16Project3x3Config18_InternalSerializeEPhPN6proto22io19EpsCopyOutputStreamE","__ZN3geo2ar7service17T2LocalizeRequestC1EPN6proto25ArenaERKS2_","__ZN7vraudio18DeinterleaveStereoEmPKfPfS2_","__ZN22VROObjectRecognizeriOS19startObjectTrackingEv","_EC_POINT_point2buf","__Z15AbslUnparseFlagN12TraceContext10TraceLevelE","__ZN4viro29Node_Geometry_Material_Visual21CheckTypeAndMergeFromERKN13google_public8protobuf11MessageLiteE","__ZN8S2LatLngC1ERK7S2Point","_ScaleRowUp2_Linear_Any_NEON","__ZN4viro22Node_KeyframeAnimation10SharedDtorEv","__ZN4logs5proto3geo2ar12ARCoreConfigD0Ev","_SplitRotateUV90","_ScaleUVRowDown2_Any_NEON","__ZN6tflite3ops7builtin28Register_MINIMUM_GENERIC_OPTEv","__ZN4logs5proto3geo2ar47CameraIntrinsics_KannalaBrandtFisheyeDistortionD1Ev","__ZN6tflite3ops7builtin10var_handle7PrepareEP13TfLiteContextP10TfLiteNode","_EVP_PKEY_CTX_free","__ZN3geo2ar3lib33AdaptiveImageFrameLocalizerConfig5ClearEv","__Z26GLMatrixFromRotationMatrix16CMRotationMatrix","__ZN6icu_775Edits8Iterator4nextEaR10UErrorCode","__ZN13google_public8protobuf8internal14WireFormatLite23WriteStringMaybeAliasedEiRKNSt3__112basic_stringIcNS3_11char_traitsIcEENS3_9allocatorIcEEEEPNS0_2io17CodedOutputStreamE","_kai_run_rhs_pack_kxn_qsi4c32p_qsu4c32s1s0","_FIPS_read_counter","__ZN7vraudio10SourceNode7CleanUpEv","_EVP_aead_aes_128_ccm_matter","__ZN8location8bluemoon22RoadOrientationOptions8CopyFromERKS1_","__ZN3geo2ar3lib15NightTimeConfigD2Ev","__ZN4absl12crc_internal12CrcCordStateC2Ev","__ZN6tflite3ops7builtin15resize_bilinear18ResizeOutputTensorEP13TfLiteContextPK12TfLiteTensorS7_PS5_","__ZNK8location8bluemoon25EstimateConfidenceOptions12GetClassDataEv","__ZN3geo2ar3lib74ClearcutLoggingConfig_PoseStabilityMonitorConfig_PoseJumpLoggingThresholdsC1EPN6proto25ArenaE","__ZNK14VROBoundingBox11containsBoxERKS_","__ZN17VROAnimationGroup12animateScaleERNSt3__110shared_ptrI7VRONodeEE","__ZN9superroot9knowledge23SunriseSunsetCalculator18CalculateEventTimeEddd","__ZN4logs5proto3geo2ar17SessionStartEventD2Ev","_xnn_setup_deconvolution2d_nhwc_qdu8_f32_qc8w","__ZNK3geo2ar7service45T2ResolveAnchorAndLocalizeRequest_CameraImage12ByteSizeLongEv","__ZN3ion4port8OpenFileERKNSt3__112basic_stringIcNS1_11char_traitsIcEENS1_9allocatorIcEEEES9_","__ZN6tflite13ParseQuantizeEPKNS_8OperatorEPNS_13ErrorReporterEPNS_20BuiltinDataAllocatorEPPv","_CBS_strdup","__ZN6thread15CpuSubContainerD2Ev","__ZNK3geo2ar3lib39ClearcutLoggingConfig_FrameRejectConfig18_InternalSerializeEPhPN6proto22io19EpsCopyOutputStreamE","_BN_rand_range","__ZN18VROBodyTrackerTest23createNewBodyControllerEv","__ZN26VROGeometrySubstrateOpenGLC1ERK11VROGeometryNSt3__110shared_ptrI15VRODriverOpenGLEE","__ZN3geo2ar3lib37UncertaintyRatioWorseThanAnyThresholdERKN8location8bluemoon25Transform3dWithConfidenceES6_RKNS1_49RealDeadReckonedPoseMixerConfig_UncertaintyRatiosE","__ZN6google3geo2ar2v120PoseEstimationResult9MergeImplERN6proto211MessageLiteERKS5_","_MergeAR64Row_NEON","__ZN4absl12log_internal10LogMessagelsERKNSt3__112basic_stringIcNS2_11char_traitsIcEENS2_9allocatorIcEEEE","_xnn_reshape_fully_connected_nc_f16","_xnn_setup_constant_pad_nd_x8","__ZN6tflite3ops7builtin19Register_DEQUANTIZEEv","_SplitXRGBRow_NEON","_I400ToNV21","__ZN6tflite3ops7builtin26bidirectional_sequence_rnn4FreeEP13TfLiteContextPv","__ZN4absl19str_format_internal10FormatPackENS0_21UntypedFormatSpecImplENS_4SpanIKNS0_13FormatArgImplEEE","__ZN22VROARConstraintMatcher12removeARNodeENSt3__110shared_ptrI20VROARDeclarativeNodeEE","__ZN3geo2ar3lib19ActualSurfaceAnchor24UnresolvableStateHandlerC1EPS2_N4absl6StatusE","__ZN6proto22io21ByteSourceInputStream4NextEPPKvPi","__ZN15VROSoundDataGVR22notifyDelegateOfStatusEv","__ZN4util17ErrorSpacePayloadD2Ev","__ZN6tflite4impl11Interpreter18GetSignatureRunnerEPKc","__ZN30VROInputControllerCardboardiOS13getControllerEv","__ZN6tflite3ops7builtin7reshape12ResizeOutputEP13TfLiteContextP10TfLiteNode","_kai_get_m_step_matmul_clamp_f32_qai8dxp4x8_qsi8cxp4x8_16x4_neon_i8mm","__ZNK4absl13cord_internal11CordzHandle32DiagnosticsHandleIsSafeToInspectEPKS1_","__ZN10Matrix3x3dC2EPS_","__ZN4logs5proto3geo2ar51LowLightImageProcessingConfig_GammaCorrectionConfigD0Ev","__ZN4base8internal13SharedContextC2Ev","__ZN4logs5proto3geo2ar52RealDeadReckonedPoseMixerConfig_TransformDifferencesC1EPN6proto25ArenaE","__ZN13google_public8protobuf8internal13VerifyVersionEiiPKc","__ZN20VROARObjectTargetiOSD2Ev","__ZN3geo2ar8geometry4MeshC1EPN6proto25ArenaERKS2_","__ZN4logs5proto3geo2ar30TerrainAnchorUnresolvableEventC2EPN6proto25ArenaE","__ZN6icu_7713UnicodeString20handleReplaceBetweenEiiRKS0_","__ZN6tflite3ops7builtin3pad18ResizeOutputTensorEP13TfLiteContextPNS2_10PadContextE","_I010ToARGBMatrix","__ZN4logs5proto3geo2ar25LocalizationResponseEventD2Ev","_ScaleRowUp2_Bilinear_Any_C","__ZNK4absl14flags_internal8FlagImpl8TypeNameEv","_xnn_subgraph_check_datatype_matches","_BIO_s_file","__ZN8location8bluemoon24CloudLocalizationOptions8CopyFromERKS1_","__Z30btAlignedAllocSetCustomAlignedPFPvmiEPFvS_E","__ZN3geo2ar11OrientationD2Ev","_xnn_subgraph_get_value_size","__ZN4logs5proto3geo2ar62RealDeadReckonedPoseMixerConfig_DeadReckonedPoseEstimateConfigD0Ev","__ZN6tflite7xnnpack23MMapWeightCacheProvideraSEOS1_","__ZN12VROBloomTest7onClickEiNSt3__110shared_ptrI7VRONodeEEN16VROEventDelegate10ClickStateENS0_6vectorIfNS0_9allocatorIfEEEE","__ZN13google_public8protobuf2io16CodedInputStream7RefreshEv","__ZN4absl13hash_internal43CombineLargeContiguousImplOn64BitLengthGt32EPKhmy","__ZNK6google3geo2ar2v135CloudLocalizationServiceResultProto12ByteSizeLongEv","__ZN6proto211MessageLite30ParsePartialFromZeroCopyStreamEPNS_2io19ZeroCopyInputStreamE","__ZNK6proto28internal12ExtensionSet26GetPrototypeForLazyMessageEPKNS_11MessageLiteEi","__ZNK4logs5proto3geo2ar6Config18_InternalSerializeEPhPN6proto22io19EpsCopyOutputStreamE","__ZN8location8bluemoon26InertialAnchorDistributionC2ERKNS0_21InertialAnchorOptionsERKNS0_26UniformDistributionOptionsERKN3geo2ar27PoseLikelihoodFunctionProtoERKNS0_25ParticlePositionConverterERKNS0_26PositionAndYawPoseEstimateE","_BN_bn2bin","__ZNK8location8bluemoon36HeadingFromMotionDistributionOptions12GetClassDataEv","__ZN14VROTransaction6cancelENSt3__110shared_ptrIS_EE","__ZN6tflite3ops7builtin28Register_FULLY_CONNECTED_PIEEv","__ZN4absl10from_charsEPKcS1_RdNS_12chars_formatE","__ZN15VROVisionEngine12deriveBoundsEPKNSt3__14pairI11VROVector3ffEE","__ZN3ion4base11Allocatable9GetHelperEv","__ZN7vraudio16AudioAssetStream35GetNextAudioBufferFromBufferedAssetEPNS_11AudioBufferE","__ZN4absl20ToDoubleMillisecondsENS_8DurationE","__ZNK3geo2ar22ReferenceFrameAndState18_InternalSerializeEPhPN6proto22io19EpsCopyOutputStreamE","__ZNK6proto211MessageLite32SerializePartialToZeroCopyStreamEPNS_2io20ZeroCopyOutputStreamE","__ZN4absl9FlagSaverD1Ev","_YUY2ToARGBRow_NEON","__ZN6proto24util8TimeUtil18TimevalToTimestampERK7timeval","__ZN3gvr5utils13ToEyeInternalERK7gvr_eye","_xnn_create_subgraph","_CBB_reserve","__ZN6tflite19GetShapeDebugStringEPK14TfLiteIntArray","__ZNK4absl14flags_internal8FlagImpl22ReadSequenceLockedDataEPv","_ScaleFilterReduce","__ZN4logs5proto3geo2ar15NightTimeConfigD0Ev","__ZN22VROARDraggableNodeTestC1Ev","_I444ToI420","__ZN6tflite3ops7builtin6rfft2d4InitEP13TfLiteContextPKcm","__ZN6google3geo2ar2v128BatchQueryElevationsResponseC1EPN6proto25ArenaE","_RAND_disable_fork_unsafe_buffering","_charntorune","__ZN3geo2ar27PoseLikelihoodFunctionProtoC2EPN6proto25ArenaERKS1_","__ZN3geo2ar3lib48ParticleFilterConfig_PositionAndYawFilterOptions18clear_wifi_optionsEv","__ZN4logs5proto3geo2ar12ClientConfigC1EPN6proto25ArenaERKS3_","__ZN4logs5proto3geo2ar18LightEstimateEventC1EPN6proto25ArenaE","__ZN6google3geo2ar2v119QueryFacadesOptions9MergeImplERN6proto211MessageLiteERKS5_","__ZN6proto28internal14WireFormatLite18WriteSFixed32ArrayEPKiiPNS_2io17CodedOutputStreamE","__ZN8location8bluemoon14inertialanchor44EmpiricalHeadingUncertaintyModelParametersV1C1EPN6proto25ArenaE","__ZN4absl17internal_statusor6Helper5CrashERKNS_6StatusE","__ZN4absl13base_internal10MallocHook13AddMunmapHookEPFvPKvmiE","__ZNK3geo2ar3lib31RealDeadReckonedPoseMixerConfig12GetClassDataEv","_CBB_flush_asn1_set_of","__ZN4logs5proto3geo2ar23SessionStateChangeEventD0Ev","__ZN6tflite7xnnpack23MMapWeightCacheProvider6LookUpEPK29xnn_weights_cache_look_up_key","_kai_get_sr_matmul_clamp_f32_qai8dxp1x4_qsi4cxp4x4_1x4_neon_dotprod","__ZN4logs5proto3geo2ar39ClearcutLoggingConfig_FrameRejectConfig12InternalSwapEPS3_","__ZN18VROParticleEmitter13spawnParticleEid","_comb_filter","__ZN3geo2ar3lib25RealDeadReckonedPoseMixer11UpdateDrpesEv","__ZNK3geo2ar3lib48LowLightImageProcessingConfig_PixelBinningConfig18_InternalSerializeEPhPN6proto22io19EpsCopyOutputStreamE","_kai_get_dst_size_matmul_clamp_f16_f16_f16p2vlx2b_1x16vl_sme2_dot","__ZNK4logs5proto3geo2ar25ImageFrameLocalizerConfig12GetClassDataEv","__ZN3gvr14PlatformThreadD0Ev","__ZN4logs5proto3geo2ar24HeadingFromMotionOptions5ClearEv","_kai_get_rhs_packed_offset_matmul_clamp_f32_f32p2vlx1_f32p2vlx1biasf32_sme2_mopa","__ZN15VROARSessioniOS12resetSessionEbb","__ZN6google3geo2ar2v120FacadesCacheContentsD1Ev","__ZN18VROVideoTextureiOS9loadVideoENSt3__112basic_stringIcNS0_11char_traitsIcEENS0_9allocatorIcEEEENS0_10shared_ptrI20VROFrameSynchronizerEENS7_I9VRODriverEE","__ZN4logs5proto3geo2ar39ClearcutLoggingConfig_FrameRejectConfigC1EPN6proto25ArenaERKS3_","_BCM_sha512_256_final","__ZN3ion4base8DateTime3SetExhhhhhaa","__ZN6tflite7xnnpack18WeightCacheBuilder5StartEPKcRKNS0_14FileDescriptorE","_MergeXR30Plane","__ZNK4viro11Node_Matrix13IsInitializedEv","__ZN4viro10Node_LightC1Ev","__ZNK3geo2ar14PlaceIdOptions18_InternalSerializeEPhPN6proto22io19EpsCopyOutputStreamE","__ZN6tflite3ops7builtin4lstm4full26CheckInputTensorDimensionsEP13TfLiteContextP10TfLiteNodeiiibb","__ZN7VRONode14setScaleAtomicE11VROVector3f","__ZN6tflite3ops7builtin13strided_slice4FreeEP13TfLiteContextPv","__ZN4absl13cord_internal12CordRepBtree10CopySuffixEm","__ZN3geo2ar3lib49RealDeadReckonedPoseMixerConfig_UncertaintyRatios8CopyFromERKS2_","_OPENSSL_lh_insert","__ZN7vraudio19AudioStreamRenderer8ShutdownEv","__ZN6proto28internal8TcParser8FastUcS2EPNS_11MessageLiteEPKcPNS0_12ParseContextENS0_11TcFieldDataEPKNS0_16TcParseTableBaseEy","__ZN6tflite4impl11Interpreter6CancelEv","__ZN22VROBodyRecognitionTestD1Ev","__ZNK6tflite12ArenaPlanner12GetAllocInfoEPmS1_","__ZN6tflite3ops7builtin27unidirectional_sequence_rnn7PrepareEP13TfLiteContextP10TfLiteNode","__ZN3geo2ar3lib45RealDeadReckonedPoseMixerConfig_UncertaintiesC2EPN6proto25ArenaERKS2_","__ZN6google3geo2ar2v116LocalizeResponseD1Ev","__ZN7vraudio16InterleaveStereoEmPKfS1_Ps","__ZN23VROARDeclarativeSession19loadARImageDatabaseENSt3__110shared_ptrI18VROARImageDatabaseEE","__ZN3geo2ar7service21T2QueryFacadesRequestD1Ev","__ZNK6proto22io19EpsCopyOutputStream9ByteCountEPh","__ZN6google3geo2ar2v117FacadesSnapshotIdD0Ev","_CBS_get_u32","__ZN16VROTextFormatter14formatAndBuildERNSt3__112basic_stringIwNS0_11char_traitsIwEENS0_9allocatorIwEEEEffif26VROTextHorizontalAlignment24VROTextVerticalAlignment16VROLineBreakMode15VROTextClipModeRNS0_3mapIjNS0_10shared_ptrI8VROGlyphEENS0_4lessIjEENS4_INS0_4pairIKjSF_EEEEEEPfSO_NS0_8functionIFvRSF_ffEEE","__ZN3ion4base17AllocationManagerC1Ev","__ZN7S1AngleC2ERK8S2LatLngS2_","_EVP_CIPHER_key_length","__ZN8location8bluemoon24CloudLocalizationOptions5ClearEv","__ZN3geo2ar2v116localize_service37FromT2ResolveAnchorAndLocalizeRequestERKNS0_7service33T2ResolveAnchorAndLocalizeRequestE","_Convert16To8Row_Any_NEON","__ZThn80_N3geo2ar3lib22InertialAnchorReporter18ProcessSensorEventERKNS1_11SensorEventE","__ZN12VROFBXLoader7loadFBXERN4viro4NodeENSt3__110shared_ptrI7VRONodeEENS3_12basic_stringIcNS3_11char_traitsIcEENS3_9allocatorIcEEEE15VROResourceTypeNS4_INS3_3mapISC_SC_NS3_4lessISC_EENSA_INS3_4pairIKSC_SC_EEEEEEEENS4_INSE_ISC_NS4_I10VROTextureEESG_NSA_INSH_ISI_SO_EEEEEEEENS4_I12VROTaskQueueEENS4_I9VRODriverEE","__ZN6google3geo2ar2v14Mesh5ClearEv","__ZN10VROPolygon13updateSurfaceEv","__ZN6proto211MessageLite21CheckTypeAndMergeFromERKS0_","__ZN4base12WithDeadlineD1Ev","_ScaleRowDown2Box_16To8_Odd_C","__ZN8Vector3dC1EPS_","__ZN6thread29NewSynchronizedInlineExecutorEv","__ZN9VRODriverD2Ev","_GifAddExtensionBlock","__ZN6tflite12tensor_utils45NeonSparseMatrixBatchVectorMultiplyAccumulateEPKaPKhiiS2_PKfiPfS6_","__ZN17VROAnimationChain15executeParallelENSt3__110shared_ptrI7VRONodeEENS0_8functionIFvvEEE","__ZN4absl14flags_internal7UnparseEb","_reshape_convolution2d_nhwc_qx8_f16_qc8w","__ZN4logs5proto3geo2ar22RoadOrientationOptions12InternalSwapEPS3_","__ZN3geo2ar2v115terrain_service12FromApiProtoERKN6google3geo2ar2v125QueryTerrainMeshesRequestE","__ZN4absl12crc_internal7CRCImpl11NewInternalEv","__ZN18VROVideoSphereTestD2Ev","__ZN4viro22Node_KeyframeAnimation9MergeFromERKS0_","_ScaleAddRow_C","__ZN3geo2ar3lib49RealDeadReckonedPoseMixerConfig_UncertaintyRatios5ClearEv","_EC_KEY_up_ref","_EVP_PKEY_CTX_get_rsa_mgf1_md","__ZN8geostore30FeatureProto_TypeCategory_NameENS_25FeatureProto_TypeCategoryE","__ZN3geo2ar3lib3hfm16BearingQualifier5ResetEv","__ZN3ruy10ThreadPool13CreateThreadsEi","_SHA512_Update","_EC_KEY_get_ex_new_index","__ZN8MTRandom5Rand8Ev","__ZN13google_public8protobuf2io17CodedOutputStream19WriteLittleEndian32Ej","__ZN4logs5proto3geo2ar22CovarianceMatrix6Proto9MergeImplERN6proto211MessageLiteERKS5_","_kai_run_rhs_pack_kxn_f32p2vlx1biasf32_f32_f32_sme","_BIO_free","__ZN4absl14flags_internal23GetFlagsHelpMatchSubstrEv","__ZThn16_N23VROARObjectTrackingTestD0Ev","__ZN6google8internal7android8location7bluesky7v1beta146GetGridProbabilitiesRequest_ObservationRequestC2EPN6proto25ArenaE","__Z13SimpleGetFdctv","__ZN6tflite32GetQuantizedConvolutionMultiplerEP13TfLiteContextPK12TfLiteTensorS4_S4_PS2_Pd","__ZN3geo2ar3lib17RealFrameSnapshot14SetLatestFrameERKNS1_7ArFrameE","__ZN6proto28internal15ThreadSafeArenaC1EPcm","__ZN3ruy23ScopedSuppressDenormalsD1Ev","__ZN3geo2ar7service20T2WarmUpCacheRequestD0Ev","__ZN21btConeTwistConstraint31setMotorTargetInConstraintSpaceERK12btQuaternion","_ARGBToUV444Row_NEON_I8MM","_bn_set_minimal_width","__ZNK3ruy7Context14last_used_pathEv","__ZN7vraudio9GainMixer14GainProcessorsC2Em","__ZN21VRORenderTargetOpenGL11setMipLevelEii","__ZN3geo2ar3lib27SurfaceAnchorClearcutLoggerC2ENSt3__110shared_ptrINS1_19GeoARClearcutLoggerEEENS4_IKNS1_5ClockEEE","__ZNK7VRONode15getChildPortalsEPNSt3__16vectorINS0_10shared_ptrI9VROPortalEENS0_9allocatorIS4_EEEE","__ZN6proto28internal12StringParserEPKcS2_PvPNS0_12ParseContextE","__ZN4logs5proto3geo2ar15SunAngleOptionsC1EPN6proto25ArenaERKS3_","__ZNK6proto211MessageLite32SerializePartialToFileDescriptorEi","__ZN6tflite12tensor_utils22NeonReductionSumVectorEPKfPfii","__ZN8MathUtil9DecomposeEf","_ABGRToAR30Row_NEON","_ec_GFp_mont_felem_exp","__ZN3geo2ar13LocationProto8CopyFromERKS1_","__ZN7vraudio17VrAudioEngineImpl25PreloadSoundFileForStreamERKNSt3__112basic_stringIcNS1_11char_traitsIcEENS1_9allocatorIcEEEENS_13VrAudioEngine8LoadTypeERKNS1_8functionIFvbEEE","_kai_get_rhs_packed_size_rhs_pack_nxk_qsi8cxp_qsi8cx_neon","_xnn_setup_fully_connected_nc_qp8_f32_qc8w","__ZN4util13StatusBuilder3RepC2ERKS1_","__ZNK22VROShadowMapRenderPass22computeLightViewMatrixEv","__ZN3geo2ar7service17T2LocalizeRequest9MergeImplERN6proto211MessageLiteERKS4_","_kai_get_lhs_packed_offset_matmul_clamp_f32_qai8dxp4x8_qsi4c32p4x8_16x4x32_neon_i8mm","__ZN12VROTorusKnotD1Ev","__ZN13VROGLTFLoader17regenerateTangentERNSt3__16vectorI11VROVector3fNS0_9allocatorIS2_EEEES6_S6_RNS1_IiNS3_IiEEEERNS1_I11VROVector4fNS3_ISA_EEEE","__ZN6thread15CpuSubContainerC2ERKNSt3__112basic_stringIcNS1_11char_traitsIcEENS1_9allocatorIcEEEE","__ZN3gvr5utils15ToRangeExternalERKN3ion4math5RangeILi2EiEE","__ZN6tflite8internal11Spectrogram10InitializeERKNSt3__16vectorIdNS2_9allocatorIdEEEEi","__ZN13google_public8protobuf8internal10LogMessagelsEc","_uprv_strdup_77","__ZN6tflite3ops7builtin5slice7PrepareEP13TfLiteContextP10TfLiteNode","_silk_decode_core","__ZN3geo2ar7service22T2QueryFacadesResponseC2EPN6proto25ArenaE","__ZNK7vraudio18AudioStreamManager22GetAudioStreamRendererEi","__ZN6google3geo2ar2v126QueryTerrainMeshesResponseD2Ev","_BIO_new_file","__ZN3geo2ar3lib12GnssReporterC1ERKN8location8bluemoon14BlueskyOptionsENSt3__110unique_ptrINS1_21KeplerCallerInterfaceENS8_14default_deleteISA_EEEENS9_INS1_9SessionIdENSB_ISE_EEEE","__ZN8location8bluemoon14BlueskyOptionsD0Ev","__ZN8octomathlsERNSt3__113basic_ostreamIcNS0_11char_traitsIcEEEERKNS_10QuaternionE","_DH_bits","__ZN25VROImagePostProcessOpenGL7blitOptENSt3__16vectorINS0_10shared_ptrI10VROTextureEENS0_9allocatorIS4_EEEERNS2_I9VRODriverEE","__ZN6tflite3ops7builtin17Register_LOGISTICEv","_AYUVToNV12","__ZN7vraudio17LocklessTaskQueueC2Em","_ARGBRect","__ZN4logs5proto3geo2ar11SensorCount8CopyFromERKS3_","__ZN4absl12log_internal10LogMessagelsEPFRNSt3__18ios_baseES4_E","__ZNK4logs5proto3geo2ar30TimedImageFrameLocalizerConfig12ByteSizeLongEv","_xnn_reshape_dynamic_fully_connected_nc_pf16","__ZN6google3geo2ar2v128BatchQueryElevationsResponseD1Ev","__ZNK3geo2ar7service28T2QueryTerrainMeshesResponse12GetClassDataEv","__ZN6icu_7713UnicodeString8allocateEi","__ZN3geo2ar7service45T2ResolveAnchorAndLocalizeRequest_CameraImageC1EPN6proto25ArenaERKS2_","_EC_POINT_get_affine_coordinates_GFp","_BN_MONT_CTX_set","__ZN3geo2ar3lib47SmoothedTransformOptions_SimpleSmoothingOptions5ClearEv","__ZN4absl12log_internal14PrependVModuleENS_11string_viewEi","__ZN6google8protobuf8internal10LogMessageD2Ev","__ZN7vraudio17VrAudioEngineImpl6UpdateEv","__ZN4logs5proto3geo2ar23SessionStateChangeEventC2EPN6proto25ArenaE","__ZN7vraudio11AudioIoImplC1ERKNSt3__112basic_stringIcNS1_11char_traitsIcEENS1_9allocatorIcEEEEmi","_ScaleUVRowUp2_Linear_16_Any_C","__ZNK10VROARScene17getWorldMeshStatsEv","__ZN8VROIKRig13initializeRigEv","_kai_get_nr_matmul_clamp_f32_qai8dxp4x8_qsi4cxp8x8_8x8x32_neon_i8mm","__ZNK14VROLineSegment15intersectsBox2DEffff","__ZN6tflite3ops6custom21detection_postprocess14SetTensorSizesEP13TfLiteContextP12TfLiteTensorSt16initializer_listIiE","_ScaleARGBRowDownEvenBox_NEON","__ZN4logs5proto3geo2ar62RealDeadReckonedPoseMixerConfig_DeadReckonedPoseEstimateConfigC2EPN6proto25ArenaERKS3_","_utf8_appendCharSafeBody_77","_CBS_get_u24_length_prefixed","__ZN8tcmalloc15MallocExtension16ReleaseCpuMemoryEi","_op_pcm_total","_I210ToAR30Row_C","_BIO_get_shutdown","__ZN3p2t12SweepContextD1Ev","__ZNK8location8bluemoon39InertialAnchorWrappedCauchyDistribution21LikelihoodForParticleERKNS0_23PositionAndYawPoseStateE","__ZN4absl19internal_stacktrace25GetStackFramesWithContextEPPvPmPiiiPKvS4_","__ZN17VROAnimationChain13setTimeOffsetEf","__ZN7VROText11setClipModeE15VROTextClipMode","__ZN7vraudio33ComputeDualBandBiquadCoefficientsEifPNS_18BiquadCoefficientsES1_","__ZNK6proto22io19LimitingInputStream14AllowsAliasingEv","__ZN8location8bluemoon22RoadOrientationOptionsC1EPN6proto25ArenaERKS1_","_u_versionFromString_77","__ZN7Encoder14EnsureSlowPathEm","__ZN6tflite10ParseRelu6EPKNS_8OperatorEPNS_13ErrorReporterEPNS_20BuiltinDataAllocatorEPPv","__ZN6tflite3ops7builtin12while_kernel22SetupUnconsumedOutputsEPK10TfLiteNodePKNS2_6OpDataEPNS_8SubgraphESA_","__ZN6google8internal7android8location7bluesky4type15GnssMeasurementC2EPN6proto25ArenaE","__ZN7vraudio8SinkNode10ReadInputsEv","_EC_KEY_set_enc_flags","__ZN6tflite3ops7builtin15fully_connected20EvalSparseHybridImplEP13TfLiteContextP10TfLiteNodeP26TfLiteFullyConnectedParamsPNS2_6OpDataEPK12TfLiteTensorSD_SD_iiPSB_SE_SE_SE_SE_SE_","_bn_usub_consttime","__ZN6proto28internal15ThreadSafeArenaC2EPcm","__ZN6tflite3ops7builtin16Register_SQUEEZEEv","_CRYPTO_cbc128_encrypt","__ZN4absl15AbslUnparseFlagENS_11LogSeverityE","__ZN6proto22io18IstreamInputStream25CopyingIstreamInputStreamD0Ev","__ZN3geo2ar3lib9DebugPoseD0Ev","_kai_get_dst_size_matmul_clamp_f32_qai8dxp1x4_qsi4cxp4x4_1x4_neon_dotprod","__ZN7vraudio14SphericalAngleC1Ev","__ZN7vraudio12GraphManager21CreateAmbisonicSourceEim","_opus_tags_clear","__ZN3geo2ar49HorizontalPositionAndYawGaussianDistributionProtoC1EPN6proto25ArenaERKS1_","_xnn_subgraph_add_nodes","__Z20VROTimeCurrentMillisv","__ZN13google_public8protobuf4util6StatusC1Ev","__ZN4absl18container_internal23GetHashtablezMaxSamplesEv","_PKCS1_MGF1","__ZNK6google8protobuf11StringPiece17find_first_not_ofEcm","_create_fully_connected_nc_f32","__ZN11VROPolylineC2ENSt3__16vectorINS1_I11VROVector3fNS0_9allocatorIS2_EEEENS3_IS5_EEEEf20VROPolylineJoinStyle","_CBS_asn1_bitstring_has_bit","__ZNK17VROGeometrySource7getDataEv","__ZN4logs5proto3geo2ar45AdaptiveImageFrameLocalizerConfig_PitchConfigC2EPN6proto25ArenaE","__ZN4logs5proto3geo2ar13LightEstimateD1Ev","__ZN6tflite15ParseRightShiftEPKNS_8OperatorEPNS_13ErrorReporterEPNS_20BuiltinDataAllocatorEPPv","__ZN8location8bluemoon20StepDetectionOptions8CopyFromERKS1_","__ZN3geo2ar3lib30TimedImageFrameLocalizerConfigC2EPN6proto25ArenaE","__ZN10CordReaderD2Ev","__ZNK19StackTraceProcessorclEP10LiveThreadPb","__ZN13google_public8protobuf2io17CodedOutputStreamC1EPNS1_20ZeroCopyOutputStreamEb","__ZN3geo2ar7service19LocalAreaParametersC1EPN6proto25ArenaERKS2_","__ZN24VRODiffuseIrradianceTestC1Ev","__ZN4viro28Node_SkeletalAnimation_Frame5ClearEv","_xnn_pf16_gemm_minmax_ukernel_1x32c2__neonsme2_get_nr","__ZN9superroot9knowledge23SunriseSunsetCalculatorC2Eddd","_BCM_mlkem768_parse_private_key","_ScaleAddRow_Any_NEON","__ZN6google3geo2ar2v126QueryTerrainMeshesResponseD0Ev","_BN_count_low_zero_bits","__ZN3geo2ar4PoseD0Ev","__ZN3geo2ar3lib22LocalizationFilterImpl42CreatePoseLikelihoodForVpsWith6DoFTrackingERKNS1_14TrackedAnchorsERKNS0_27PoseLikelihoodFunctionProtoE","__ZNK6google8internal7android8location7bluesky4type15EcefCoordinates12ByteSizeLongEv","__ZN4logs5proto3geo2ar25ImageFrameLocalizerConfig51set_allocated_adaptive_image_frame_localizer_configEPNS2_33AdaptiveImageFrameLocalizerConfigE","__ZN6tflite3ops7builtin6conv3d4EvalENS2_10KernelTypeEP13TfLiteContextP10TfLiteNode","__ZN6tflite3ops7builtin23Register_BROADCAST_ARGSEv","__ZN4logs5proto3geo2ar16SensorCountEventD0Ev","__ZN26VROPortalTraversalListener19findPortalTraversalERK14VROLineSegmentRK4treeINSt3__110shared_ptrI9VROPortalEEE","__ZN4absl19str_format_internal17FormatConvertImplEPKcNS0_24FormatConversionSpecImplEPNS0_14FormatSinkImplE","_xnn_create_fully_connected_nc_qs8_qc4w","_OPENSSL_sk_delete","__ZN6proto28internal14WireFormatLite11WriteStringEiN4absl11string_viewEPNS_2io17CodedOutputStreamE","__ZN6tflite4impl11Interpreter21AddNodeWithParametersERKNSt3__16vectorIiNS2_9allocatorIiEEEES8_PKcmPvPK18TfLiteRegistrationPi","_ScaleARGBRowDownEven_Any_NEON","__Z37VROShapeUtilComputeTangentsForIndicesP20VROShapeVertexLayoutmPimP11VROVector3f","__ZN7octomap10Pointcloud15subSampleRandomEjRS0_","__ZN9perftools7tracing18TraceEventListener16OnTraceBeginSyncEjNS0_10StringImplILb1EEE","__ZN4logs5proto3geo2ar22FrameRejectReasonEvent12InternalSwapEPS3_","__ZN4viro18Node_Skeleton_Bone27MergePartialFromCodedStreamEPN13google_public8protobuf2io16CodedInputStreamE","__ZN4absl13base_internal23ThrowStdInvalidArgumentERKNSt3__112basic_stringIcNS1_11char_traitsIcEENS1_9allocatorIcEEEE","__ZN13VROQuaternion7getNormEv","__ZN4absl24synchronization_internal20CreateThreadIdentityEv","__ZN21btConeTwistConstraint14setMotorTargetERK12btQuaternion","__ZN7vraudio10ReverbNodeC1ERKNS_14SystemSettingsEPNS_10FftManagerE","__ZN4viro4Node10SharedDtorEv","__ZN6tflite12ArenaPlanner20GetTensorsToAllocateEii","__ZNK6google8internal7android8location7bluesky4type15EcefCoordinates12GetClassDataEv","__ZNK6icu_7713UnicodeString9getLengthEv","__Z9toDegreesf","__ZN3geo2ar33CameraIntrinsics_RadialDistortionC1EPN6proto25ArenaERKS1_","__ZN6google3geo2ar2v125CheckAvailabilityResponseD1Ev","__ZNK6google8internal7android8location7bluesky7v1beta128GetGridProbabilitiesResponse18_InternalSerializeEPhPN6proto22io19EpsCopyOutputStreamE","__ZN4logs5proto3geo2ar16Project3x3Config12InternalSwapEPS3_","__ZN6proto28internal19ExtensionSerializerEPKNS_11MessageLiteEPKhjjjPNS_2io17CodedOutputStreamE","__ZN3geo2ar16CameraParametersC2EPN6proto25ArenaERKS1_","__ZN6proto28internal18EpsCopyInputStream18VerifyUTF8FallbackEPKcm","_ECDH_compute_key","__ZN6google8protobuf7uint128dVERKS1_","__ZN15VROARSessioniOS25setMonocularDepthModelURLEP5NSURL","__ZN22VROARConstraintMatcher22removeFromDetachedListENSt3__110shared_ptrI20VROARDeclarativeNodeEE","_opus_packet_get_nb_channels","__ZN3geo2ar22CovarianceMatrix3Proto8CopyFromERKS1_","__ZN3geo2ar3lib32CovarianceMatrix3ProtoToLogProtoERKNS0_22CovarianceMatrix3ProtoE","__ZNK8octomath6Pose6D11transLengthEv","_RSA_verify_PKCS1_PSS_mgf1","__ZNK4logs5proto3geo2ar22RoadOrientationOptions18_InternalSerializeEPhPN6proto22io19EpsCopyOutputStreamE","__ZN22VROInputControllerBase17getPlaneIntersectENSt3__110shared_ptrI7VRONodeEE","__ZN3gvr14PlatformThreadD1Ev","__ZN4logs5proto3geo2ar30RealDeadReckonedPoseMixerEventC2EPN6proto25ArenaERKS3_","__ZN3p2t12SweepContextD2Ev","__ZN10VROARScene16setTrackingStateE18VROARTrackingState24VROARTrackingStateReasonb","_RGBAToYJRow_Any_NEON","_MirrorUVRow_Any_NEON","__ZN10VROSurface4setYEf","__ZN10Matrix3x3d9transposeEv","__ZN14VROPortalFrameC1Ev","__Z35VROMathComputePerspectiveProjectionffff","__ZN6proto22io16CodedInputStream18SetTotalBytesLimitEi","__ZN7vraudio16WavStreamDecoder20GetNextFramePositionEv","__ZN7vraudio16InterleaveStereoEmPKfS1_Pf","__ZN4logs5proto3geo2ar15SessionEndEvent9MergeImplERN6proto211MessageLiteERKS5_","__ZN4absl14SetMinLogLevelENS_18LogSeverityAtLeastE","_EC_GFp_nistp256_method","__ZN6tflite23HasUnspecifiedDimensionEPK12TfLiteTensor","__ZNK19VROARCameraInertial29getLimitedTrackingStateReasonEv","__ZN6google3geo2ar2v113LocationProto9MergeImplERN6proto211MessageLiteERKS5_","__ZN6proto28internal18InlinedStringField7ReleaseEPNS_5ArenaEb","__ZN13VROGLTFLoader21processRawChannelDataERKN8tinygltf5ModelENSt3__112basic_stringIcNS4_11char_traitsIcEENS4_9allocatorIcEEEEiRKNS0_16AnimationSamplerERNS4_6vectorINS4_10unique_ptrI25VROKeyframeAnimationFrameNS4_14default_deleteISG_EEEENS8_ISJ_EEEE","_HalfFloatRow_SVE2","__ZN3geo2ar7service15LocalizeOptionsC2EPN6proto25ArenaE","__ZNK3geo2ar7service45T2ResolveAnchorAndLocalizeRequest_CameraImage18_InternalSerializeEPhPN6proto22io19EpsCopyOutputStreamE","__ZN8tinygltf8TinyGLTF18LoadBinaryFromFileEPNS_5ModelEPNSt3__112basic_stringIcNS3_11char_traitsIcEENS3_9allocatorIcEEEERKS9_NS3_3mapIS9_S9_NS3_4lessIS9_EENS7_INS3_4pairISB_S9_EEEEEEj","__ZN13google_public8protobuf2io22LazyStringOutputStreamD0Ev","__ZNK6google3geo2ar2v115LocalizeRequest12ByteSizeLongEv","__ZN4absl10SimpleAtobENS_11string_viewEPb","_I420ToARGB4444","__ZN7vraudio16IosStreamDecoder19SeekToFramePositionEy","__ZN3geo2ar3lib22GetHeadingRadiansWorldERKN5Eigen6MatrixIdLi3ELi1ELi0ELi3ELi1EEE","__ZN6proto28internal8TcParser8FastGdR1EPNS_11MessageLiteEPKcPNS0_12ParseContextENS0_11TcFieldDataEPKNS0_16TcParseTableBaseEy","__ZNK6tflite8internal4Mfcc7ComputeERKNSt3__16vectorIdNS2_9allocatorIdEEEEPS6_","__ZN4absl13cord_internal16LogFatalNodeTypeEPNS0_7CordRepE","_I420AlphaToABGR","__ZN13VROByteBuffer19writeStringNullTermEPKc","__ZN6google3geo2ar2v125CheckAvailabilityResponse5ClearEv","__ZN18VROParticleEmitterD1Ev","__ZN15VROSoundDataGVRC1ENSt3__112basic_stringIcNS0_11char_traitsIcEENS0_9allocatorIcEEEE15VROResourceType","__ZN3geo2ar16CameraParameters23set_allocated_sphericalEPNS0_15CameraSphericalE","_xnn_create_fully_connected_nc_qs8_qc8w","__ZN13google_public8protobuf8internal14WireFormatLite14WriteBoolArrayEPKbiPNS0_2io17CodedOutputStreamE","__ZN3geo2ar3lib28ParticleTrackingQueueOptionsD1Ev","__ZN4absl13time_internal4cctz15local_time_zoneEv","__ZNK6proto28internal12ExtensionSet13NumExtensionsEv","__ZN3geo2ar7service20T2WarmUpCacheRequestC2EPN6proto25ArenaERKS2_","__ZN6tflite3ops7builtin13Register_GELUEv","__ZN6tflite8Subgraph20PrepareOpsStartingAtEiRKNSt3__16vectorIiNS1_9allocatorIiEEEEPi","__ZN3geo2ar7service21T2QueryFacadesRequest5ClearEv","__ZNK3ruy3Ctx14last_used_pathEv","__ZN6tflite3ops7builtin19Register_REDUCE_MINEv","__ZN3geo2ar3lib31NetworkEventMetrics_DataMetrics8CopyFromERKS2_","__ZNK4logs5proto3geo2ar19FrameSelectorConfig12GetClassDataEv","__ZN19VROARAnchorInertialD2Ev","_BN_one","__ZN21btConeTwistConstraint9setFramesERK11btTransformS2_","__ZN4logs5proto3geo2ar20StepDetectionOptionsC2EPN6proto25ArenaERKS3_","__ZN3geo2ar3lib33CreateAdaptiveImageFrameLocalizerERKNS1_33AdaptiveImageFrameLocalizerConfigEiNSt3__110shared_ptrINS1_14LocalizeClientEEENS6_INS1_18FrameRejectMetricsEEENS5_10unique_ptrINS1_18FramePriorityQueueENS5_14default_deleteISC_EEEE","__Z16VROMathGetCenterRNSt3__16vectorI11VROVector3fNS_9allocatorIS1_EEEE","_xnn_qp8_f32_qc8w_gemm_minmax_ukernel_16x64c4__neonsme2_get_nr","__Z7convertN4viro36Node_Geometry_Material_LightingModelE","__ZN13google_public8protobuf8internal21InitShutdownFunctionsEv","__ZN13google_public8protobuf8internal10LogMessagelsEPKc","__ZN26VROMonocularDepthEstimator18updateDepthTextureEPKfii","__ZN7strings20CheckedArrayByteSink6AppendEPKcm","__ZN3ion4base11AllocatableC2ERKNS0_9SharedPtrINS0_9AllocatorEEE","__Z27VROMathMultMatricesOptScalePKfS0_Pf","__ZN15inertial_anchor12measurements38EmpiricalHeadingUncertaintyModelHelper31DefaultWrappedCauchyModelParamsEv","__ZN6proto28internal8TcParser8FastBcS2EPNS_11MessageLiteEPKcPNS0_12ParseContextENS0_11TcFieldDataEPKNS0_16TcParseTableBaseEy","__ZN3ion4base8DateTimeC1Exhhhhhjaa","__ZN6tflite5async13ExecutionTask15SetBufferHandleEii","_BCM_mlkem768_generate_key","__ZN24VROObjectRecognitionTestC2Ev","_kai_get_n_step_matmul_clamp_f16_f16_f16p2vlx2b_1x16vl_sme2_dot","_EC_POINT_clear_free","__ZN6google3geo2ar2v131PreprocessingOptions_Mode_ParseEN4absl11string_viewEPNS2_25PreprocessingOptions_ModeE","__ZNK7vraudio11AudioIoImpl22GetBluetoothAudioStateEv","_bn_mod_add_consttime","_pthreadpool_parallelize_4d_tile_2d","__ZNK3geo2ar7service29T2BatchQueryElevationsRequest12GetClassDataEv","__ZN8location8bluemoon23GetPositionDistributionERKNS0_26UniformDistributionOptionsERKN3geo2ar27PoseLikelihoodFunctionProtoERKNS0_25ParticlePositionConverterERKNS0_26PositionAndYawPoseEstimateERKNS0_15ParticleSamplerERKNS0_17ParticlePerturberE","_DSA_get0_p","__ZN4absllsERNSt3__113basic_ostreamIcNS0_11char_traitsIcEEEENS_7uint128E","_BCM_aes_set_encrypt_key","__ZN4viro20Node_Geometry_SourceD2Ev","_TfLiteTensorCopyToBuffer","__ZN13VROGLTFLoader10injectGLTFENSt3__110shared_ptrI7VRONodeEES3_NS1_I9VRODriverEENS0_8functionIFvS3_bEEE","__ZNK6google3geo2ar2v114CircularRegion12ByteSizeLongEv","__ZNK3geo2ar3lib31NetworkEventMetrics_DataMetrics12ByteSizeLongEv","__ZN4logs5proto3geo2ar11GeoArLibLogC2EPN6proto25ArenaE","_ARGBToUVRow_SVE2","__ZN3geo2ar3lib31NetworkEventMetrics_DataMetricsD1Ev","__ZNK6proto22io20ByteSinkOutputStream14AllowsAliasingEv","__ZNK3geo2ar3lib24CloudLocalizationAligner21GetTrackedConstraintsERKNS1_14TrackedAnchorsE","__Z28ParseCommandLineNonHelpFlagsPiPPPcb","__ZN4absllsERNSt3__113basic_ostreamIcNS0_11char_traitsIcEEEENS_11string_viewE","__ZN3geo2ar3lib25GetHeadingFromEcefTDeviceERKNS0_11FrameTFrameILNS0_9FrameTypeE5ELS3_4EEENS1_15DisplayRotationE","__ZN19VROBodyIKController20restoreMissingJointsENSt3__16vectorI12VROBodyJointNS0_9allocatorIS2_EEEE","__ZN3geo2ar41RoadRelativeOrientationYawPredictionProto9MergeImplERN6proto211MessageLiteERKS3_","__ZN6tflite3ops7builtin6reduce18ResizeOutputTensorEP13TfLiteContextPNS2_9OpContextE","_RGB565ToARGBRow_C","__ZNK3geo2ar3lib44ClearcutLoggingConfig_SessionHeartbeatConfig12ByteSizeLongEv","__ZN4logs5proto3geo2ar39ClearcutLoggingConfig_FrameRejectConfig9MergeImplERN6proto211MessageLiteERKS5_","__ZN13google_public8protobuf2io22LazyStringOutputStream4NextEPPvPi","__ZN7vraudio27VrAudioEngineImplDeprecated60TemporaryMethodForEarthVrOnlyCreateStereoSoundAtTimePositionERKNSt3__112basic_stringIcNS1_11char_traitsIcEENS1_9allocatorIcEEEEd","_OPENSSL_cleanup","__ZN10VROOBJTestD1Ev","__ZN11VROARShadow22createFragmentModifierEv","__ZN4logs5proto3geo2ar14BlueskyOptionsD0Ev","__ZN6tflite3ops7builtin14lsh_projection18DenseLshProjectionEPK12TfLiteTensorS5_S5_Pi","__ZN4logs5proto3geo2ar16Project3x3ConfigC1EPN6proto25ArenaERKS3_","__ZN10VROSurface5setV0Ef","__ZN7vraudio11AudioBufferaSERKS0_","__ZNK6google3geo2ar2v120StartSessionResponse12GetClassDataEv","__ZN4logs5proto3geo2ar15NightTimeConfig9MergeImplERN6proto211MessageLiteERKS5_","__ZN7vraudio20CalculateDirectivityEffRKNS_14SphericalAngleE","__ZN16VROBodyMesheriOSC1Ev","__ZNK3geo2ar3lib9DebugPose12GetClassDataEv","__ZN4logs5proto3geo2ar19ParticleFilterEventD1Ev","__ZN4absl19str_format_internal17FormatConvertImplERKNSt3__112basic_stringIcNS1_11char_traitsIcEENS1_9allocatorIcEEEENS0_24FormatConversionSpecImplEPNS0_14FormatSinkImplE","__ZN3geo2ar8geometry8Triangle9MergeImplERN6proto211MessageLiteERKS4_","__ZN4logs5proto3geo2ar21InertialAnchorOptionsC1EPN6proto25ArenaE","__ZN3geo2ar30StepDetectionPerturbationProtoC1EPN6proto25ArenaE","__ZN10VROContour9setParityEi","__ZN25VROGaussianBlurRenderPassD0Ev","__ZN7vraudio17AudioAssetManagerC2Emi","__ZN26VROGeometrySubstrateOpenGL6renderERK11VROGeometryi11VROMatrix4fS3_fRKNSt3__110shared_ptrI11VROMaterialEERK16VRORenderContextRNS5_I9VRODriverEE","__ZThn232_N18VROVideoTextureiOS17onFrameWillRenderERK16VRORenderContext","__Z18VROMathInterpolatefffff","__ZNK3geo2ar3lib26FrameSnapshotForThirdParty15WithLatestFrameERKN4absl11FunctionRefIFvRKNS1_7ArFrameEEEE","__ZN6icu_7713UnicodeString4swapERS0_","__ZN6tflite3ops7builtin12batch_matmul10GetTempLhsEP13TfLiteContextP10TfLiteNodePK12TfLiteTensor","_ARGBToRGB565","__ZNK4logs5proto3geo2ar12ARCoreConfig18_InternalSerializeEPhPN6proto22io19EpsCopyOutputStreamE","__ZN8octomath6Pose6DC1Ev","__ZN4logs5proto3geo2ar11GeoArLibLog33set_allocated_session_start_eventEPNS2_17SessionStartEventE","__ZN3ruy7Context19mutable_thread_poolEv","_ScaleRowDown38_2_Box_16_C","__ZN4absl12log_internal15SetExitOnDFatalEb","__ZN10RandomBase15UnbiasedUniformEi","_silk_NLSF2A","_ScaleFilterCols64_C","__Z17LiveThread_OS_TIDPK10LiveThread","_BIO_write","__ZN8VROScene17computeTransformsEv","__ZNK8location8bluemoon36HeadingFromMotionDistributionOptions18_InternalSerializeEPhPN6proto22io19EpsCopyOutputStreamE","_EC_KEY_set_public_key","__ZN4logs5proto3geo2ar9DevConfigC1EPN6proto25ArenaE","__ZN6tflite3ops7builtin9lstm_eval17EvalInteger8x8_16EPK12TfLiteTensorS5_S5_S5_S5_S5_S5_S5_S5_S5_S5_S5_S5_S5_S5_S5_S5_S5_S5_S5_S5_S5_PK16TfLiteLSTMParamsbbPKNS2_20IntegerLstmParameterEPS3_SC_SC_SC_SC_SC_SC_SC_SC_PNS_17CpuBackendContextE","__ZN13VROByteBuffer9writeBoolEb","__ZN8VROIKRig22syncResultPositionOnlyENSt3__110shared_ptrI10VROIKJointEE","__ZNK11VROVector4f8midpointERKS_PS_","_stereo_itheta","_kai_get_rhs_packed_offset_matmul_clamp_f32_qai8dxp4x4_qsi4c32p4x4_16x4_neon_dotprod","__ZN11VROVector4fC2Ev","__ZN9VROSkybox19buildSkyboxGeometryEv","__ZN3gvr21AllocationSizeTracker24GetActiveAllocationCountEv","__ZN6proto28internal25RepeatedPrimitiveDefaults16default_instanceEv","__ZN3geo2ar30StepDetectionPerturbationProto8CopyFromERKS1_","__ZN3geo2ar3lib15BearingReporterC1ERKNS1_24HeadingFromMotionOptionsE","_xnn_create_batch_matrix_multiply_nc_pf32","_xnn_internal_release_weights_cache","__ZN14OrientationEKF17getHeadingDegreesEv","__ZN21VRORenderTargetOpenGL18setTextureCubeFaceEiii","__ZN3geo2ar7service15LocalizeOptionsD1Ev","_xnn_pqs8_qc8w_gemm_minmax_ukernel_1x32c4__neonsme2_get_mr","_silk_bwexpander","__ZN23btGeneric6DofConstraint19calculateTransformsEv","__ZN6proto28internal15ParseAnyTypeUrlEN4absl11string_viewEPNSt3__112basic_stringIcNS3_11char_traitsIcEENS3_9allocatorIcEEEE","__ZN7vraudio20ReflectionsProcessor20UpdateGainsAndDelaysEv","__ZN4logs5proto3geo2ar15SunAngleOptions5ClearEv","__ZNK6tflite8Subgraph23GetNodeInitDataMmapInfoEPK10TfLiteNodePiPxS5_","__ZN15VROARSessioniOS20removeARObjectTargetENSt3__110shared_ptrI17VROARObjectTargetEE","__ZN3ion4base8DateTimeC2Ev","__ZN6google3geo2ar2v119RigidTransformProtoC1EPN6proto25ArenaERKS3_","_EVP_PKEY_CTX_set_signature_md","__ZN10VROOBJTestD2Ev","__ZN3geo2ar3lib27SurfaceAnchorClearcutLogger14AssignAnchorIdERKNS1_6AnchorE","__ZN6VROBoxD1Ev","__ZN6tflite12tensor_utils43PortableMatrixBatchVectorMultiplyAccumulateEPKaiiS2_PKfiPfS4_PKiPiS8_PbPNS_17CpuBackendContextE","__ZN26VROGeometrySubstrateOpenGL19readGeometrySourcesERKNSt3__16vectorINS0_10shared_ptrI17VROGeometrySourceEENS0_9allocatorIS4_EEEE","__ZN6google3geo2ar2v125Detection_Visibility_NameENS2_20Detection_VisibilityE","__ZN6proto28internal20RepeatedPtrFieldBase24MergeIntoClearedMessagesERKS1_","__ZN7vraudio17VrAudioEngineImpl17CreateSourceGroupEv","__ZN7vraudio14SphericalAngleC2ERKS0_","__ZN4logs5proto3geo2ar27PoseLikelihoodFunctionProtoC1EPN6proto25ArenaE","__ZN6google8internal7android8location7bluesky4type9GnssClockC2EPN6proto25ArenaE","_uprv_strndup_77","__ZN23btGeneric6DofConstraint9setFramesERK11btTransformS2_","_ARGBToI444","__ZN9superroot9knowledge9astronomy19ObliquityCorrectionEd","__ZN11VROTypefaceD1Ev","__ZN6google8protobufmIERNS0_8DurationERKS1_","__ZN4logs5proto3geo2ar26TrackingFailureReasonEventC1EPN6proto25ArenaE","__ZN27VROPostProcessEffectFactory12enableEffectE20VROPostProcessEffectNSt3__110shared_ptrI9VRODriverEE","_ScaleARGBRowDown2_Any_NEON","__ZN3geo2ar3lib20ParticleFilterConfigD1Ev","__ZN10VROMorpherD2Ev","_uprv_isInfinite_77","__ZNK4logs5proto3geo2ar44ClearcutLoggingConfig_SessionHeartbeatConfig12GetClassDataEv","_kai_kernel_matmul_clamp_f32_qai8dxp1x8_qsi4c32p4x8_1x4x32_neon_dotprod","__ZN4viro4Node27MergePartialFromCodedStreamEPN13google_public8protobuf2io16CodedInputStreamE","__ZN6proto25Arena16AllocateForArrayEm","__ZN4logs5proto3geo2ar21ClearcutLoggingConfig12InternalSwapEPS3_","_pffft_transform_internal","__ZN11VROFontUtil12analyzeStyleEPKhmPiPb","__ZN7EncoderD2Ev","__ZN15VROARShadowTest5buildENSt3__110shared_ptrI11VRORendererEENS1_I20VROFrameSynchronizerEENS1_I9VRODriverEE","__ZN14VROTransaction3getEv","__ZNK6tflite5async13AsyncSubgraph21ReconcileRestrictionsEiPK18TfLiteAttributeMapPS2_S5_","__ZN4absl15status_internal9StatusRep14SaveStackTraceEii","_xnn_define_channelwise_quantized_tensor_value","__ZN6tflite3ops7builtin19Register_HARD_SWISHEv","_TfLiteTensorDim","__ZN16VROBodyMesheriOS14deriveVerticesEP12MLMultiArray17VROCameraPosition11VROMatrix4fS3_PNSt3__14pairI11VROVector3ffEE","__ZN23btDiscreteDynamicsWorld32createPredictiveContactsInternalEPP11btRigidBodyif","__ZN10Matrix3x3d9getColumnEiP8Vector3d","__ZN3geo2ar3lib24SmoothedTransformOptions8CopyFromERKS2_","__ZN19VROShadowPreprocessC2ENSt3__110shared_ptrI9VRODriverEE","__ZN4logs5proto3geo2ar19ParticleFilterEventD0Ev","__ZN8MTRandom5CycleEv","__ZN6proto28internal18InlinedStringField7ReleaseEv","_ENGINE_get_ECDSA_method","_kai_get_kr_matmul_clamp_f32_qai8dxp1vlx4_qsi8cxp4vlx4_1vlx4vl_sme2_mopa","__ZN3geo2ar7service22T2QueryFacadesResponseD1Ev","__ZN3ruy14TuningResolver10ResolveNowEPNS_7CpuInfoE","__ZN4absl5Mutex3FerEPNS_13base_internal14PerThreadSynchE","_ScaleUVRowUp2_Linear_C","_xnn_tensor_get_dynamic_quant_param_size","__ZNK3geo2ar3lib8T2Config18_InternalSerializeEPhPN6proto22io19EpsCopyOutputStreamE","_CBB_add_asn1","__ZN10CordReaderD0Ev","__ZN4base14ContextBuilder12set_deadlineEN4absl4TimeE","__ZN3geo2ar3lib14PoseConfidenceC2EPN6proto25ArenaERKS2_","__ZN13google_public8protobuf5ArenaD1Ev","__ZN23btGeneric6DofConstraintC2ER11btRigidBodyS1_RK11btTransformS4_b","__ZNK4absl4CordixEm","__ZN10VROReticle20animateFuseTriggeredEv","__ZN6google8internal7android8location7bluesky4type15EcefCoordinatesC2EPN6proto25ArenaERKS5_","__ZN10VROARScene16updatePointCloudEv","__ZN4absl14flags_internal18FlagStateInterfaceD2Ev","_TfLiteInterpreterOptionsAddOperator","__ZN3geo2ar3lib19NetworkEventMetrics5ClearEv","__ZN3geo2ar3lib24CloudLocalizationAligner20CombineDistributionsERKN8location8bluemoon25Transform3dWithConfidenceES7_","__ZN7vraudio3WavD2Ev","_RSA_public_decrypt","_pitch_downsample","__ZNK4absl15status_internal9StatusRep14ForEachPayloadENS_11FunctionRefIFvNS_11string_viewERKNS_4CordEEEE","__ZN7vraudio11AudioIoImpl4StopEv","__ZN6google3geo2ar2v127PoseLikelihoodFunctionProtoC2EPN6proto25ArenaE","__ZN3geo2ar14PlaceIdOptions5ClearEv","__ZN3geo2ar3lib39ClearcutLoggingConfig_FrameRejectConfigC2EPN6proto25ArenaERKS2_","__ZN6proto28internal12ExtensionSet22MutableRepeatedMessageEii","__ZN8location8bluemoon22CarryPoseChangeOptionsC1EPN6proto25ArenaE","_opus_decoder_create","__ZN4logs5proto3geo2ar19ParticleFilterEvent8CopyFromERKS3_","__ZN13google_public8protobuf11MessageLite23ParseFromZeroCopyStreamEPNS0_2io19ZeroCopyInputStreamE","__ZN3geo2ar3lib17BestLocationStore6UpdateEN4absl8DurationERKNS1_8LocationERKNSt3__18optionalINS1_14PoseConfidenceEEE","_kai_get_rhs_packed_offset_matmul_clamp_f32_qai8dxp1x4_qsi4c32p4x4_1x4_neon_dotprod","__ZN3geo2ar3lib20LocalizationProvider26IsMagneticFieldInitializedEv","__ZN6icu_775EditsaSERKS0_","__ZN9VROPortal19sortNodesBySortKeysEv","__ZNK4logs5proto3geo2ar12ClientConfig12ByteSizeLongEv","__ZN9VROIKTestD1Ev","_RSA_padding_add_PKCS1_type_1","_ScaleUVRowDownEven_Any_NEON","__ZThn32_N7vraudio14ProcessingNode9GetOutputEv","__ZN3ruy17KernelFloatNeonX1ERKNS_17KernelParamsFloatILi8ELi8EEE","_EVP_PKEY_base_id","__ZN6proto22io21ByteSourceInputStreamC2EPN7strings10ByteSourceE","__ZN4absl13cord_internal9CordzInfo9TrackCordERNS0_10InlineDataENS0_18CordzUpdateTracker16MethodIdentifierEx","_BCM_mldsa44_private_key_from_seed","__ZN19VROBodyIKController22alignModelRootToMLRootEv","__ZN12VROFBXLoader9injectFBXENSt3__110shared_ptrI7VRONodeEES3_NS1_I9VRODriverEENS0_8functionIFvS3_bEEE","_reshape_for_lut","__ZN3geo2ar32CarryPoseChangePerturbationProto9MergeImplERN6proto211MessageLiteERKS3_","__ZN3geo2ar7service33T2ResolveAnchorAndLocalizeRequestC1EPN6proto25ArenaE","__ZNK4util17ErrorSpacePayload18_InternalSerializeEPhPN6proto22io19EpsCopyOutputStreamE","__ZNK8S2CellId21AppendVertexNeighborsEiPNSt3__16vectorIS_NS0_9allocatorIS_EEEE","_BGRAToARGB","_I444ToARGBRow_NEON","_kai_get_sr_matmul_clamp_qai8_qai8p2vlx4_qsi8cxpsb2vlx4_2vlx2vl_sme2_mopa","__Z31btSetCustomLeaveProfileZoneFuncPFvvE","_op_open_callbacks","_TfLiteTensorGetDataKnownStep","__ZN13VROQuaternion3setERK11VROVector3f","__ZN3geo2ar3lib31QualityFramePriorityQueueConfigD0Ev","__ZNK4absl8TimeZone2AtENS_13time_internal4cctz6detail10civil_timeINS1_10second_tagEEE","__ZN4absl13cord_internal32SetCordBtreeExhaustiveValidationEb","_EVP_AEAD_max_overhead","__ZN6proto28internal15ThreadSafeArena4InitEv","_ARGBToAR64Row_C","__Z7FreeMemv","_xnn_run_constant_pad_nd_x16","_op_test_open","__ZN23VROIrradianceRenderPass4initENSt3__110shared_ptrI9VRODriverEE","__ZNK4logs5proto3geo2ar51LowLightImageProcessingConfig_GammaCorrectionConfig12GetClassDataEv","_Android420ToI420","__ZN6google3geo2ar2v120StartSessionResponseD0Ev","__ZNK4logs5proto3geo2ar49RealDeadReckonedPoseMixerConfig_UncertaintyRatios12ByteSizeLongEv","__ZN22VROBodySurfaceRendererC2EP9VROViewARNSt3__110shared_ptrI13VROBodyMesherEE","__ZN4viro20Node_Geometry_SourceD1Ev","__ZN7vraudio10FftManager18FreqFromTimeDomainERKNS_11ChannelViewEPS1_","__ZN6tflite4impl18InterpreterBuilderD2Ev","__ZN6tflite13DynamicBuffer13WriteToTensorEP12TfLiteTensorP14TfLiteIntArray","_pack_qs8_deconv_goki_w","_EC_KEY_marshal_curve_name","__ZN15VROARSessioniOS11setViewportE11VROViewport","__ZN4viro13Node_SkeletonC1Ev","__ZN4logs5proto3geo2ar12ClientConfigC1EPN6proto25ArenaE","__ZNK6google3geo2ar2v114ReferenceFrame12GetClassDataEv","__ZN6google8protobufdVERNS0_8DurationEx","_xnn_reshape_convolution2d_nhwc_qd8_f32_qc8w","_I420AlphaToARGBMatrixFilter","__ZN6google8internal7android8location7bluesky4type11DoubleValue8CopyFromERKS5_","_kai_get_rhs_packed_size_rhs_pack_kxn_f32p2vlx1biasf32_f32_f32_sme","_xnn_subgraph_check_quantization_parameter_matches","_xnn_setup_deconvolution2d_nhwc_qd8_f32_qc8w","_xnn_define_even_split","__ZN4logs5proto3geo2ar19InertialAnchorFlags5ClearEv","__ZN6tflite3ops7builtin3add7PrepareEP13TfLiteContextP10TfLiteNode","__ZNK3geo2ar7service20T2WarmUpCacheRequest18_InternalSerializeEPhPN6proto22io19EpsCopyOutputStreamE","__ZN4util28DeadlineExceededErrorBuilderEN4absl14SourceLocationE","__ZN6proto28internal8TcParser9FastEr1P2EPNS_11MessageLiteEPKcPNS0_12ParseContextENS0_11TcFieldDataEPKNS0_16TcParseTableBaseEy","__ZN15VROARSessioniOS24setMonocularDepthEnabledEb","__ZN4base12IsAbseilFlagERKN4absl15CommandLineFlagE","__ZN6tflite29ConvertVectorToTfLiteIntArrayERKNSt3__16vectorIiNS0_9allocatorIiEEEE","_stbi_load_from_file_16","__ZN4absl18container_internal16RecordRehashSlowEPNS0_14HashtablezInfoEm","__ZN7generic8UniqueIdC1Ev","__ZN19VROSkeletonRenderer17onBodyJointsFoundERKNSt3__16vectorINS1_I20VROInferredBodyJointNS0_9allocatorIS2_EEEENS3_IS5_EEEE","__ZN3geo2ar7service6Anchor12InternalSwapEPS2_","__ZN6google8internal7android8location7bluesky4type9GnssClock40clear_elapsed_realtime_uncertainty_nanosEv","__ZN6tflite3ops7builtin20Register_CONV_3D_REFEv","_BCM_mldsa87_sign_message_representative","__ZNK19VROARCameraInertial16getTrackingStateEv","__ZN12VROTaskQueueD0Ev","_u_memcmpCodePointOrder_77","_xnn_setup_dynamic_fully_connected_nc_f32","__ZN6google3geo2ar2v114ReferenceFrameC1EPN6proto25ArenaE","__ZN8VROLight16setShadowOpacityEf","__ZNK13VROARFrameiOS12hasDepthDataEv","__ZNK11VROTriangle13intersectsRayE11VROVector3fS0_PS0_","__ZN4viro29Node_Geometry_Material_Visual4SwapEPS0_","_SplitARGBRow_C","__ZN3geo2ar7service14ElevationQuery14clear_locationEv","__ZN4base26ReportCommandLineHelpMatchEN4absl11string_viewES1_","__ZN2ar5image16ValidateFormatIsEN4absl11string_viewERKNS_5ImageENS0_6FormatE","__ZNK4logs5proto3geo2ar12BearingEvent18_InternalSerializeEPhPN6proto22io19EpsCopyOutputStreamE","__ZN3geo2ar3lib15NightTimeConfigC2EPN6proto25ArenaERKS2_","__ZN4absl13hash_internal18CityHash64WithSeedEPKcmy","_dctsub","__ZN4logs5proto3geo2ar13PoseJumpEvent12InternalSwapEPS3_","__ZN3geo2ar2v115terrain_service10ToApiProtoERKNS0_7service29T2BatchQueryElevationsRequestE","__ZN3geo2ar3lib12GnssReporter20SetPerformanceModeFnEN4absl12AnyInvocableIKFNS1_15PerformanceModeEvEEE","__ZN6tflite3ops7builtin15fully_connected15PrepareImpl4BitEP13TfLiteContextP10TfLiteNodeiiiiii","__ZN4absl18container_internal36SetHashtablezSampleParameterInternalEi","__ZN3geo2ar3lib19GnssEventToLogProtoERKN2ar14infrastructure9GnssEventE","__ZN6proto28internal12ExtensionSet21InternalMergeFromSlowEPKNS_11MessageLiteERKS1_","_kai_get_rhs_offset_rhs_pack_nxk_x16p2vlx2b_x16_x16_sme","_kai_get_mr_matmul_clamp_f32_qai8dxp1x4_qsi8cxp4vlx4_1x4vl_sme2_dot","__ZN8VROIKRig34createSkeletalRigFromSkeletalModelEi","__ZN3gvr21AllocationSizeTracker21TrackDeallocationSizeEm","__ZN6proto28internal8TcParser9FastZ32P1EPNS_11MessageLiteEPKcPNS0_12ParseContextENS0_11TcFieldDataEPKNS0_16TcParseTableBaseEy","__ZN6icu_7713UnicodeStringC1ERKS0_","__ZN4logs5proto3geo2ar31TerrainAnchorFirstTrackingEventC2EPN6proto25ArenaERKS3_","__ZNK3geo2ar3lib45RealDeadReckonedPoseMixerConfig_Uncertainties12ByteSizeLongEv","__ZN6proto28internal15ThreadSafeArena14AddSerialArenaEPvPNS0_11SerialArenaE","__ZN18VROParticleEmitter17getExplosionAccelE11VROVector3f","__ZN6google8internal7android8location7bluesky7v1beta115CompactGridEcef12clear_centerEv","__ZN4base30RestoreCurrentTraceContextFromEP12TraceContext","__ZN7strings25CalculateBase32EscapedLenEm","__ZN8VROIKRig22setPositionForEffectorENSt3__112basic_stringIcNS0_11char_traitsIcEENS0_9allocatorIcEEEE11VROVector3f","__ZN3geo2ar3lib30BatchingSurfaceElevationClient15SendRequestLoopEv","_ABGRToUVJRow_C","__ZN22VROARImperativeSession16addARImageTargetENSt3__110shared_ptrI16VROARImageTargetEE","_OPENSSL_strhash","__ZN3geo2ar7service21T2QueryFacadesRequestC1EPN6proto25ArenaE","_MergeARGB16To8Row_C","__ZN4absl12log_internal10LogMessageC2EPKciNS1_7InfoTagE","_OPENSSL_lh_retrieve","__ZN4util32internal_status_macros_ret_check21CheckOpMessageBuilderC1EPKc","__ZN4absl13time_internal4cctz12TimeZoneLibCC1ERKNSt3__112basic_stringIcNS3_11char_traitsIcEENS3_9allocatorIcEEEE","__ZN7generic8UniqueIdC1ERKNSt3__112basic_stringIcNS1_11char_traitsIcEENS1_9allocatorIcEEEE","__ZN4absl12log_internal20LogMessageDebugFatalC2EPKci","_BN_mod_mul","__ZN12VROFBXLoader24loadFBXSkeletalAnimationERKN4viro22Node_SkeletalAnimationENSt3__110shared_ptrI10VROSkinnerEE","__ZN6google8internal7android8location7bluesky4type10FloatValue5ClearEv","__ZN13VROByteBufferC1Ev","__ZN10VROConvert16toMatrixFloat4x4E11VROMatrix4f","__ZN3geo2ar3lib45AdaptiveImageFrameLocalizerConfig_PitchConfigC1EPN6proto25ArenaERKS2_","_BCM_mldsa87_prehash_update","_x25519_ge_scalarmult","_reshape_depth_to_space_nchw2nhwc","_xnn_setup_batch_matrix_multiply_nc_qp8_f32_qc8w","__ZN6icu_7711ICU_Utility12appendNumberERNS_13UnicodeStringEiii","__ZN15VROARSessioniOS22updateAnchorFromNativeENSt3__110shared_ptrI11VROARAnchorEEP8ARAnchor","__ZN3geo2ar3lib11SensorEventD2Ev","__ZN4logs5proto3geo2ar28RigidTransformWithConfidence12InternalSwapEPS3_","__ZNK4logs5proto3geo2ar33ParticleFilterEvent_TrackedAnchor12GetClassDataEv","_xnn_create_deconvolution2d_nhwc_f32","_I420Rect","__ZN6google3geo2ar2v127PoseLikelihoodFunctionProtoD1Ev","__ZN4absl29SetMutexDeadlockDetectionModeENS_15OnDeadlockCycleE","_TfLiteModelCreateWithErrorReporter","_DetileRow_16_Any_NEON","__ZN4logs5proto3geo2ar33AdaptiveImageFrameLocalizerConfigC2EPN6proto25ArenaERKS3_","__ZN6tflite17ConvertTensorTypeENS_10TensorTypeEP10TfLiteTypePNS_13ErrorReporterE","_EVP_md5_sha1","__ZN9VROPortal22renderPortalSilhouetteERNSt3__110shared_ptrI11VROMaterialEE17VROSilhouetteModeNS0_8functionIFbRK7VRONodeEEERK16VRORenderContextRNS1_I9VRODriverEE","__ZN11VRORenderer13requestExitVREv","__ZN20VROTextEventDelegate7onPinchEiNSt3__110shared_ptrI7VRONodeEEfN16VROEventDelegate10PinchStateE","_uprv_isInvariantUString_77","__ZNK3geo2ar3lib8T2Config12GetClassDataEv","__ZN3geo2ar27PoseLikelihoodFunctionProto29set_allocated_inertial_anchorEPNS0_35InertialAnchorPoseDistributionProtoE","__ZN7octomap14AbstractOcTree10readHeaderERNSt3__113basic_istreamIcNS1_11char_traitsIcEEEERNS1_12basic_stringIcS4_NS1_9allocatorIcEEEERjRd","__ZN3geo2ar23RigidTransformFromProtoERKNS0_19RigidTransformProtoE","__ZNK14VROPortalFrame13getActiveFaceEb","__ZN3geo2ar3lib35LocalizationFilterLikelihoodOptionsC2EPN6proto25ArenaE","__ZN20VROTextEventDelegate8onRotateEiNSt3__110shared_ptrI7VRONodeEEfN16VROEventDelegate11RotateStateE","_TfLiteIntArrayGetSizeInBytes","__ZN3ruy4WaitERKNSt3__18functionIFbvEEERKNS0_6chrono8durationIxNS0_5ratioILl1ELl1000000000EEEEEPNS0_18condition_variableEPNS0_5mutexE","__ZN4logs5proto3geo2ar24CloudLocalizationOptionsD2Ev","_BN_BLINDING_convert","__ZN6tflite3ops7builtin9if_kernel4InitEP13TfLiteContextPKcm","_xnn_create_convert_nc_f32_qdu8","__ZN3geo2ar7service6Anchor24clear_last_localize_timeEv","__ZN4logs5proto3geo2ar30TimedImageFrameLocalizerConfigC1EPN6proto25ArenaE","__ZN6tflite3ops7builtin35Register_SPACE_TO_DEPTH_GENERIC_OPTEv","__ZNK8location8bluemoon25EstimateConfidenceOptions12ByteSizeLongEv","__ZN3geo2ar3lib15SunAngleOptionsD1Ev","__ZN7generic8UniqueId10FromStringERKNSt3__112basic_stringIcNS1_11char_traitsIcEENS1_9allocatorIcEEEE","__ZN7vraudio11AudioIoImplC2ERKNSt3__112basic_stringIcNS1_11char_traitsIcEENS1_9allocatorIcEEEEmi","_I400ToI400","__ZN9PerThread10ModuleInitC2Ev","__ZN4absl13base_internal8SpinLock16DecodeWaitCyclesEj","__ZN4viro22Node_Geometry_MaterialD2Ev","__ZN6UniLib25CoerceToStructurallyValidEN4absl11string_viewEcNS0_4SpanIcEE","_I444AlphaToARGBRow_Any_NEON","__ZN13VROStringUtil8toStringEi","__ZN3ruy9Allocator7FreeAllEv","_slhdsa_fors_sign","__ZN6proto24util8TimeUtil8ToStringERKN6google8protobuf9TimestampE","__ZN3geo2ar7service20T2WarmUpCacheRequest12InternalSwapEPS2_","_ScalePlane_12","_RGB24ToUVRow_Any_NEON","__ZN4logs5proto3geo2ar30TimedImageFrameLocalizerConfig9MergeImplERN6proto211MessageLiteERKS5_","__ZN3geo2ar3lib31RealDeadReckonedPoseMixerConfig5ClearEv","__ZN13VROByteBuffer6rewindEv","__ZN6proto22io16ArrayInputStream4SkipEi","_xnn_define_static_transpose","__ZN11VROSoundGVR9setVolumeEf","__ZN6ThreadD1Ev","__ZN3ion4base8DateTimepLEd","__Z17GetInitGoogleTimev","__ZNK4absl9Condition4EvalEv","__ZN6tflite3ops7builtin37Register_UNIDIRECTIONAL_SEQUENCE_LSTMEv","_DGifGetLine","__ZN4viro13Node_GeometryC2ERKS0_","__ZNK8location8bluemoon22GridLikelihoodAccessor22GridPointAtRowColIndexEii","__ZN11VROImageiOS8hasAlphaEP7UIImage","__ZNK8S2CellId18AppendAllNeighborsEiPNSt3__16vectorIS_NS0_9allocatorIS_EEEE","__ZNK4absl4Time2InENS_8TimeZoneE","_xnn_subgraph_new_node","__ZN3geo2ar3lib31RealDeadReckonedPoseMixerConfigC1EPN6proto25ArenaERKS2_","__ZN3geo2ar3lib19LocalizationManager15ProcessLocationERKNS1_8LocationEx","__ZN8VROPlaneC2E11VROVector3ff","__ZN6tflite3ops7builtin36Register_STABLEHLO_RNG_BIT_GENERATOREv","__ZN4logs5proto3geo2ar48ParticleFilterConfig_PositionAndYawFilterOptionsC1EPN6proto25ArenaERKS3_","__ZN4absl14flags_internal8FlagImpl12RestoreStateERKNS0_9FlagStateE","__ZN3geo2ar9Detection17clear_external_idEv","_ARGBMultiplyRow_Any_NEON","__ZNK27VROLayeredSkeletalAnimation8toStringEv","__ZN4base26ReportCommandLineShortHelpEN4absl11string_viewE","_u_strFromUTF32_77","__ZN8location8bluemoon14inertialanchor40EmpiricalHeadingUncertaintyModelFeatures12InternalSwapEPS2_","__ZN4util14SimulatedClockD1Ev","_xnn_qp8_f32_qc4w_gemm_minmax_ukernel_16x64c4__neonsme2_get_nr","_ringBufferIndexerReadUsingLinearIndex","__ZNK4logs5proto3geo2ar10ErrorCount12GetClassDataEv","__ZN4logs5proto3geo2ar15SunAngleOptionsD0Ev","__ZN24VROBodyTrackerControllerC2ENSt3__110shared_ptrI11VRORendererEENS1_I9VRODriverEENS1_I14VROBodyTrackerEENS1_I7VRONodeEE","__ZN8tcmalloc13AddressRegionD1Ev","__ZN9perftools7tracing4core11SyncContext4Impl20AddListenerToCurrentEPNS0_18TraceEventListenerENS0_10StringImplILb1EEE","__ZN26VROMonocularDepthEstimator15getDepthTextureEv","__ZN6proto22io15CordInputStream8ReadCordEPN4absl4CordEi","__ZN6proto211MessageLite22MergePartialFromStringERKN4absl4CordE","__ZN7VRONode16applyConstraintsERK16VRORenderContext11VROMatrix4fb","__ZN22VROAVCaptureController8isPausedEv","__ZN6proto211MessageLite42ParseFromBoundedZeroCopyStreamWithAliasingEPNS_2io19ZeroCopyInputStreamEi","_EVP_pkey_ec_p224","__ZThn8_N3geo2ar3lib19ActualSurfaceAnchorD1Ev","__ZNK3geo2ar7service28T2QueryTerrainMeshesResponse18_InternalSerializeEPhPN6proto22io19EpsCopyOutputStreamE","__ZN6tflite4impl11Interpreter15GetBufferHandleEiPiPP14TfLiteDelegate","__ZN7vraudio20PartitionedFftFilter15SetFilterLengthEm","_EC_KEY_is_opaque","__ZN4absl12log_internal22LogMessageQuietlyFatalC1EPKciS3_","__ZN2ar5image21GetStandardPlaneCountENS0_6FormatE","__ZN4absl19str_format_internal17FormatConvertImplENS0_7VoidPtrENS0_24FormatConversionSpecImplEPNS0_14FormatSinkImplE","__ZN6proto22io26CopyingOutputStreamAdaptor22AllocateBufferIfNeededEv","__ZN6proto28internal9LazyField23UnsafeArenaSetAllocatedEPNS_11MessageLiteEPNS_5ArenaE","_InterpolateRow_NEON","__ZN13VROARFrameiOS17generateDepthMeshEiff","__ZNK6icu_775Edits11copyErrorToER10UErrorCode","__ZN4absl19substitute_internal3ArgC1ENS_3DecE","__ZN10VROFrustumD2Ev","__ZN6google8internal7android8location7bluesky4type11DoubleValue5ClearEv","__ZN7vraudio28AmbisonicBinauralDecoderNodeD1Ev","__ZN3geo2ar7service9ElevationD2Ev","__ZN11VROMatrix4f7rotateXEf","_kai_get_bias_offset_rhs_pack_kxn_qsi8cxp2vlx4sb_qs8cx_f32_i32_sme","__ZN17VROAudioPlayeriOSC1ENSt3__112basic_stringIcNS0_11char_traitsIcEENS0_9allocatorIcEEEEb","__ZN6google3geo2ar2v127PoseLikelihoodFunctionProto5ClearEv","__ZN13google_public8protobuf8internal10LogMessagelsEi","__ZN6thread5local8internal3VarC1EPNS1_8InstanceE","_kai_get_n_step_matmul_clamp_f32_f32_f32p2vlx1b_1x8vl_sme_mla","_ARGBCopyYToAlphaRow_C","__ZN6google3geo2ar2v127PoseLikelihoodFunctionProtoC1EPN6proto25ArenaERKS3_","__ZN12TraceContext13AbandonTracerEv","__ZN3gvr21AllocationSizeTracker20GetDeallocationCountEv","_EVP_CIPHER_CTX_nid","_BCM_mldsa87_private_key_from_seed","__ZN4util32internal_status_macros_ret_check22MakeCheckOpValueStringEPNSt3__113basic_ostreamIcNS1_11char_traitsIcEEEEPKa","__ZNK4viro20Node_Geometry_Source12ByteSizeLongEv","__ZN15VROPhysicsWorld19setDebugDrawVisibleEb","__ZN6tflite29ParseModelControlDependenciesEPKcmPNSt3__16vectorINS3_INS2_4pairIiiEENS2_9allocatorIS5_EEEENS6_IS8_EEEE","__ZN4logs5proto3geo2ar36HeadingFromMotionDistributionOptionsC1EPN6proto25ArenaERKS3_","__ZN4absl13cord_internal9CordzInfoC2EPNS0_7CordRepEPKS1_NS0_18CordzUpdateTracker16MethodIdentifierEx","__ZNK4logs5proto3geo2ar25TerrainAnchorCreatedEvent12ByteSizeLongEv","__ZN6google8internal7android8location7bluesky7v1beta115CompactGridEcefC2EPN6proto25ArenaE","__ZN10VROARScene22resetPointCloudSurfaceEv","_OBJ_cbs2nid","_kai_get_rhs_packed_size_rhs_pack_nxk_qsi4cxp_qs4cxs1s0","_xnn_look_up_or_insert_weights_cache","__ZN15VROParticleTestD2Ev","__ZN4logs5proto3geo2ar48LowLightImageProcessingConfig_PixelBinningConfigC1EPN6proto25ArenaERKS3_","__ZN23btDiscreteDynamicsWorld27integrateTransformsInternalEPP11btRigidBodyif","__ZN6google3geo2ar2v113CacheContentsD2Ev","__ZN6tflite8Subgraph28FreeDelegatePartitioningDataEv","__ZN8location8bluemoon14inertialanchor48WrappedCauchyHeadingUncertaintyModelParametersV112InternalSwapEPS2_","_BCM_mlkem1024_private_key_from_seed","__ZN7vraudio14IsGainNearZeroEf","__ZN6google8protobuf7ClosureD1Ev","_ucdn_get_combining_class","__ZN7VROText12setMaterialsENSt3__16vectorINS0_10shared_ptrI11VROMaterialEENS0_9allocatorIS4_EEEE","__ZN12base_logging10LogToFilesEv","__ZN3geo2ar3lib20PerformanceModeStore21UpdatePerformanceModeENS1_15PerformanceModeE","__ZN6google3rpc6StatusC2EPN6proto25ArenaERKS1_","_BN_hex2bn","__ZN9util_time20DecodeGoogleApiProtoERKN6google8protobuf9TimestampE","_RSA_flags","_EVP_PKEY_CTX_get_rsa_padding","__ZN4logs5proto3geo2ar27PoseLikelihoodFunctionProtoC2EPN6proto25ArenaE","__ZN15VROARSessioniOS20checkVPSAvailabilityEddNSt3__18functionIFv18VROVPSAvailabilityEEE","_I422ToARGB1555Row_C","__ZN3ion4base8DateTime14AdjustTimeZoneEii","__ZNK3geo2ar3lib9DevConfig12ByteSizeLongEv","__ZN7vraudio27ScalarMultiplyAndAccumulateEmfPKfPf","__ZN13google_public8protobuf2io18StringOutputStreamD2Ev","__ZNK14VROARDepthMesh7isValidEv","__ZNK3geo2ar7service49T2ResolveAnchorAndLocalizeResponse_ResolvedAnchor18_InternalSerializeEPhPN6proto22io19EpsCopyOutputStreamE","__ZN3geo2ar3lib16SunAngleReporter20ProcessLightEstimateERKNS1_13LightEstimateERKNS0_11FrameTFrameILNS0_9FrameTypeE8ELS7_4EEERKN5Eigen6MatrixIdLi3ELi1ELi0ELi3ELi1EEEN4absl4TimeE","__ZN6tflite13ParseFloorDivEPKNS_8OperatorEPNS_13ErrorReporterEPNS_20BuiltinDataAllocatorEPPv","__ZN8octomath10QuaternionC1Effff","__ZN4logs5proto3geo2ar13PoseJumpEventD2Ev","__ZN7vraudio17BufferPartitioner5ClearEv","__ZNK21VRORenderTargetOpenGL14getTextureNameEi","__ZN6google3geo2ar2v126QueryTerrainMeshesResponseC2EPN6proto25ArenaE","__ZN4logs5proto3geo2ar21SessionHeartbeatEvent12InternalSwapEPS3_","__ZNK11VROGeometry29getGeometrySourcesForSemanticE25VROGeometrySourceSemantic","__ZN21VRORenderTargetOpenGL8bindReadEv","__ZNK6proto28internal12ExtensionSet18GetRepeatedMessageEii","__ZThn24_N7vraudio10SourceNode9GetOutputEv","__ZThn24_N9VROPortalD0Ev","__ZN4viro18Node_Skeleton_Bone8CopyFromERKS0_","__ZNK3geo2ar17FacadesSnapshotId18_InternalSerializeEPhPN6proto22io19EpsCopyOutputStreamE","__ZNK8S2LatLng17ToStringInDegreesEv","__ZNK4logs5proto3geo2ar48ParticleFilterConfig_PositionAndYawFilterOptions12GetClassDataEv","__ZN4absl13cord_internal11CordzHandle41DiagnosticsGetSafeToInspectDeletedHandlesEv","_ogg_stream_packetin","__ZN3geo2ar27PoseLikelihoodFunctionProtoC2EPN6proto25ArenaE","__ZN6tflite12ArenaPlanner26ReleaseNonPersistentMemoryEv","__ZN3gvr14PlatformThreadC2Ev","__ZN8MathUtil8HarmonicExPd","__ZN3geo2ar7service14LocalizeResultC2EPN6proto25ArenaE","__ZN6proto22io19OstreamOutputStream26CopyingOstreamOutputStreamD0Ev","__ZN13VROVectorizerD0Ev","_xnn_reshape_convert_nc_f32_qd8","_DH_compute_key","__ZN4absl19substitute_internal24SubstituteAndAppendArrayEPNSt3__112basic_stringIcNS1_11char_traitsIcEENS1_9allocatorIcEEEENS_11string_viewEPKS9_m","__ZN7vraudio17VrAudioEngineImpl16CreateSoundfieldEid","__ZN3geo2ar3lib21ClearcutLoggingConfig8CopyFromERKS2_","__ZN3geo2ar3lib30HybridSurfaceElevationProviderC2EN4absl12AnyInvocableIKFbRK8S2LatLngNS1_12EarthSurfaceERNSt3__18optionalIdEEEEENS9_10unique_ptrINS1_24SurfaceElevationProviderENS9_14default_deleteISG_EEEE","__ZN4absl12FDivDurationENS_8DurationES0_","__ZN16VROBodyMesheriOS16initBodyTrackingE17VROCameraPositionNSt3__110shared_ptrI9VRODriverEE","__ZN4absl14flags_internal21PrivateHandleAccessor20ValidateDefaultValueERKNS_15CommandLineFlagE","__ZN20VROARSessionInertial22setCloudAnchorProviderE22VROCloudAnchorProvider","_DetileSplitUVRow_NEON","__ZN21btConeTwistConstraintC2ER11btRigidBodyRK11btTransform","__ZN6google3geo2ar2v120SignalTypeEnum_ParseEN4absl11string_viewEPNS2_14SignalTypeEnumE","__ZN12VROFBXLoader19loadFBXFromResourceENSt3__112basic_stringIcNS0_11char_traitsIcEENS0_9allocatorIcEEEE15VROResourceTypeNS0_10shared_ptrI7VRONodeEENS8_I9VRODriverEENS0_8functionIFvSA_bEEE","_xnn_f32_vcopysign_ukernel__neon_u4","__ZN4base14ContextBuilder17set_thread_statusEPKc","__ZN7vraudio10HoaRotator7ProcessERKNS_13WorldRotationERKNS_11AudioBufferEPS4_","__ZN13google_public8protobuf2io22LazyStringOutputStreamD2Ev","__ZN22VROPrefilterRenderPassD2Ev","__ZN4logs5proto3geo2ar26TerrainAnchorResolvedEventC2EPN6proto25ArenaE","__ZN4logs5proto3geo2ar22FrameRejectReasonEventC2EPN6proto25ArenaE","__ZN13google_public8protobuf8internal10LogMessagelsEm","__ZN6proto26bridge10MessageSetC1EPNS_5ArenaE","_RSA_private_encrypt","__ZN6google3geo2ar2v132ReferenceFrame_CommonFrame_ParseEN4absl11string_viewEPNS2_26ReferenceFrame_CommonFrameE","_ScaleRowDown4_C","_ec_GFp_mont_felem_sqr","__ZN3geo2ar3lib35CreateImageFrameLocalizerFromConfigERKNS1_6ConfigENSt3__110shared_ptrINS1_14LocalizeClientEEENS6_INS1_18FrameRejectMetricsEEEN4absl11FunctionRefIFNS5_10unique_ptrINS1_19ImageFrameLocalizerENS5_14default_deleteISE_EEEERKNS1_30TimedImageFrameLocalizerConfigEiS8_SA_EEENSC_IFSH_RKNS1_33AdaptiveImageFrameLocalizerConfigEiS8_SA_NSD_INS1_18FramePriorityQueueENSF_ISQ_EEEEEEENSC_IFSS_RKNS1_31QualityFramePriorityQueueConfigEEEE","__ZN4absl17BadStatusOrAccessC2ERKS0_","__ZN4logs5proto3geo2ar12ClientConfigC2EPN6proto25ArenaERKS3_","_xnn_internal_reserve_space_in_weights_cache","__ZNK6google8internal7android8location7bluesky7v1beta115CompactGridEcef18_InternalSerializeEPhPN6proto22io19EpsCopyOutputStreamE","__ZN16VROBodyMesheriOS17getSamplingKernelEi","__ZN3geo2ar7service19LocalAreaParametersC2EPN6proto25ArenaE","__ZN13google_public8protobuf5Arena8NewBlockEPvPNS1_5BlockEmmm","_ec_precomp_select","__ZN7VRONode27computeAtomicUmbrellaBoundsENSt3__110shared_ptrIS_EE11VROMatrix4f","__ZN8location8bluemoon29BoundedUniformScalarPerturberC2Eddd","__ZN3geo2ar3lib11SensorEvent28set_allocated_magnetic_fieldEPNS0_13Vector3dProtoE","_xnn_define_blockwise_quantized_tensor_value_v2","_ERR_error_string_n","__ZN3geo2ar3lib20DebugPoseResultProtoC1EPN6proto25ArenaERKS2_","__ZNK11VROVector4f3dotERKS_","__ZN3geo2ar7service21T2WarmUpCacheResponse9MergeImplERN6proto211MessageLiteERKS4_","__ZN3geo2ar3lib20CommonClearcutLogger8LogEventEN4logs5proto3geo2ar11GeoArLibLogE","__ZN4absl12log_internal10LogMessage11OstreamViewC2ERNS1_14LogMessageDataE","_u_memrchr_77","__ZN13VROStringUtil8endsWithERKNSt3__112basic_stringIcNS0_11char_traitsIcEENS0_9allocatorIcEEEES8_","__ZN4logs5proto3geo2ar20Config_NetworkConfigD2Ev","__ZN7vraudio11AudioBufferC2Ev","__ZN19VROBodyIKController30calculateSkeletonTorsoDistanceEv","__ZN34VROEquirectangularToCubeRenderPassD1Ev","__ZN8tcmalloc10MallocHook20InvokeDeleteHookSlowERKNS0_10DeleteInfoE","__ZN6proto22io24ConcatenatingInputStream4NextEPPKvPi","__ZN6proto28internal11SerialArena25PeekCleanupListForTestingEv","__ZN4logs5proto3geo2ar20ParticleFilterConfig12InternalSwapEPS3_","__ZN4absl14ascii_internal15AsciiStrToLowerEPcPKcm","__ZN13google_public8protobuf8internal14WireFormatLite9ReadBytesEPNS0_2io16CodedInputStreamEPNSt3__112basic_stringIcNS6_11char_traitsIcEENS6_9allocatorIcEEEE","__ZN18AbstractThreadPoolD0Ev","__ZN3geo2ar3lib20Config_NetworkConfigC1EPN6proto25ArenaERKS2_","__ZN6tflite3ops7builtin28unidirectional_sequence_lstm4InitEP13TfLiteContextPKcm","__ZN4logs5proto3geo2ar31GnssMeasurementsEvent_GnssClockC2EPN6proto25ArenaE","__ZN4absl12log_internal23RawSetLogBufferingLevelENS_17LogSeverityAtMostE","__ZThn8_N9VROIKTestD0Ev","_xnn_setup_batch_matrix_multiply_nc_f16","_cftmdl2","_I422AlphaToARGBRow_C","__ZN15VROPhysicsShapeC2ENS_12VROShapeTypeENSt3__16vectorIfNS1_9allocatorIfEEEE","__ZN4absl12log_internal27LogMessageQuietlyDebugFatalC1EPKci","__ZN4logs5proto3geo2ar42UncertaintyPreserverConfig_PerSignalConfigC2EPN6proto25ArenaE","__ZN6proto28internal14WireFormatLite16WriteDoubleArrayEPKdiPNS_2io17CodedOutputStreamE","__ZNK6google3rpc6Status18_InternalSerializeEPhPN6proto22io19EpsCopyOutputStreamE","__ZN3p2t14AdvancingFront14FindSearchNodeEd","__ZNK14VROLineSegment8toStringEv","__Z27VROShapeUtilComputeTangentsP20VROShapeVertexLayoutmPim","__ZN3geo2ar3lib14HttpPostResultC1EPN6proto25ArenaERKS2_","__ZN4absl19str_format_internal17FormatConvertImplExNS0_24FormatConversionSpecImplEPNS0_14FormatSinkImplE","__ZN6tflite14ParseHardSwishEPKNS_8OperatorEPNS_13ErrorReporterEPNS_20BuiltinDataAllocatorEPPv","__ZThn8_N7vraudio17VrAudioEngineImplD0Ev","__ZN3geo2ar14PlaceIdOptionsC1EPN6proto25ArenaERKS1_","_xnn_define_argmax_pooling_2d","__ZNK4logs5proto3geo2ar24CloudLocalizationOptions12GetClassDataEv","__ZN4logs5proto3geo2ar47SmoothedTransformOptions_SimpleSmoothingOptionsC2EPN6proto25ArenaE","__ZN6tflite12tensor_utils47PortableVectorBatchVectorCwiseProductAccumulateEPKsiS2_iiiPs","__ZN4viro32Node_Skeleton_BoneAttachmentPairD0Ev","_kai_get_n_step_rhs_pack_kxn_qsi8cxp2vlx4sb_qs8cx_f32_i32_sme","__ZN6proto28internal12ExtensionSet9Extension4FreeEv","__ZN4util23MakeStatusFromRpcStatusERKN6google3rpc6StatusEN4absl14SourceLocationE","__ZN6proto26bridge10MessageSet8CopyFromERKS1_","__ZN6tflite3ops7builtin17stablehlo_scatter4EvalEP13TfLiteContextP10TfLiteNode","__ZN7vraudio21ResonanceAudioApiImpl17SetSourceRotationEiffff","__ZN6google3geo2ar2v119QueryFacadesRequest12InternalSwapEPS3_","__ZN4absl18debugging_internal16Utf8ForCodePointC2Ey","__ZN6google3geo2ar2v127BatchQueryElevationsRequestC1EPN6proto25ArenaERKS3_","_CMAC_CTX_new","_CRYPTO_refcount_inc","__ZNK4logs5proto3geo2ar8T2Config12GetClassDataEv","__ZN6tflite3ops7builtin29Register_UNSORTED_SEGMENT_MINEv","__ZN3geo2ar43HorizontalPositionGaussianDistributionProtoC1EPN6proto25ArenaE","__ZN7vraudio35FillAudioBufferWithChannelRemappingEPKPKsmmRKNSt3__16vectorImNS4_9allocatorImEEEEPNS_11AudioBufferE","__ZNK14VROLineSegment15intersectsPlaneE11VROVector3fS0_PS0_","_u_strFindLast_77","__ZN4logs5proto3geo2ar45RealDeadReckonedPoseMixerConfig_UncertaintiesD2Ev","_propagate_rank","__ZNK7VRONode15getParentPortalEv","__ZN3geo2ar7service19LocalAreaParameters9MergeImplERN6proto211MessageLiteERKS4_","__ZN3geo2ar3lib17FacadesClientImplD1Ev","__ZNKR4util13StatusBuildercvN4absl6StatusEEv","__ZNK13VROQuaternionmlERKS_","__ZN13VROByteBuffer4skipEm","__ZN6tflite3ops7builtin9lstm_eval10EvalHybridEPK12TfLiteTensorS5_S5_S5_S5_S5_S5_S5_S5_S5_S5_S5_S5_S5_S5_S5_S5_S5_S5_S5_S5_S5_S5_S5_S5_S5_S5_S5_S5_S5_S5_S5_S5_S5_S5_S5_PK16TfLiteLSTMParamsbbiPS3_S9_S9_S9_S9_S9_S9_S9_S9_S9_S9_S9_S9_S9_S9_S9_S9_S9_iPbbbbbPNS_17CpuBackendContextE","__ZN4absl13base_internal18ThrowStdLogicErrorEPKc","__ZN7vraudio22StereoMixingPannerNodeC1ERKNS_14SystemSettingsE","__ZN7vraudio18AudioStreamManager5StartEv","__ZNK4logs5proto3geo2ar39ClearcutLoggingConfig_FrameRejectConfig12GetClassDataEv","_xnn_define_fully_connected","__ZNK3geo2ar32CarryPoseChangePerturbationProto12GetClassDataEv","_xnn_reshape_batch_matrix_multiply_nc_qd8_f32_qc8w","__ZN18VROParticleEmitter22getSpawnParticleBurstsEv","__ZN6google8protobuf4util6StatusC1Ev","__ZN6tflite3ops7builtin42Register_DEPTHWISE_CONVOLUTION_GENERIC_OPTEv","__ZN7vraudio20PartitionedFftFilterC1EmmPNS_10FftManagerE","__ZN6tflite3ops7builtin18Register_SLICE_REFEv","__ZN6google3geo2ar2v128BatchQueryElevationsResponseD0Ev","_ScaleARGBRowDown2Linear_C","__ZNK8S2CellId10GetBoundSTEv","__ZN12TraceContextaSERKS_","__ZN4logs5proto3geo2ar25ImageFrameLocalizerConfig49set_allocated_quality_frame_priority_queue_configEPNS2_31QualityFramePriorityQueueConfigE","__ZN6tflite21StatefulNnApiDelegate4DataC2EPK5NnApi","__ZN6proto28internal12ExtensionSet13SwapExtensionEPKNS_11MessageLiteEPS1_i","__ZN17VROAudioPlayeriOS11dataIsReadyEv","_opus_multistream_decoder_ctl","__ZNK3geo2ar34CameraIntrinsics_FisheyeDistortion12GetClassDataEv","__ZN4logs5proto3geo2ar12BearingEventC1EPN6proto25ArenaE","__ZN12VROTorusTestC1Ev","__ZN3geo2ar3lib22InertialAnchorReporterC1ENSt3__110unique_ptrINS1_31InertialAnchorAttitudeInterfaceENS3_14default_deleteIS5_EEEE","__ZN4absl10ToTimespecENS_4TimeE","__ZN4logs5proto3geo2ar48WrappedCauchyHeadingUncertaintyModelParametersV19MergeImplERN6proto211MessageLiteERKS5_","__ZN4util19CanonicalErrorSpaceEv","__ZN22VROAVCaptureController4playEv","__ZNK4logs5proto3geo2ar74ClearcutLoggingConfig_PoseStabilityMonitorConfig_PoseJumpLoggingThresholds12GetClassDataEv","__ZN6proto22io20ByteSinkOutputStream15WriteAliasedRawEPKvi","__ZN3geo2ar3lib24SmoothedTransformOptionsD2Ev","__ZN6tflite3ops7builtin17BuiltinOpResolverC1Ev","__ZN9VROPortal31installBackgroundShaderModifierEv","__ZN4logs5proto3geo2ar24LocationOrientationEvent9MergeImplERN6proto211MessageLiteERKS5_","_xnn_setup_copy_nc_x32","__ZN6google3geo2ar2v113LocationProto8CopyFromERKS3_","_create_convolution2d_nhwc_qx8_f16_qc8w","__ZN6tflite5async13AsyncSubgraph19GetBufferAttributesEPK19TfLiteBackendBufferP18TfLiteAttributeMap","__ZN3p2t5Sweep25FillRightConcaveEdgeEventERNS_12SweepContextEPNS_4EdgeERNS_4NodeE","__ZN6proto28internal16StringPieceField8CopyFromEN4absl11string_viewE","__ZN6google8internal7android8location7bluesky7v1beta127GetGridProbabilitiesRequest9MergeImplERN6proto211MessageLiteERKS7_","__ZNK13google_public8protobuf2io26CopyingOutputStreamAdaptor9ByteCountEv","__ZN4absl12log_internal22MakeCheckOpValueStringERNSt3__113basic_ostreamIcNS1_11char_traitsIcEEEEa","__ZN3geo2ar3lib31ObservationRequestFromGnssEventERKN2ar14infrastructure9GnssEventE","__ZN7vraudio21ResonanceAudioApiImpl27FillInterleavedOutputBufferEmmPs","__ZN6proto211ShortFormatERKNS_11MessageLiteE","__ZN6proto211MessageLite26ParseFromArrayWithAliasingEPKvi","__ZN7vraudio13OcclusionNode12AudioProcessERKNS_14ProcessingNode9NodeInputE","_cpuinfo_get_cores","__ZN3geo2ar7service6AnchorD2Ev","_xnn_reshape_space_to_depth_nhwc_x8","__ZN7vraudio22HeadphoneStateListenerC1Ev","__ZN13VROByteBufferC1EPKvmb","__ZNK4logs5proto3geo2ar16CameraIntrinsics12GetClassDataEv","_MaskCpuFlags","_OPENSSL_sk_new","__ZN6tflite3ops7builtin11activations7EluEvalEP13TfLiteContextP10TfLiteNode","_MergeUVRow_16_NEON","__ZN9VROPortalD1Ev","__ZNK10VROFrustum14intersectNoOptERK14VROBoundingBox","__ZNK15VROVisionEngine6getFPSEv","_xnn_should_inline_lhs_packing","_RSA_get0_dmp1","__ZN9VRODriverD0Ev","_P010ToNV12","__ZN4logs5proto3geo2ar13LightEstimateD0Ev","__ZN10VROMorpher18getComputeLocationEv","_AR30ToABGRRow_C","__ZN9BuildData9BuildInfoEv","__ZNK6icu_7713UnicodeString11countChar32Eii","_xnn_define_static_constant_pad","__ZN23VROFixedParticleEmitterD0Ev","__ZN33VROFrustumBoxIntersectionMetadataD2Ev","_EVP_CIPHER_CTX_set_padding","__ZN4logs5proto3geo2ar33ParticleFilterEvent_TrackedAnchorC1EPN6proto25ArenaERKS3_","__ZN6tflite3ops7builtin12while_kernel11Eval_staticEP13TfLiteContextP10TfLiteNode","_xnn_setup_max_pooling2d_nhwc_s8","__ZNK3geo2ar3lib16SunAngleReporter27ComputeYawStandardDeviationEv","__ZN20VROARSessionInertial12resetSessionEbb","__ZN18VROParticleEmitter25updateParticlesToBeKilledEd","_slhdsa_thash_tl","_uprv_round_77","__ZN10CordReader8ReadCordEm","__Z19ReadFlagsFromStringRKNSt3__112basic_stringIcNS_11char_traitsIcEENS_9allocatorIcEEEEPKcb","__ZN4absl5Mutex17IncrementSynchSemEPS0_PNS_13base_internal14PerThreadSynchE","__ZN21VRORenderTargetOpenGL18clearDepthAndColorEv","_EVP_PKEY_CTX_set_dsa_paramgen_q_bits","__ZN7vraudio9ResamplerC2Ev","__ZN11VROVector4fD2Ev","__ZN16VROOneEuroFilter6filterE11VROVector3fdb","__ZN4util32internal_status_macros_ret_check21CheckOpMessageBuilderD1Ev","__ZN6tflite4impl18InterpreterBuilderD1Ev","__ZN3geo2ar7service45T2ResolveAnchorAndLocalizeRequest_CameraImage9ArenaDtorEPv","__ZN8tcmalloc15MallocExtension29NeedsProcessBackgroundActionsEv","__ZN13camera_models19RollingShutterModelC2Ev","_I420ToBGRA","__ZNK14VROARCameraiOS13getIntrinsicsEv","__ZN7vraudio18AudioStreamManager22AddAudioStreamRendererEiNSt3__110unique_ptrINS_19AudioStreamRendererENS1_14default_deleteIS3_EEEE","__ZN18VROBodyTrackerYoloC2Ev","__ZN3geo2ar7service6Anchor9MergeImplERN6proto211MessageLiteERKS4_","_EVP_PKEY_CTX_get_rsa_pss_saltlen","__ZN6tflite4impl11Interpreter11SetProfilerEPNS_8ProfilerE","__ZN3geo2ar3lib49RealDeadReckonedPoseMixerConfig_UncertaintyRatios9MergeImplERN6proto211MessageLiteERKS4_","_u_strFromUTF32WithSub_77","__ZN7VRONode6renderEiRNSt3__110shared_ptrI11VROMaterialEERK16VRORenderContextRNS1_I9VRODriverEE","__Z7convertN4viro40Node_Geometry_Material_Visual_FilterModeE","_xnn_subgraph_optimize","_uprv_pow10_77","__ZN34VROEquirectangularToCubeRenderPass4initENSt3__110shared_ptrI9VRODriverEE","_kai_run_rhs_pack_nxk_qsi4c32p_qsu4c32s1s0","_ARGBShuffleRow_C","__ZNK4logs5proto3geo2ar6Config12GetClassDataEv","_I422ToARGB4444Row_Any_NEON","_MipsCpuCaps","__ZN4absl12log_internal10LogMessage11OstreamView6streamEv","_silk_decode_pitch","_utrace_getFunctions_77","__ZN6Varint15Parse32FallbackEPKcPj","__ZN7vraudio15GetRoomMaterialEm","__ZN4absl14flags_internal15DynValueDeleterC2EPFPvNS0_6FlagOpEPKvS2_S2_E","__ZN4logs5proto3geo2ar9GnssEventD0Ev","__ZN4base16WithCensusHandleC1ERK12CensusHandle","__ZN13google_public8protobuf2io16GzipOutputStreamD1Ev","_pthreadpool_parallelize_6d_tile_2d","__ZNK8S2CellId22GetCommonAncestorLevelES_","__ZN17VROBodyTrackeriOSD2Ev","__ZN6tflite8Subgraph27EnsureTensorsVectorCapacityEv","_ABGRToUVRow_NEON","__ZN3geo2ar33PositionGaussianDistributionProtoC1EPN6proto25ArenaERKS1_","__ZN21VROTypefaceCollection11computeRunsENSt3__112basic_stringIwNS0_11char_traitsIwEENS0_9allocatorIwEEEE","__ZNK8location8bluemoon24CloudLocalizationOptions12GetClassDataEv","_quant_all_bands","_TfLiteSignatureRunnerGetInputName","__ZN4util32internal_status_macros_ret_check22MakeCheckOpValueStringEPNSt3__113basic_ostreamIcNS1_11char_traitsIcEEEEPKc","__ZN2ar5image14ImageBlockDataD1Ev","__ZN4logs5proto3geo2ar16SensorCountEventC2EPN6proto25ArenaE","__ZN6google3geo2ar2v125CheckAvailabilityResponseC1EPN6proto25ArenaERKS3_","__ZN7strings7a2b_binERKNSt3__112basic_stringIcNS0_11char_traitsIcEENS0_9allocatorIcEEEEb","__ZN3geo2ar3lib18SessionStatusQueryC1ENSt3__110shared_ptrINS1_15GeoARHttpClientEEEPN4util5ClockE","__ZN4viro32Node_Skeleton_BoneAttachmentPair9MergeFromERKS0_","_BIO_meth_set_puts","_NV12Scale","__ZN13google_public8protobuf2io16CodedInputStream16ReadVarint32SlowEPj","__ZN17VROShaderModifierD2Ev","__ZN3geo2ar3lib19LocalizationManager6UpdateEb","__ZN3geo2ar3lib19LocalizationManager17MaybeRecordT2PoseEN4absl8DurationENS3_4SpanIKNS1_23LocalizeServiceResponse14PoseEstimationEEERKNS0_11FrameTFrameILNS0_9FrameTypeE1ELSB_4EEE","_RAWToARGB","__ZN8location8bluemoon14inertialanchor48WrappedCauchyHeadingUncertaintyModelParametersV1C1EPN6proto25ArenaE","__ZNK3geo2ar33PositionGaussianDistributionProto18_InternalSerializeEPhPN6proto22io19EpsCopyOutputStreamE","__ZN4logs5proto3geo2ar16CameraIntrinsicsD0Ev","_silk_log2lin","_RSA_get0_dmq1","__ZNK9TimedCall8deadlineEv","__ZN3geo2ar3lib34CovarianceMatrix3ProtoFromLogProtoERKN4logs5proto3geo2ar22CovarianceMatrix3ProtoE","__ZN4util32internal_status_macros_ret_check22MakeCheckOpValueStringEPNSt3__113basic_ostreamIcNS1_11char_traitsIcEEEEDn","__ZN26VROMaterialSubstrateOpenGL8bindViewE11VROMatrix4fS0_S0_S0_11VROVector3f10VROEyeTypeRK16VRORenderContext","__ZNK4viro18Node_Skeleton_Bone24SerializeWithCachedSizesEPN13google_public8protobuf2io17CodedOutputStreamE","__ZN6proto28internal29CodedOutputStreamFieldSkipper9SkipFieldEPNS_2io16CodedInputStreamEj","__ZN3geo2ar7service45T2ResolveAnchorAndLocalizeRequest_CameraImage20clear_camera_gravityEv","__ZN6google3geo2ar2v119RigidTransformProto8CopyFromERKS3_","__ZN6tflite3ops7builtin20Register_MAXIMUM_REFEv","__ZN6tflite12tensor_utils14ApplyLayerNormEPKsS2_PKiiiiiiPs","__ZNK6tflite5async13AsyncSubgraph16IsFullyDelegatedEv","_dsa_check_key","__ZN6tflite9ParseTanhEPKNS_8OperatorEPNS_13ErrorReporterEPNS_20BuiltinDataAllocatorEPPv","__ZNK6google3geo2ar2v119FacadesCellContents18_InternalSerializeEPhPN6proto22io19EpsCopyOutputStreamE","__ZNK4logs5proto3geo2ar33NetworkEventAggregate_DataMetrics12GetClassDataEv","__ZN18VROVideoTextureiOS25getVideoDurationInSecondsEv","__ZN6proto22io18IstreamInputStreamC1EPNSt3__113basic_istreamIcNS2_11char_traitsIcEEEEi","_kai_get_dst_offset_matmul_clamp_f32_qai8dxp4x8_qsi4cxp8x8_8x8x32_neon_i8mm","__ZN6tflite4impl11Interpreter23ModifyGraphWithDelegateEP26TfLiteOpaqueDelegateStruct","__ZN8location8bluemoon26UncertaintyPreserverConfigC2EPN6proto25ArenaE","__ZN3ion4base13StringToInt32ERKNSt3__112basic_stringIcNS1_11char_traitsIcEENS1_9allocatorIcEEEE","__ZNK12TraceContext10TracerMaskEv","__ZN3geo2ar7service6Anchor17clear_create_timeEv","__ZN6proto28internal8TcParser9FastV32P1EPNS_11MessageLiteEPKcPNS0_12ParseContextENS0_11TcFieldDataEPKNS0_16TcParseTableBaseEy","__ZN6tflite3ops7builtin9if_kernel7PrepareEP13TfLiteContextP10TfLiteNode","__ZN3geo2ar3lib20DebugPoseResultProto5ClearEv","__ZN9PerThread10ModuleInit4InitEv","__ZN20VROARSceneControllerD1Ev","__ZN26VROMaterialSubstrateOpenGLD2Ev","__ZNK6google3geo2ar2v111TerrainMesh12ByteSizeLongEv","_RAWToYJRow_NEON","__ZNK11VRORenderer15getLookAtMatrixEv","_BN_CTX_free","_RSA_private_decrypt","__ZN4viro28Node_SkeletalAnimation_FrameC1Ev","__ZN6proto28internal9LazyField4SwapEPS1_PNS_5ArenaES2_S4_","_MergeRGBPlane","__ZN28VROFrameSynchronizerInternal14notifyFrameEndERK16VRORenderContext","__ZN4absl17IsInvalidArgumentERKNS_6StatusE","__ZN20VROARSessionInertialC2E15VROTrackingTypeNSt3__110shared_ptrI9VRODriverEE","_I422ToRGB565","_P210ToARGBMatrix","_uprv_isInvariantString_77","__ZN16VROTextFormatter15getLengthOfWordERKNSt3__112basic_stringIwNS0_11char_traitsIwEENS0_9allocatorIwEEEERNS0_3mapIjNS0_10shared_ptrI8VROGlyphEENS0_4lessIjEENS4_INS0_4pairIKjSC_EEEEEE","__ZNK6google3rpc6Status12GetClassDataEv","__ZN8VROScene16createPortalTreeERK16VRORenderContext","__ZN4absl14flags_internal18FlagStateInterfaceD1Ev","__ZN21VROVertexBufferOpenGLC2ENSt3__110shared_ptrI7VRODataEENS1_I15VRODriverOpenGLEE","__ZN6tflite3ops7builtin4tile7PrepareEP13TfLiteContextP10TfLiteNode","__ZN3geo2ar3lib19FrameSelectorConfig5ClearEv","_rsa_pss_params_get_md","__ZN6google8internal7android8location7bluesky4type15EcefCoordinatesD1Ev","__ZN14VROPhysicsBody14setRestitutionEf","__ZN3p2t8Triangle20SetConstrainedEdgeCWERKNS_5PointEb","__ZN2ar5image13ExtractYPlaneERKNS_5ImageEPS1_","__ZN6google3geo2ar2v119FacadesCellContentsC2EPN6proto25ArenaERKS3_","__ZN6tflite3ops7builtin23Register_REDUCE_MAX_REFEv","__ZN6tflite3ops7builtin22Register_CONV_2D_UINT8Ev","__ZN6icu_7713UnicodeStringaSEOS0_","__ZN25VROGaussianBlurRenderPass11setViewPortE11VROViewportRNSt3__110shared_ptrI9VRODriverEE","__Z19LimitPhysicalMemorydb","__ZN19VROShadowPreprocess7executeENSt3__110shared_ptrI8VROSceneEEP16VRORenderContextNS1_I9VRODriverEE","__ZN3geo2ar3lib12ClientConfigC1EPN6proto25ArenaERKS2_","_RSA_new_method_no_e","__ZN3geo2ar3lib48ClearcutLoggingConfig_PoseStabilityMonitorConfigC2EPN6proto25ArenaERKS2_","__ZN6tflite3ops7builtin14Register_PRELUEv","__ZN6google3geo2ar2v120QueryFacadesResponseD2Ev","_kai_get_rhs_packed_stride_rhs_pack_kxn_x16p2vlx2b_x16_x16_sme","_rdft2dsort","_HalfFloatRow_Any_NEON","__ZN13google_public8protobuf8internal14WireFormatLite18WriteSFixed64ArrayEPKxiPNS0_2io17CodedOutputStreamE","__ZN7vraudio20ClientCallbackStream10InitializeEv","__ZNK3geo2ar13LocationProto12ByteSizeLongEv","_RGBAToUVRow_Any_NEON_I8MM","__ZN14VROTransaction20setAnimationDurationEf","__ZN3geo2ar7service20T2WarmUpCacheRequest9MergeImplERN6proto211MessageLiteERKS4_","__ZNK4viro28Node_SkeletalAnimation_Frame11GetTypeNameEv","__ZNK3geo2ar3lib7ArFrame14GetEcefTDeviceEv","__ZN11VROSoundGVR22setTransformedPositionE11VROVector3f","__ZN6tflite3ops6custom21detection_postprocess19InplaceMergeBoxInfoERNSt3__16vectorINS2_7BoxInfoENS3_9allocatorIS5_EEEEii","__ZNK23btGeneric6DofConstraint8getAngleEi","__ZN17VROOneEuroFilterFD1Ev","_ogg_packet_clear","__ZN6icu_7710CharString6appendEPKciR10UErrorCode","__ZNK6google3geo2ar2v135CloudLocalizationServiceResultProto18_InternalSerializeEPhPN6proto22io19EpsCopyOutputStreamE","__ZN10VROBoneUBOC1ENSt3__110shared_ptrI15VRODriverOpenGLEE","__ZNK6google3geo2ar2v127BatchQueryElevationsRequest12ByteSizeLongEv","__ZN13google_public8protobuf8internal16FunctionClosure0D1Ev","_pack_qs8_qc4w_gemm_goi_w","__ZN4viro20Node_Geometry_SourceC2Ev","__ZN6tflite10ParseEqualEPKNS_8OperatorEPNS_13ErrorReporterEPNS_20BuiltinDataAllocatorEPPv","__ZN3geo2ar35InertialAnchorPoseDistributionProto40clear_heading_uncertainty_model_featuresEv","__ZN4absl14flags_internal16ReportUsageErrorENS_11string_viewEb","_get_fully_connected_op_type","_kai_get_m_step_matmul_clamp_f32_qai8dxp1x4_qsi8cxp4x4_1x4_neon_dotprod","__ZN3geo2ar30StepDetectionPerturbationProtoC2EPN6proto25ArenaERKS1_","_NV21ToARGBRow_SVE2","__ZN3geo2ar22CovarianceMatrix3Proto5ClearEv","__ZN6proto211MessageLite22MergePartialFromStringEN4absl11string_viewE","__ZN3geo2ar3lib21IfmLocalizationFilter17PurgeStaleAnchorsEN4absl8DurationE","_kai_get_rhs_offset_rhs_pack_kxn_x16p2vlx2b_x16_x16_sme","_I444ToARGBRow_SVE2","__ZN2sm6timing10LocalTimerD2Ev","_op_set_dither_enabled","_opus_custom_decoder_ctl","__ZN3geo2ar3lib48LowLightImageProcessingConfig_PixelBinningConfigC2EPN6proto25ArenaERKS2_","__ZN4absl17internal_statusor6Helper26HandleInvalidStatusCtorArgEPNS_6StatusE","_runelen","_ec_point_set_affine_coordinates","__ZN13VROStringUtil9toWStringEdi","__ZNK13VROARFrameiOS19getDepthImageHeightEv","_resampling_factor","_BN_MONT_CTX_new_consttime","__ZN4logs5proto3geo2ar21NetworkEventAggregateC1EPN6proto25ArenaERKS3_","__ZN9BuildData8BuildDirEv","_BCM_rand_bytes_with_additional_data","_BGRAToYRow_Any_NEON","__ZN13VROQuaternion13fromAngleAxisEfRK11VROVector3f","_xnn_run_constant_pad_nd_x32","__ZN7vraudio17OpusStreamDecoderD1Ev","__ZN3geo2ar3lib18SessionStatusQuery13HandleRetriesEv","__ZNK3geo2ar3lib19LocalizationManager28GetGeoReferenceFrameAndStateEv","__ZNK18VROVideoTextureiOS15getSampleBufferEv","__ZN6google8internal7android8location7bluesky4type11DoubleValueC2EPN6proto25ArenaERKS5_","__ZN9superroot9knowledge23SunriseSunsetCalculatorC1Eddd","__ZNK3geo2ar33PositionGaussianDistributionProto12ByteSizeLongEv","_cmemory_cleanup_77","_x25519_sc_reduce","__ZN7vraudio13GainMixerNodeC1ERKNS_15AttenuationTypeERKNS_14SystemSettingsEm","__ZN3geo2ar7service19LocalAreaParametersC2EPN6proto25ArenaERKS2_","__ZN11btRigidBodyC1EfP13btMotionStateP16btCollisionShapeRK9btVector3","__ZN3geo2ar3lib74ClearcutLoggingConfig_PoseStabilityMonitorConfig_PoseJumpLoggingThresholdsD0Ev","__ZN8tcmalloc15MallocExtension24StartAllocationProfilingEv","__ZN13VRONodeCamera17setProjectionTypeE23VROCameraProjectionType","__ZN3geo2ar14PlaceIdOptionsC2EPN6proto25ArenaE","__ZN16VROShaderProgramD2Ev","_DGifGetExtensionNext","__ZN6proto28internal12ExtensionSet14MutableMessageEihRKNS_11MessageLiteEPKNS_15FieldDescriptorE","__ZN3geo2ar3lib19ActualSurfaceAnchorD1Ev","__ZNK3geo2ar3lib22RealSessionEventLogger21GetHeartbeatFrequencyEv","__ZN4viro22protobuf_Nodes_2eproto11TableStruct8ShutdownEv","__ZN8location8bluemoon17FreeParticleStore29DecayFractionParticlesAppliedEd","__ZN6google8internal7android8location7bluesky4type9GnssClockC2EPN6proto25ArenaERKS5_","__ZN3geo2ar25SunAngleDistributionProto28clear_true_sun_direction_enuEv","__ZN4base14DumpStackTraceEiPFvPKcPvES2_","__ZN3geo2ar3lib30HybridSurfaceElevationProvider9QueryImpl6CancelEv","__ZN3geo2ar3lib19FrameSelectorConfigD0Ev","__ZThn88_N11VROSoundGVRD0Ev","__ZN3geo2ar3lib22SetT2EcefTDeviceAtTimeERKNS0_11FrameTFrameILNS0_9FrameTypeE5ELS3_4EEEN4absl8DurationEPNS1_20DebugPoseResultProtoE","_I444AlphaToARGBRow_C","__ZN3geo2ar13Vector3dProtoD1Ev","__ZN6tflite3ops7builtin11arg_min_max12ResizeOutputEP13TfLiteContextPK12TfLiteTensorS7_PS5_","__ZNK4logs5proto3geo2ar12ARCoreConfig12GetClassDataEv","_I210ToARGBRow_Any_NEON","_xnn_qp8_f32_qc4w_gemm_minmax_ukernel_1x8c16s2__aarch64_neondot","__ZN24VRODiffuseIrradianceTest15nextEnvironmentEv","__ZN4logs5proto3geo2ar19RigidTransformProtoC1EPN6proto25ArenaE","_OPENSSL_lh_doall_arg","__ZN3geo2ar2v115terrain_service10ToApiProtoERKNS0_7service30T2BatchQueryElevationsResponseE","__ZN13VROShadowTestD2Ev","_kai_get_mr_matmul_clamp_f32_qai8dxp1vlx8_qsi4cxp4vlx8_1vlx4vl_sme2_mopa","_xnn_create_deconvolution2d_nhwc_qs8_qc8w","__ZN4viro21Node_Geometry_Element27MergePartialFromCodedStreamEPN13google_public8protobuf2io16CodedInputStreamE","__ZN6tflite3ops7builtin11activations9Relu6EvalEP13TfLiteContextP10TfLiteNode","__ZNK6google3geo2ar2v119FacadesCellContents12ByteSizeLongEv","__ZN4logs5proto3geo2ar22CovarianceMatrix3ProtoD0Ev","__ZN7vraudio17VrAudioEngineImpl34SetSoundObjectDistanceRolloffModelEiNS_20DistanceRolloffModelEff","__ZN6tflite8Subgraph12ResizeTensorEP13TfLiteContextP12TfLiteTensorP14TfLiteIntArray","__ZNK6proto28internal12ExtensionSet22GetMessageByteSizeLongEi","__ZN6thread4NoteD2Ev","__ZNK14VROLineSegment8midpointEv","__ZN24VROMaterialShaderBindingC2ENSt3__110shared_ptrI16VROShaderProgramEE29VROLightingShaderCapabilitiesRK11VROMaterial","__ZN4absl13cord_internal12CordRepBtree7RebuildEPS1_","__ZNK8S2CellId5Coder6DecodeER7DecoderRS_R7S2Error","__ZN6proto28internal8TcParser9FastEr1R1EPNS_11MessageLiteEPKcPNS0_12ParseContextENS0_11TcFieldDataEPKNS0_16TcParseTableBaseEy","__ZNK7VRONode18getParticleEmitterEv","__Z9toRadiansf","__ZN6google8protobuf8internal5Mutex6UnlockEv","__ZN7vraudio12GraphManager21UpdateRoomReflectionsEv","__ZN19VROBodyIKController20enableDebugMLViewIOSEv","__ZN4absl12log_internal10LogMessage5FlushEv","__ZN6google3geo2ar2v117FacadesSnapshotIdC1EPN6proto25ArenaERKS3_","__ZN6tflite3ops7builtin23Register_REDUCE_ALL_REFEv","__ZNK6google3geo2ar2v140CloudLocalizationLikelihoodFunctionProto12ByteSizeLongEv","__ZN6tflite4impl15SignatureRunner20SetInputBufferHandleEPKciP14TfLiteDelegateb","__ZN6tflite3ops7builtin14stablehlo_case7PrepareEP13TfLiteContextP10TfLiteNode","__ZN3geo2ar3lib27SurfaceAnchorClearcutLoggerC1ENSt3__110shared_ptrINS1_19GeoARClearcutLoggerEEENS4_IKNS1_5ClockEEE","__ZN4logs5proto3geo2ar22CovarianceMatrix3ProtoC2EPN6proto25ArenaE","_ECDSA_SIG_max_len","__ZN3ruy7CpuInfo6Avx512Ev","__ZN4logs5proto3geo2ar13Vector3dProto5ClearEv","__ZN6proto24util8TimeUtil22DurationToMicrosecondsERKN6google8protobuf8DurationE","_xnn_define_average_pooling_2d","__ZN23btGeneric6DofConstraint18calculateAngleInfoEv","__ZN23btDiscreteDynamicsWorld10addVehicleEP17btActionInterface","__ZN3geo2ar49HorizontalPositionAndYawGaussianDistributionProto12InternalSwapEPS1_","_ec_point_byte_len","__ZN6tflite4impl18InterpreterBuilderC2EPKNS_5ModelERKNS_10OpResolverEPNS_13ErrorReporterEPKNS_18InterpreterOptionsEPKNS_10AllocationE","_RAWToYJRow_Any_NEON","__ZN3geo2ar3lib20LocalizationProvider27GetInertialEnuQDeviceAtTimeEN4absl8DurationE","_xnn_define_softmax","__ZN14VROPhysicsTestC1Ev","__ZN6tflite12tensor_utils18ReductionSumVectorEPKiPiii","__ZN4viro28Node_SkeletalAnimation_FrameC2ERKS0_","__ZN6tflite24PreprocessSoftmaxScalingEddiPiS0_","__ZN4logs5proto3geo2ar25EstimateConfidenceOptionsC2EPN6proto25ArenaERKS3_","_ARGBToUVJ444Row_NEON_I8MM","_kai_get_dst_offset_matmul_clamp_f32_qai8dxp4x4_qsi4c32p4x4_16x4_neon_dotprod","_BCM_aes_decrypt","__ZN7vraudio17LocklessTaskQueue15PopNodeFromListEPNSt3__16atomicIPNS0_4NodeEEE","_create_pack_lh","__ZN6tflite7xnnpack18WeightCacheBuilder5ResetEv","_ScaleARGBRowDownEvenBox_Any_NEON","__ZN10VROHDRTest11changeSceneEv","__ZN3geo2ar3lib51LowLightImageProcessingConfig_GammaCorrectionConfigD0Ev","__ZN4logs5proto3geo2ar30TimedImageFrameLocalizerConfig12InternalSwapEPS3_","__ZNK6google8protobuf3Any12GetClassDataEv","_T_CString_stringToInteger_77","__ZN15VROVisionEngineC1EP7MLModeli17VROCameraPosition21VROCropAndScaleOption","__ZN4absl14flags_internal8FlagImpl9SaveStateEv","__ZN26VROVideoTextureCacheOpenGLD1Ev","_bn_mont_ctx_set_RR_consttime","__ZN3geo2ar8geometry8TriangleC2EPN6proto25ArenaERKS2_","_OPENSSL_sk_shift","__ZN8location8bluemoon22BearingTrackingOptionsC2EPN6proto25ArenaERKS1_","__ZN3geo2ar7service26T2CheckAvailabilityRequestC1EPN6proto25ArenaE","__ZN3geo2ar3lib19FrameSelectorConfigC2EPN6proto25ArenaERKS2_","__ZThn24_N7vraudio14ProcessingNode7ConnectERKNSt3__110shared_ptrINS_13PublisherNodeIPKNS_11AudioBufferEEEEE","__ZN3geo2ar7service30T2BatchQueryElevationsResponse5ClearEv","__ZN4absl19str_format_internal17FormatConvertImplElNS0_24FormatConversionSpecImplEPNS0_14FormatSinkImplE","__ZN3geo2ar7service26T2CheckAvailabilityRequest8CopyFromERKS2_","_BCM_mldsa65_generate_key_external_entropy","__ZN6tflite9profiling12RootProfiler8EndEventEjxx","__ZN13VROByteBuffer10readUInt64Ev","__ZN6tflite3ops7builtin16unsorted_segment8EvalProdEP13TfLiteContextP10TfLiteNode","_xnn_subgraph_fusion","__ZN3ruy7CpuInfoD2Ev","__ZN7vraudio11ChannelViewpLERKS0_","__ZN6tflite8Subgraph33MarkSubgraphAsDelegationSkippableEi","_xnn_delete_operator","__ZN6proto28internal11MicroString14ClearToDefaultERKNS1_14UnownedPayloadEPNS_5ArenaE","__ZN8location8bluemoon37RoadOrientationResultDistributionProdC1ERKNS0_22RoadOrientationOptionsERKN3geo2ar27PoseLikelihoodFunctionProtoENS0_25ParticlePositionConverterERKN5Eigen9TransformIdLi3ELi18ELi0EEE","__ZN3p2t8Triangle17SetDelunayEdgeCCWERKNS_5PointEb","__ZNK6google3geo2ar2v119StartSessionRequest12GetClassDataEv","__ZN3geo2ar7service27T2CheckAvailabilityResponseC2EPN6proto25ArenaE","_xnn_create_depth_to_space_nchw2nhwc_x16","_AYUVToYRow_C","__ZN13VROPoseFilter12filterJointsERKNSt3__16vectorINS1_I20VROInferredBodyJointNS0_9allocatorIS2_EEEENS3_IS5_EEEE","_BN_from_montgomery","__ZN3geo2ar27PoseLikelihoodFunctionProto5ClearEv","__ZN6tflite20DetectArmNeonDotprodEv","__ZNK13VROQuaternion10dotProductERKS_","__ZN6google3geo2ar2v114ElevationQueryC1EPN6proto25ArenaERKS3_","__Z7convertN4viro38Node_Geometry_Material_Visual_WrapModeE","__ZN10VROTextureD0Ev","__ZN3geo2ar3lib16SunAngleReporter13SetEnuQDeviceERKN5Eigen10QuaternionIdLi0EEE","__ZN3geo2ar7service14ElevationQueryC2EPN6proto25ArenaERKS2_","__ZN4base16TraceEntrySourceD1Ev","__ZN15inertial_anchor12measurements38EmpiricalHeadingUncertaintyModelHelper55GetVonMisesKappaFromEmpiricalHUMV1FeaturesAndParametersERK78_location_bluemoon_inertialanchor_EmpiricalHeadingUncertaintyModelParametersV1RK74_location_bluemoon_inertialanchor_EmpiricalHeadingUncertaintyModelFeaturesb","_ARGBToRGB24","__ZN4absl19str_format_internal17LengthModToStringENS_9LengthModE","_create_average_pooling2d_nhwc","__ZNK11VROVector4f3addERKS_PS_","__ZNK4viro18Node_Skeleton_Bone11GetTypeNameEv","__ZN4logs5proto3geo2ar42UncertaintyPreserverConfig_PerSignalConfigD0Ev","__ZN6tflite3ops7builtin8quantize4InitEP13TfLiteContextPKcm","__ZN33VROSkeletalAnimationLayerInternal14buildKeyframesEv","_kai_run_matmul_clamp_f32_f32p2vlx1_f32p2vlx1b_2vlx2vl_sme_mopa","_I444ToRGB24Row_Any_NEON","_OPENSSL_hash32","__ZN13VROByteBuffer19getDataFromPositionEm","__ZN3p2t12SweepContext20CreateAdvancingFrontEv","__ZN20VROARSessionInertial11setViewportE11VROViewport","__ZN3geo2ar3lib28GaussianLocalizationReporter16ResetEventQueuesEv","_xnn_define_depthwise_convolution_2d","__ZN3geo2ar15QuaternionProto5ClearEv","__ZN6tflite16GetTemporarySafeEPK13TfLiteContextPK10TfLiteNodeiPP12TfLiteTensor","___google_cxa_guard_acquire_end","__ZN6tflite8Subgraph20InlineCompositeNodesEv","__ZN6proto28internal12ExtensionSet21RegisterEnumExtensionEPKNS_11MessageLiteEihbbPKj","__ZN6proto22io21ByteSourceInputStream6BackUpEi","__ZN16CProfileIterator11Enter_ChildEi","_kai_get_lhs_offset_lhs_quant_pack_qai8dxp_f32","__ZNK6google3geo2ar2v111TerrainMesh18_InternalSerializeEPhPN6proto22io19EpsCopyOutputStreamE","_RGBAToI420","_InterpolateRow_16To8_C","__ZN13LowPassFilter6filterE11VROVector3fd","__ZN6tflite21StatefulNnApiDelegate4DataC1EPK5NnApi","__ZN22VROARCameraPrerecorded3runEv","__ZN7strings7b2a_hexEPKhPNSt3__112basic_stringIcNS2_11char_traitsIcEENS2_9allocatorIcEEEEl","__ZN7VROText8setWidthEf","__ZNK13VROVectorizer10getContourEm","__ZN6Varint12Append64SlowEPNSt3__112basic_stringIcNS0_11char_traitsIcEENS0_9allocatorIcEEEEy","_FIPS_mode_set","__ZN6icu_7712PatternProps20isSyntaxOrWhiteSpaceEi","__ZN6icu_7711StringPiece4findES0_i","__ZN4logs5proto3geo2ar10ErrorCount5ClearEv","__ZN3geo2ar17EcefTCameraToPoseERKNS0_11FrameTFrameILNS0_9FrameTypeE5ELS2_1EEE","__ZN6tflite17MutableOpResolver9AddCustomEPKcPK18TfLiteRegistrationii","__ZN23VROPortalTreeRenderPass6renderENSt3__110shared_ptrI8VROSceneEES3_R24VRORenderPassInputOutputP16VRORenderContextRNS1_I9VRODriverEE","__ZN3geo2ar3lib45AdaptiveImageFrameLocalizerConfig_PitchConfig9MergeImplERN6proto211MessageLiteERKS4_","__ZN3geo2ar7service14LocalizeResult5ClearEv","_kai_run_rhs_imatmul_pack_kxn_qsi8cxp2vlx4sb_qs8cx_f32_i32_sme","__ZNK8location8bluemoon23GaussianScalarPerturber7PerturbERKdP10RandomBase","__ZNK13google_public8protobuf2io17ArrayOutputStream9ByteCountEv","_EVP_PKEY_set1_DSA","__ZN4absl19str_format_internal17FormatConvertImplEsNS0_24FormatConversionSpecImplEPNS0_14FormatSinkImplE","__ZN4logs5proto3geo2ar44ClearcutLoggingConfig_SessionHeartbeatConfigC1EPN6proto25ArenaERKS3_","__ZN13google_public8protobuf8internal10LogMessagelsERKNSt3__112basic_stringIcNS3_11char_traitsIcEENS3_9allocatorIcEEEE","__ZN7vraudio22HeadphoneStateListenerD1Ev","__ZN4viro13Node_Geometry10SharedDtorEv","__ZNK13google_public8protobuf11MessageLite23SerializePartialToArrayEPvi","__ZN8location8bluemoon26UncertaintyPreserverConfigD0Ev","__ZN4absl4Cord20AppendExternalMemoryENS_11string_viewEPvPFvS1_S2_E","_kai_get_n_step_rhs_pack_nxk_qsi8cxp_qsi8cx_neon","__ZN6google3geo2ar2v16LatLng9MergeImplERN6proto211MessageLiteERKS5_","__ZN4logs5proto3geo2ar28RigidTransformWithConfidence5ClearEv","__ZN6tflite19ParseBatchToSpaceNdEPKNS_8OperatorEPNS_13ErrorReporterEPNS_20BuiltinDataAllocatorEPPv","__ZN6tflite3ops7builtin25Register_REVERSE_SEQUENCEEv","__ZNK4logs5proto3geo2ar33InertialAnchorReInitCallbackEvent12ByteSizeLongEv","__ZN3geo2ar3lib19InertialAnchorFlags12InternalSwapEPS2_","__ZN4viro20Node_Geometry_Source10SharedCtorEv","__ZN12VROTorusTestD0Ev","__ZN7vraudio28FillExternalBufferWithOffsetERKNS_11AudioBufferEmPKPsmmmm","__ZN3geo2ar35CloudLocalizationServiceResultProtoC2EPN6proto25ArenaERKS1_","__ZNK26VROMonocularDepthEstimator24getDepthTextureTransformEv","__ZNK3ruy14PrepackedCache7KeyHashclERKNS0_3KeyE","_ec_scalar_inv0_montgomery","__ZN6google3geo2ar2v120QueryFacadesResponseC2EPN6proto25ArenaE","__ZN4viro21Node_Geometry_Element5ClearEv","__ZN6icu_7713UnicodeString9doReverseEii","_ERR_remove_state","_uprv_copyAscii_77","__ZN4util10MakeStatusEPKNS_10ErrorSpaceEiN4absl11string_viewENS3_14SourceLocationE","__ZN11VROTypeface15computeCoverageEP11FT_FaceRec_","__ZN4absl7CondVar6RemoveEPNS_13base_internal14PerThreadSynchE","__ZN3geo2ar3lib12GnssReporterC2ERKN8location8bluemoon14BlueskyOptionsENSt3__110unique_ptrINS1_21KeplerCallerInterfaceENS8_14default_deleteISA_EEEERKNS8_10shared_ptrIKNS1_5ClockEEE","_kai_run_matmul_clamp_f16_f16p2vlx2_f16p2vlx2_2vlx2vl_sme2_mopa","__ZN10VROARScene22initDeclarativeSessionEv","_RAND_SSLeay","_BN_bin2bn","__Z22VROTimeGetCalendarTimev","__Z9invert4x4PKfPf","__ZNK6google3geo2ar2v16LatLng18_InternalSerializeEPhPN6proto22io19EpsCopyOutputStreamE","__Z18UTF8ToUpperReplaceN4absl11string_viewENS_4SpanIcEEPiS3_S3_","__ZN4absl9ParseTimeENS_11string_viewES0_NS_8TimeZoneEPNS_4TimeEPNSt3__112basic_stringIcNS4_11char_traitsIcEENS4_9allocatorIcEEEE","__ZN3geo2ar7service9Elevation12InternalSwapEPS2_","__ZN3geo2ar3lib62RealDeadReckonedPoseMixerConfig_DeadReckonedPoseEstimateConfigD2Ev","__ZN4logs5proto3geo2ar20ParticleFilterConfigC2EPN6proto25ArenaE","__ZN16VROBodyMesheriOS14loadNumpyArrayEP8NSStringS1_","__ZN7vraudio14MonoPoleFilterC2Ef","__ZNK7vraudio16AudioAssetStream18EndOfStreamReachedEv","_xnn_run_unary_elementwise_nc","_NV21ToRGB24Matrix","_xnn_setup_resize_bilinear2d_nhwc","_ScaleRowDown4Box_C","_CBB_init_fixed","__ZN6icu_7713UnicodeStringC1EPKciNS0_10EInvariantE","_pthreadpool_parallelize_5d_tile_2d","__ZN4logs5proto3geo2ar29LowLightImageProcessingConfigC1EPN6proto25ArenaERKS3_","__ZN14VROTypefaceiOSD1Ev","__ZN6icu_7710CharStringC1EOS0_","_xnn_delete_weights_cache","__ZN20VROPoseFilterLowPass14temporalFilterERKNSt3__16vectorINS1_INS1_I20VROInferredBodyJointNS0_9allocatorIS2_EEEENS3_IS5_EEEENS3_IS7_EEEERKS7_SD_","__ZN26VROMaterialSubstrateOpenGLC2ER11VROMaterialRNSt3__110shared_ptrI15VRODriverOpenGLEE","__ZN6google3geo2ar2v125QueryTerrainMeshesRequestD1Ev","__ZN3geo2ar3lib24TerrainServiceV1ApiProxyC2ENSt3__110shared_ptrINS1_15GeoARHttpClientEEE","__ZN3geo2ar27PoseLikelihoodFunctionProto50set_allocated_horizontal_position_and_yaw_gaussianEPNS0_49HorizontalPositionAndYawGaussianDistributionProtoE","__ZN6google3rpc6Status8CopyFromERKS1_","__ZNK12TraceContext10set_statusERKN4absl6StatusE","_op_mem_stream_create","_EVP_md5","__ZN6proto28internal8TcParser8FastMtS1EPNS_11MessageLiteEPKcPNS0_12ParseContextENS0_11TcFieldDataEPKNS0_16TcParseTableBaseEy","__ZN6tflite3ops7builtin11broadcastto18ResizeOutputTensorEP13TfLiteContextPNS2_18BroadcastToContextE","__ZN6tflite23ParseStablehloCompositeEPKNS_8OperatorEPNS_13ErrorReporterEPNS_20BuiltinDataAllocatorEPPv","_isqrt32","__ZN19VROCameraTextureiOSD1Ev","__ZN13google_public8protobuf2io17CodedOutputStream22GetDirectBufferPointerEPPvPi","__ZN3geo2ar3lib31QualityFramePriorityQueueConfigC2EPN6proto25ArenaERKS2_","__ZN14VROARDepthMeshD2Ev","_xnn_setup_deconvolution2d_nhwc_f32","__ZN6google3geo2ar2v117FacadesSnapshotIdC1EPN6proto25ArenaE","__ZN4viro10Node_Light8CopyFromERKS0_","__ZNK4logs5proto3geo2ar21InertialAnchorOptions12ByteSizeLongEv","__ZNK6proto28internal12ExtensionSet8ByteSizeEv","_ARGBSobelToPlane","__ZN6proto28internal12ExtensionSet11ReleaseLastEi","__ZN7vraudio17OpusStreamDecoder19SeekToFramePositionEy","__ZN4base10scheduling9Downcalls23HierarchicalStopRunningEPNS0_11SchedulableEbi","__ZN11VRORenderer9renderEyeE10VROEyeType11VROMatrix4fS1_11VROViewportNSt3__110shared_ptrI9VRODriverEE","__ZN6google3geo2ar2v114ReferenceFrameC2EPN6proto25ArenaERKS3_","__ZN4logs5proto3geo2ar19ParticleFilterEvent12InternalSwapEPS3_","__ZN4absl13base_internal12GetCachedTIDEv","__ZNK15VROARSessioniOS23isMonocularDepthEnabledEv","__ZN4absl18debugging_internal27RegisterDebugStackTraceHookEPFvPKPviPFvPKcS1_ES1_E","__ZNK13VROARFrameiOS24getAmbientLightIntensityEv","_NV12Copy","__ZN3geo2ar3lib28GaussianLocalizationReporterC1Ev","_I444ToRGB24Row_C","__ZN3geo2ar7service28T2QueryTerrainMeshesResponse8CopyFromERKS2_","__ZN7vraudio16AudioAssetStreamC1ERKNSt3__110shared_ptrINS_10AudioAssetEEEim","__ZN23VROARDeclarativeSessionD1Ev","__ZN4logs5proto3geo2ar43ParticleFilterConfig_RoadOrientationOptionsD1Ev","__ZN15VROVisionEngine20processVisionResultsEP9VNRequestP7NSError","__ZN3geo2ar3lib19ActualSurfaceAnchor24UnresolvableStateHandlerC2EPS2_N4absl6StatusE","_kai_get_rhs_packed_offset_rhs_pack_nxk_qsi4cxps1s0_qsu4cxs1s0_neon","__ZN24VROParticleEventDelegate7onPinchEiNSt3__110shared_ptrI7VRONodeEEfN16VROEventDelegate10PinchStateE","_CMAC_Init","_xnn_reshape_fully_connected_nc_qd8_f16_qc4w","_kai_get_kr_matmul_clamp_f32_qai8dxp1x4_qsi8cxp4x4_1x4_neon_dotprod","__ZN13VRORenderUtil10renderQuadEPjS0_","__ZN13VROByteBuffer11writeToFileEPKcmm","__ZN4viro21Node_Geometry_ElementC2Ev","__ZN7vraudio17AudioAssetManager14GetAssetStatusEi","_xnn_setup_convolution2d_nhwc_qd8_f16_qc8w","_ogg_page_version","__ZN4base7ContextC2ERKS0_N9perftools7tracing10StringImplILb1EEE","__ZNK4logs5proto3geo2ar31FrameRejectReasonEventAggregate18_InternalSerializeEPhPN6proto22io19EpsCopyOutputStreamE","__ZN8octomath10QuaternionC2ERKNS_7Vector3E","__ZN3geo2ar3lib9DebugPoseD2Ev","__ZNK6google8internal7android8location7bluesky7v1beta127GetGridProbabilitiesRequest12ByteSizeLongEv","__ZNK24VROBodyTrackerController28calibrateModelToMLTorsoScaleERKNSt3__13mapI16VROBodyJointTypeN32VROBodyTrackerControllerDelegate16VROJointPositionENS0_4lessIS2_EENS0_9allocatorINS0_4pairIKS2_S4_EEEEEE","_bn_mul_small","__ZN6proto22io21ByteSourceInputStreamD0Ev","__ZN6tflite3ops7builtin25Register_L2_NORMALIZATIONEv","__ZN3ion4base17AllocationManagerD1Ev","__ZN6proto28internal14WireFormatLite12WriteMessageEiRKNS_11MessageLiteEPNS_2io17CodedOutputStreamE","_BGRAToI420","_BGRAToUVRow_C","__ZN4logs5proto3geo2ar39ClearcutLoggingConfig_FrameRejectConfigC2EPN6proto25ArenaERKS3_","__ZN4absl12log_internal20CheckstrcmpfalseImplEPKcS2_S2_","__ZN4logs5proto3geo2ar25ImageFrameLocalizerConfigC1EPN6proto25ArenaERKS3_","__ZN7vraudio14TaskThreadPool15StartThreadPoolEm","_kai_get_n_step_rhs_pack_nxk_qsi4cxp_qs4cxs1s0","__ZN3gvr21AllocationSizeTrackerD0Ev","_SHA224","__ZN15VROVideoSurface11setDelegateENSt3__110shared_ptrI24VROVideoDelegateInternalEE","__ZN6proto22io16CodedInputStream26ReadLittleEndian64FallbackEPy","__ZN6proto22io20ByteSinkOutputStream6BackUpEi","__ZN3geo2ar3lib48ParticleFilterConfig_PositionAndYawFilterOptions28clear_step_detection_optionsEv","_CRYPTO_gcm128_decrypt","__ZN7vraudio9Resampler21SetRateAndNumChannelsEiim","_EVP_aead_aes_128_gcm_tls13","_ARGBToRAW","_HKDF","_kai_get_n_step_matmul_clamp_qai8_qai8p2vlx4_qsi8cxpsb2vlx4_2vlx2vl_sme2_mopa","__ZN13VROByteBuffer8peekByteEv","_TransposeUVWx8_C","__ZN6google8internal7android8location7bluesky4type9GnssClock37clear_drift_uncertainty_nanos_per_secEv","__ZNK6proto28internal12ExtensionSet13IsInitializedEPKNS_11MessageLiteE","__ZNK4logs5proto3geo2ar10ErrorCount18_InternalSerializeEPhPN6proto22io19EpsCopyOutputStreamE","__ZN4logs5proto3geo2ar35LocalizationFilterLikelihoodOptionsC1EPN6proto25ArenaERKS3_","__ZN7octomap10PointcloudD2Ev","__ZN3geo2ar3lib30TimedImageFrameLocalizerConfigD2Ev","__ZN13google_public8protobuf2io16GzipOutputStream5FlushEv","__ZN6tflite8ParseEluEPKNS_8OperatorEPNS_13ErrorReporterEPNS_20BuiltinDataAllocatorEPPv","_xnn_reshape_reduce_nd","__ZN23VROARObjectTrackingTestD1Ev","__ZNK7vraudio16WavStreamDecoder15IsAtEndOfStreamEv","__ZN7vraudio21RoomEffectsOnlyConfigEv","__ZN3geo2ar43HorizontalPositionGaussianDistributionProtoC2EPN6proto25ArenaE","_xnn_create_pack_lh_x8","_ScalePlane","__ZNK3geo2ar3lib26FrameSnapshotForThirdParty20GetLatestUpdateFrameEv","__ZN15VRODriverOpenGLD1Ev","__ZN6tflite3ops7builtin27bidirectional_sequence_lstm4EvalEP13TfLiteContextP10TfLiteNode","_MergeUVRow_C","__ZN15inertial_anchor12measurements38EmpiricalHeadingUncertaintyModelHelper48GetEmpiricalHeadingUncertaintyModelFeaturesProtoEffffbbffb","__ZNK4logs5proto3geo2ar31TerrainAnchorFirstTrackingEvent18_InternalSerializeEPhPN6proto22io19EpsCopyOutputStreamE","_xnn_qp8_f32_qb4w_gemm_minmax_ukernel_4x4c8s2__aarch64_neondot","_ARGBToUVJ444Row_Any_NEON_I8MM","_I420ToI010","__ZN6tflite3ops7builtin9lstm_eval9EvalFloatEPK12TfLiteTensorS5_S5_S5_S5_S5_S5_S5_S5_S5_S5_S5_S5_S5_S5_S5_S5_S5_S5_S5_S5_S5_S5_S5_S5_S5_S5_PK16TfLiteLSTMParamsbbiPS3_S9_S9_S9_bbbbPNS_17CpuBackendContextE","__ZN4viro28Node_KeyframeAnimation_FrameC1ERKS0_","_xnn_setup_pack_lh_x8","__ZNK3geo2ar14PlaceIdOptions12ByteSizeLongEv","__ZN3gvr21AllocationSizeTracker22GetAllocatedBytesCountEv","__ZN6google8protobuf13SetLogHandlerEPFvNS0_8LogLevelEPKciRKNSt3__112basic_stringIcNS4_11char_traitsIcEENS4_9allocatorIcEEEEE","__ZN3ion4base16logging_internal15ThrottledLoggerC2EPKciNS_4port11LogSeverityEf","__ZN18VROParticleEmitter15initParticleUBOENSt3__110shared_ptrI10VROSurfaceEENS1_I9VRODriverEE","__ZN6tflite3ops7builtin11activations16HardSwishPrepareEP13TfLiteContextP10TfLiteNode","__ZN14VROARPlaneTestD1Ev","__ZN6tflite14MMAPAllocationC2EPNS_13ErrorReporterEimm","_I410ToAR30Row_C","_kai_get_nr_matmul_clamp_f32_qai8dxp1x4_qsi4cxp4x4_1x4_neon_dotprod","__ZN6tflite3ops7builtin26bidirectional_sequence_rnn4InitEP13TfLiteContextPKcm","__ZN3geo2ar13LocationProtoC2EPN6proto25ArenaERKS1_","__ZNK18VROGeometryElement14processIndicesENSt3__18functionIFviiEEE","_ARGBUnattenuate","__ZN4absl19str_format_internal11FILERawSink5WriteENS_11string_viewE","__ZN26VROBodyAnimDataRecorderiOS14startRecordingE11VROMatrix4fNSt3__13mapINS1_12basic_stringIcNS1_11char_traitsIcEENS1_9allocatorIcEEEEfNS1_4lessIS8_EENS6_INS1_4pairIKS8_fEEEEEE","__ZN3geo2ar7service17T2LocalizeRequestD2Ev","__ZN3ruy7CpuInfo17EnsureInitializedEv","__ZN7vraudio13WorldPositionC2Ev","__ZNK3geo2ar13Vector3dProto12GetClassDataEv","__ZN4absl12log_internal21detect_specialization13StringifySinkC2ERNSt3__113basic_ostreamIcNS3_11char_traitsIcEEEE","__ZN4absl7uint128C1Ed","__ZN4logs5proto3geo2ar28ParticleTrackingQueueOptions12InternalSwapEPS3_","_u_strHasMoreChar32Than_77","__ZN10VROContour18computeOutsetPointE11VROVector3fS0_S0_","_AES_CMAC","_kai_get_n_step_matmul_clamp_f32_qai8dxp1x4_qsi4cxp4x4_1x4_neon_dotprod","__ZN3geo2ar3lib22BearingTrackingWrapperC2Ef","_EVP_PKEY_CTX_set_rsa_padding","__ZN7vraudio27ComputeReflectionPropertiesERKNS_14RoomPropertiesE","__ZN3geo2ar3lib19LocalizationManager22ProcessLocalizeResultsERKNS1_16CameraModelProtoEN4absl4SpanIKNS1_23LocalizeServiceResponse14PoseEstimationEEERKNS1_14TrackedAnchorsE","__ZN6tflite12tensor_utils18ReductionSumVectorEPKaPiii","__ZN6proto24util8TimeUtil23TimestampToMicrosecondsERKN6google8protobuf9TimestampE","__ZN6google8protobuf11StringPieceC2ES1_ll","_MT2TToP010","__ZN6proto22io19LimitingInputStreamD0Ev","_op_read_float","__ZN10VROTextureC2E14VROTextureType24VROTextureInternalFormat13VROStereoMode","__ZN4viro22Node_KeyframeAnimationC2ERKS0_","__ZNK14VROLineSegment15extendBackwardsEf","_ec_dec_icdf","__ZN18VROVideoTextureiOSD0Ev","__ZN3geo2ar25SunAngleDistributionProto5ClearEv","__ZN3geo2ar3lib13LightEstimateC2EPN6proto25ArenaERKS2_","__ZN17GoogleInitializer20DependencyRegistererC2EN4base8internal10LiteralTagEPKcS5_PS_RKNS_10DependencyE","_kai_get_nr_matmul_clamp_f32_qai8dxp4x4_qsi4c32p4x4_16x4_neon_dotprod","__ZNK8location8bluemoon20PositionAndYawFilter18GetTransformCenterEv","__ZN4logs5proto3geo2ar29LowLightImageProcessingConfigD0Ev","__ZN6tflite3ops7builtin24Register_MATRIX_SET_DIAGEv","__ZN3geo2ar3lib48ParticleFilterConfig_PositionAndYawFilterOptions30clear_bearing_tracking_optionsEv","__ZN10VROMorpher23getMorphShaderAttrIndexEi","__ZN3geo2ar32CarryPoseChangePerturbationProtoD1Ev","__ZN4viro13Node_SkeletonC1ERKS0_","__ZN22VROARConstraintMatcher12updateARNodeENSt3__110shared_ptrI20VROARDeclarativeNodeEE","__ZN6tflite7xnnpack10MMapHandleaSEOS1_","__ZNK15VROARSessioniOS19getCapturedWorldMapEv","_celt_decoder_get_size","_DGifSavedExtensionToGCB","__ZN6google8internal7android8location7bluesky4type15GnssMeasurement19clear_carrier_phaseEv","__ZNK3geo2ar3lib19SessionFacadesModel14HitTestTerrainERKNS0_8FrameRayILNS0_9FrameTypeE9EEERKNS0_11FrameTFrameILS4_9ELS4_5EEE","__ZN3geo2ar7service28T2QueryTerrainMeshesResponseD1Ev","__ZN4absl13base_internal20ThrowStdRuntimeErrorERKNSt3__112basic_stringIcNS1_11char_traitsIcEENS1_9allocatorIcEEEE","_DH_compute_key_padded","__ZN4logs5proto3geo2ar19RigidTransformProtoD1Ev","__ZN3geo2ar7service9Elevation9MergeImplERN6proto211MessageLiteERKS4_","__ZNK3geo2ar25SunAngleDistributionProto18_InternalSerializeEPhPN6proto22io19EpsCopyOutputStreamE","__ZN4absl6StrCatERKNS_8AlphaNumES2_","__ZN21VROTypefaceCollectionC1ENSt3__16vectorINS0_10shared_ptrI11VROTypefaceEENS0_9allocatorIS4_EEEE","__ZN6google8internal7android8location7bluesky4type9Timestamp8CopyFromERKS5_","__ZN6tflite3ops7builtin16Register_DENSIFYEv","__ZN6tflite3ops7builtin10zeros_like7PrepareEP13TfLiteContextP10TfLiteNode","__ZN3geo2ar3lib19ActualSurfaceAnchor22UnresolvedStateHandler5EnterEv","__ZN11VROTestUtil16loadVideoTextureENSt3__110shared_ptrI9VRODriverEENS0_8functionIFvNS1_I15VROVideoTextureEEEEE13VROStereoMode","__ZN4absl25RegisterMutexLockProfilerEPFvPKvxE","__ZN3geo2ar3lib14HttpPostResultC1EPN6proto25ArenaE","_kai_kernel_matmul_clamp_f32_qai8dxp4x8_qsi4c32p4x8_16x4x32_neon_i8mm","_UYVYToARGB","__ZThn24_N7VRONodeD1Ev","__ZN6proto22io19LimitingInputStream6BackUpEi","_ARGBToAB64Row_C","_bitrv216neg","__ZN6thread14AddCancellableEPNS_8ExecutorEN4absl8DurationEP7ClosurePNS_14ExecutorHandleE","__ZN4logs5proto3geo2ar15NightTimeConfig5ClearEv","_CopyPlane","__ZN7vraudio21ResonanceAudioApiImpl15SetHeadRotationEffff","__Z14_InitHashTablev","__ZN6tflite9telemetry23TfLiteTelemetryProfiler20ReportTelemetryEventEPKcNS0_19TelemetryStatusCodeE","__ZN6google8protobuf11StringPiece14ConsumeFromEndES1_","_bn_mont_ctx_init","_CRYPTO_malloc","__ZN6tflite3ops7builtin12Register_SUBEv","__ZN17VROAnimationChain13executeSerialENSt3__110shared_ptrI7VRONodeEEiNS0_8functionIFvvEEE","__ZN4base16WithCensusHandleC2ERK12CensusHandle","_BCM_sha384_final","__ZNK7VRONode21getLastWorldTransformEv","_GifUnionColorMap","__ZN6proto24util8TimeUtil15DurationToHoursERKN6google8protobuf8DurationE","_slhdsa_thash_prfmsg","__ZN3ruy7ContextD1Ev","__ZN21PythonGilHolderLookup8RegisterEPFxvE","__ZN4logs5proto3geo2ar33NetworkEventAggregate_DataMetrics12InternalSwapEPS3_","__ZN3geo2ar3lib42GetHorizontalAccuracyForLocationAtDistanceEddd","__ZNK3geo2ar3lib25ImageFrameLocalizerConfig18_InternalSerializeEPhPN6proto22io19EpsCopyOutputStreamE","__ZN4logs5proto3geo2ar9GnssEvent12InternalSwapEPS3_","_BCM_mldsa44_check_key_fips","_xnn_setup_transpose_nd_x64","__ZN15inertial_anchor9estimator7bearing21BearingTrackingFilterC2Ef","_ec_GFp_simple_group_get_curve","_TfLiteTensorDataFree","__ZN4absl4Cord15FlattenSlowPathEv","__ZN14VROPhysicsBody13setUseGravityEb","__ZN10Matrix3x3d4multEPS_S0_S0_","__ZNK4absl5Mutex16AssertReaderHeldEv","__ZN7S1AngleC2ERK7S2PointS2_","__ZNK6icu_7713UnicodeString17getDynamicClassIDEv","__ZN6proto28internal12ExtensionSet26UnsafeShallowSwapExtensionEPS1_i","__ZN6icu_7711ICU_Utility17parseAsciiIntegerERKNS_13UnicodeStringERi","_BCM_mldsa87_marshal_public_key","__ZN6google3geo2ar2v114ReferenceFrameD1Ev","__ZN3geo2ar3lib43ParticleFilterConfig_RoadOrientationOptionsC2EPN6proto25ArenaE","__ZN7vraudio22StereoMixingPannerNode12AudioProcessERKNS_14ProcessingNode9NodeInputE","__ZN4absl9ConditionC2EPFbPvES1_","__ZN15VROARSessioniOS16setOcclusionModeE16VROOcclusionMode","__ZN6google3geo2ar2v115LocalizeRequest5ClearEv","__ZN4absl16HexStringToBytesENS_11string_viewE","__ZN6tflite3ops7builtin6gather4FreeEP13TfLiteContextPv","__ZN13VROByteBuffer9copyCharsEPci","__ZN13google_public8protobuf8internal14WireFormatLite24WriteMessageMaybeToArrayEiRKNS0_11MessageLiteEPNS0_2io17CodedOutputStreamE","__ZN4logs5proto3geo2ar13PoseJumpEvent5ClearEv","_CRYPTO_library_init","__ZN9VROPortal21setBackgroundRotationE13VROQuaternion","__ZN6thread14WaitStateScopeC1EN4absl13base_internal14ThreadIdentity9WaitStateEb","__Z11ThreadGroupi","__ZN18VROARFrameInertial13getPointCloudEv","__ZN4logs5proto3geo2ar31TerrainAnchorFirstTrackingEventD0Ev","__ZN10Matrix3x3dC2Eddddddddd","__ZN6tflite3ops7builtin6random4FreeEP13TfLiteContextPv","__ZN4util13StatusBuilder3RepD2Ev","_ARGBToUVJ444Row_Any_NEON","__ZN4absl13time_internal4cctz14ParsePosixSpecERKNSt3__112basic_stringIcNS2_11char_traitsIcEENS2_9allocatorIcEEEEPNS1_13PosixTimeZoneE","__ZN4absl8DurationmLEx","__ZN3geo2ar3lib43ParticleFilterConfig_RoadOrientationOptionsC1EPN6proto25ArenaERKS2_","_SHA1_Init","__ZN7Encoder6ResizeEm","_celt_cos_norm","__ZN6thread16SetFlagIfDefaultEPKcS1_","__ZN4absl13time_internal4cctz15fixed_time_zoneERKNSt3__16chrono8durationIxNS2_5ratioILl1ELl1EEEEE","__ZN15inertial_anchor9estimator7bearing19CarryChangeDetector21IsValueAboveThresholdEf","__ZN3geo2ar7service11CellFacades21clear_building_meshesEv","_opus_packet_parse_impl","_rsa_marshal_pss_params","__ZN6tflite12ArenaPlanner20CalculateAllocationsEiiPNSt3__16vectorIiNS1_9allocatorIiEEEE","_xnn_reshape_depth_to_space_nhwc_x16","__ZN13google_public8protobuf8internal14WireFormatLite16WriteDoubleArrayEPKdiPNS0_2io17CodedOutputStreamE","__ZN7vraudio11AudioBufferC1EOS0_","__ZN6tflite4impl18InterpreterBuilder10ParseNodesEPKN11flatbuffers6VectorINS2_6OffsetINS_8OperatorEEEjEEPNS_8SubgraphE","__ZNK7vraudio20ClientCallbackStream14GetNumChannelsEv","_EVP_PKEY_set1_DH","__ZN6tflite8Subgraph23ModifyGraphWithDelegateEP14TfLiteDelegate","__ZNK3geo2ar8geometry4Mesh12ByteSizeLongEv","__ZN6proto22io19LimitingInputStream14CopyToByteSinkEPN7strings8ByteSinkEi","_u_memrchr32_77","__ZN4absl12log_internal21detect_specialization15AbslFormatFlushEPNS1_13StringifySinkENS_11string_viewE","_ECDSA_SIG_set0","__ZN6proto22io16CordOutputStreamC1Em","__ZN6tflite14array_internal18TfLiteArrayDeleterclEP16TfLiteFloatArray","_kai_kernel_rhs_pack_kxn_f32p2vlx1biasf32_f32_f32_sme","__ZN4viro44Node_Geometry_Material_LightingModel_IsValidEi","__ZN4base13AvailableCPUsEv","__ZN6google3geo2ar2v111TerrainMesh19clear_mesh_verticesEv","__ZN11VROMatrix4f6rotateERK13VROQuaternion","__ZN4absl14flags_internal21PrivateHandleAccessor24IsSpecifiedOnCommandLineERKNS_15CommandLineFlagE","_I412ToI444","__ZNK8S2CellId7ToTokenEv","_ARGB4444ToARGBRow_NEON","__ZN4util27InvalidArgumentErrorBuilderEN4absl14SourceLocationE","__ZNK6tflite18FileCopyAllocation4baseEv","__ZN4logs5proto3geo2ar24LocationOrientationEvent12InternalSwapEPS3_","__ZNK3geo2ar3lib29LowLightImageProcessingConfig18_InternalSerializeEPhPN6proto22io19EpsCopyOutputStreamE","_uprv_dlsym_func_77","__ZN4logs5proto3geo2ar43ParticleFilterConfig_RoadOrientationOptions8CopyFromERKS3_","__ZN8MTRandomC2EPKji","_xnn_reshape_convolution2d_nhwc_pqs8_qs8_qc8w","__ZNK3geo2ar9LatLngAlt12ByteSizeLongEv","__ZN3geo2ar3lib6ConfigC1EPN6proto25ArenaE","__ZN3geo2ar3lib26LocalizationClearcutLogger18OnSensorCountEventEN4absl8DurationERKNS3_13flat_hash_mapINS1_10SensorTypeEiNS3_13hash_internal4HashIS6_EENSt3__18equal_toIS6_EENSA_9allocatorINSA_4pairIKS6_iEEEEEE","__ZNK4logs5proto3geo2ar48ClearcutLoggingConfig_PoseStabilityMonitorConfig12ByteSizeLongEv","__ZN4absl9Condition15GuaranteedEqualEPKS0_S2_","__ZN4logs5proto3geo2ar11SensorCountD1Ev","_BN_set_negative","__Z18UTF8ToTitleReplaceN4absl11string_viewENS_4SpanIcEEPiS3_S3_","__ZN9PerThread10ModuleInitC1Ev","__ZN6google3geo2ar2v116LocalizeResponse21clear_reference_frameEv","__ZN6proto28internal30FindExtensionLazyEagerVerifyFnEPKNS_7MessageEiPNS0_12ParseContextE","__ZN4logs5proto3geo2ar15SessionEndEventD2Ev","__ZN6google3geo2ar2v120PoseEstimationResultC2EPN6proto25ArenaERKS3_","_xnn_init_f32_minmax_binary_params","__ZN6tflite3ops6custom30Register_DETECTION_POSTPROCESSEv","__ZN10RandomBase17UnbiasedUniform64Ey","__ZN3ruy3Ctx19mutable_thread_poolEv","__ZN6google3geo2ar2v120FacadesCacheContents9MergeImplERN6proto211MessageLiteERKS5_","__ZN3geo2ar3lib25TrackedAnchorFromLogProtoERKN4logs5proto3geo2ar33ParticleFilterEvent_TrackedAnchorE","__ZN4absl12log_internal22MakeCheckOpValueStringERNSt3__113basic_ostreamIcNS1_11char_traitsIcEEEEc","_u_setAtomicIncDecFunctions_77","_uprv_deleteUObject_77","__ZN7EncoderC1EOS_","__ZN4jpeg9BitWriter5FlushEv","__ZN3geo2ar3lib74ClearcutLoggingConfig_PoseStabilityMonitorConfig_PoseJumpLoggingThresholds5ClearEv","__ZN4absl12log_internal9VLogLevelENS_11string_viewE","__ZNK3geo2ar7service29T2BatchQueryElevationsRequest18_InternalSerializeEPhPN6proto22io19EpsCopyOutputStreamE","_xnn_compute_f16_qx8_convert","_kai_get_dst_size_matmul_clamp_f32_qai8dxp4x4_qsi4c32p4x4_16x4_neon_dotprod","_BCM_mlkem1024_check_fips","__ZN6google3geo2ar2v113CacheContents8CopyFromERKS3_","__ZN2ar5image15ExtractUvPlanesERKNS_5ImageEPS1_S4_","__ZNK4absl13cord_internal12CordRepBtree12GetCharacterEm","__ZN4base16TraceEntrySourceD2Ev","__ZN12VROTorusKnotD2Ev","_BN_num_bits","__ZN6tflite3ops7builtin27stablehlo_rng_bit_generator4EvalEP13TfLiteContextP10TfLiteNode","__ZNK6google8protobuf11StringPiece8containsES1_","__ZN6tflite21StatefulNnApiDelegateC1ENS0_7OptionsE","_Convert8To8Row_C","__ZNK6google3geo2ar2v113LocationProto12GetClassDataEv","__ZN23btDiscreteDynamicsWorld21updateActivationStateEf","__ZN6tflite3ops7builtin5add_n7PrepareEP13TfLiteContextP10TfLiteNode","__ZNK4logs5proto3geo2ar33AdaptiveImageFrameLocalizerConfig12GetClassDataEv","__ZN17VROOneEuroFilterFC1Edddd","_alg_quant","__ZN35btSequentialImpulseConstraintSolverC1Ev","__ZN6proto22io15FileInputStream5CloseEv","_ENGINE_new","_ogg_stream_flush_fill","__ZNK8location8bluemoon22RoadOrientationOptions18_InternalSerializeEPhPN6proto22io19EpsCopyOutputStreamE","__ZN6google8protobuf8internal22DeleteLogSilencerCountEv","__ZN4logs5proto3geo2ar33CameraIntrinsics_RadialDistortion5ClearEv","__ZNK3geo2ar3lib18FrameRejectReasons18_InternalSerializeEPhPN6proto22io19EpsCopyOutputStreamE","__ZNK4viro11Node_Matrix13SetCachedSizeEi","_CBS_is_valid_asn1_integer","__ZN10VROReticle9setRadiusEf","__ZN6UniLib7ToUpperEPKciPciPiS3_","__ZN6google3geo2ar2v125QueryTerrainMeshesRequest12clear_regionEv","__ZNK3ruy3Ctx4implEv","__ZN17VROPoseFilterEuroC2Eff","_stbi_load_16_from_callbacks","__ZN6tflite3ops7builtin11activations11SoftmaxInitEP13TfLiteContextPKcm","__ZN2sm6timing10LocalTimerC1Eb","__ZN6google3geo2ar2v125CheckAvailabilityResponse27clear_local_area_parametersEv","_kai_get_lhs_packed_offset_lhs_quant_pack_qai8dxp_f32","__ZNK3geo2ar3lib47SmoothedTransformOptions_SimpleSmoothingOptions12ByteSizeLongEv","__ZN6google3geo2ar2v113CacheContentsC1EPN6proto25ArenaE","_kai_get_rhs_packed_stride_rhs_pack_nxk_qsi4cxp_qs4cxs1s0","__ZN13google_public8protobuf5Arena15AllocateAlignedEPKSt9type_infom","_I420ToARGBMatrixFilter","__ZN7VRONode17setPositionAtomicE11VROVector3f","_P410ToARGBRow_NEON","__ZN6tflite20DefaultErrorReporterEv","__ZN25VROGaussianBlurRenderPass24calculateSamplesForRangeEffif","__ZN3geo2ar7service19LocalAreaParameters12InternalSwapEPS2_","__ZN4logs5proto3geo2ar21SetCameraTDeviceEventC1EPN6proto25ArenaE","__ZNK8location8bluemoon33RoadOrientationResultDistribution21LikelihoodForParticleERKNS0_23PositionAndYawPoseStateE","__ZNK14VROLineSegment15distanceToPointE11VROVector3f","__ZN6tflite8ParseCosEPKNS_8OperatorEPNS_13ErrorReporterEPNS_20BuiltinDataAllocatorEPPv","__ZN11btRigidBody26predictIntegratedTransformEfR11btTransform","__ZN3geo2ar22ReferenceFrameAndState9MergeImplERN6proto211MessageLiteERKS3_","__ZN6google3geo2ar2v111TerrainMeshD2Ev","__ZN6google3geo2ar2v127PoseLikelihoodFunctionProto31set_allocated_road_distributionEPNS2_40RoadRelativeOrientationDistributionProtoE","__ZN14VROPolygonTestC1Ev","__ZN6proto22io25CopyingInputStreamAdaptor10FreeBufferEv","_kai_get_m_step_matmul_clamp_f32_f32_f32p2vlx1b_1x8vl_sme_mla","__Z20GetRotateEulerMatrixfff","__ZN6google3geo2ar2v128BatchQueryElevationsResponse12InternalSwapEPS3_","_BIO_number_written","__ZN6tflite17CpuBackendContext7CpuInfoD1Ev","_u_strncmpCodePointOrder_77","_OPENSSL_sk_is_sorted","__ZNK4viro11Node_Matrix3NewEPN13google_public8protobuf5ArenaE","__ZN3geo2ar3lib11SessionImplD2Ev","_xnn_create_batch_matrix_multiply_nc_qs8_const_weights","_xnn_pf32_gemm_minmax_ukernel_32x32__neonsme2_get_mr","__ZN4logs5proto3geo2ar27PoseLikelihoodFunctionProto12InternalSwapEPS3_","_kai_get_rhs_packed_offset_matmul_clamp_f32_qai8dxp1x8_qsi8cxp4x8_1x4_neon_dotprod","__ZN14VROLightingUBO18updateLightsVertexEv","_ARGBToRGB24Row_SVE2","_xnn_create_fully_connected_nc_f16","__ZN15VROVideoSurfaceD2Ev","__ZN4absl14flags_internal21PrivateHandleAccessor10IsModifiedERKNS_15CommandLineFlagE","__ZN7vraudio27VrAudioEngineImplDeprecated24PreloadSoundFileCallbackEiNS_13VrAudioEngine11AssetStatusEPv","_cffti1_ps","__ZN13VRONodeCamera21setOrthographicHeightEf","__ZN3geo2ar43PositionProbabilityGridProto_GridPointProtoC2EPN6proto25ArenaERKS1_","_xnn_reshape_convolution2d_nhwc_qdu8_f32_qc8w","__ZN15VROARSessioniOS22setCloudAnchorProviderE22VROCloudAnchorProvider","__ZN3geo2ar13Vector3dProtoC2EPN6proto25ArenaERKS1_","__ZNK14VROLineSegment20directedAngleWithRayE11VROVector3f","__ZN8WatchDogC2Ev","_ERR_peek_error","__Z29VROPlatformCopyResourceToFileNSt3__112basic_stringIcNS_11char_traitsIcEENS_9allocatorIcEEEEPb","__ZN4logs5proto3geo2ar35NetworkEventAggregate_TimingMetricsC1EPN6proto25ArenaERKS3_","__ZN4logs5proto3geo2ar13Vector3dProtoC2EPN6proto25ArenaERKS3_","__ZNK4viro11Node_Camera13IsInitializedEv","__ZN4logs5proto3geo2ar16CameraIntrinsicsC2EPN6proto25ArenaERKS3_","__ZN4absl12log_internal10LogMessage13WithTimestampENS_4TimeE","__ZN11VROPerfTestD0Ev","__ZN13VROByteBuffer13readNumShortsEi","_Android420ToARGBMatrix","_BN_mod_sub","_ENGINE_register_all_complete","_kai_get_nr_matmul_clamp_f32_qai8dxp1x4_qsi8cxp4vlx4_1x4vl_sme2_dot","_compute_band_energies","_silk_InitDecoder","__ZNK6google3geo2ar2v128BatchQueryElevationsResponse18_InternalSerializeEPhPN6proto22io19EpsCopyOutputStreamE","__ZN19VROGlyphAtlasOpenGLD2Ev","_bn_mont_ctx_cleanup","__ZN6icu_7713UnicodeStringC1ERKS0_i","__ZN4absl19substitute_internal3ArgC1ENS_3HexE","__ZN9VROIKTestC2Ev","__ZN20VROTextEventDelegate7onClickEiNSt3__110shared_ptrI7VRONodeEEN16VROEventDelegate10ClickStateENS0_6vectorIfNS0_9allocatorIfEEEE","_xnn_subgraph_check_batch_dims_match","__ZN7vraudio21ResonanceAudioApiImplC1Emmi","__ZNK4absl8ByString4FindENS_11string_viewEm","__ZN23VROFixedParticleEmitter9updateUBOE14VROBoundingBox","_RAND_OpenSSL","_xnn_value_copy","__ZN11VRORendererD1Ev","__ZN27VROPostProcessEffectFactory24createCircularDistortionENSt3__110shared_ptrI9VRODriverEEf","__ZN4logs5proto3geo2ar27PoseLikelihoodFunctionProto26set_allocated_yaw_gaussianEPNS2_28YawGaussianDistributionProtoE","__ZN13VROQuaternion9normalizeEv","__ZN18VROSceneController16onSceneDidAppearEP16VRORenderContextNSt3__110shared_ptrI9VRODriverEE","__ZN6proto22io18IstreamInputStream6BackUpEi","__ZN6tflite7xnnpack23MMapWeightCacheProvider10StartBuildEPKcNS0_14FileDescriptorE","__ZN11VROMaterialD0Ev","__ZN4logs5proto3geo2ar20Config_NetworkConfigC2EPN6proto25ArenaE","__ZN10BasicStats4MeanEN4absl4SpanIKdEE","__ZNK4absl8ByLength4FindENS_11string_viewEm","_AYUVToUVRow_Any_NEON","__ZN3ion4base8DateTimeC1ENSt3__16chrono10time_pointINS3_12system_clockENS3_8durationIxNS2_5ratioILl1ELl1000000EEEEEEEaa","__ZN4logs5proto3geo2ar62RealDeadReckonedPoseMixerConfig_DeadReckonedPoseEstimateConfigD2Ev","__ZN3ruy36Pack8bitColMajorForNeonDotprodA55ishEPKvS1_S1_S1_iiiiiiPaPii","_EVP_CIPHER_nid","__ZN4absl12log_internal21detect_specialization13StringifySinkC1ERNSt3__113basic_ostreamIcNS3_11char_traitsIcEEEE","_utrace_exit_77","__ZN4util11StatusProto17clear_message_setEv","__ZN13google_public8protobuf8internal14WireFormatLite10UInt32SizeERKNS0_13RepeatedFieldIjEE","__ZN18GeoARPlaneProviderD1Ev","__ZN4logs5proto3geo2ar21SetCameraTDeviceEventD0Ev","__ZN3geo2ar3lib30BatchingSurfaceElevationClientC2ENSt3__110shared_ptrINS1_14TerrainServiceEEENS4_INS1_23FacadesSnapshotIdRecordEEENS1_37BatchingSurfaceElevationClientOptionsEPN4util5ClockE","__Z29VROPlatformGetPathForResourceNSt3__112basic_stringIcNS_11char_traitsIcEENS_9allocatorIcEEEES5_","__ZN3geo2ar43HorizontalPositionGaussianDistributionProto9MergeImplERN6proto211MessageLiteERKS3_","_MergeUVPlane_16","__ZN11VROCompress10decompressERKNSt3__112basic_stringIcNS0_11char_traitsIcEENS0_9allocatorIcEEEE","__ZN6tflite25GetRegistrationFromOpCodeEPKNS_12OperatorCodeERKNS_10OpResolverEPNS_13ErrorReporterEPPK18TfLiteRegistration","__ZN4logs5proto3geo2ar24LocalizationRequestEvent9MergeImplERN6proto211MessageLiteERKS5_","__ZNK11VRORenderer22computeUserFieldOfViewEff","_ec_GFp_mont_felem_from_bytes","__Z16_ExistsHashTableP16GifHashTableTypej","_BN_cmp","_BIO_next","_kai_get_rhs_packed_offset_matmul_clamp_f32_qai8dxp1x8_qsi4cxp8x8_1x8x32_neon_dotprod","__ZN14VROTypefaceiOS10loadFTFaceEv","_TransposeWx16_C","__ZN25VROGaussianBlurRenderPassC1Ev","__ZNK3geo2ar7service11CellTerrain12ByteSizeLongEv","__ZN6tflite16ParseBroadcastToEPKNS_8OperatorEPNS_13ErrorReporterEPNS_20BuiltinDataAllocatorEPPv","__ZNK3geo2ar3lib6Config12GetClassDataEv","_create_batch_matrix_multiply_nc","_stbi_set_unpremultiply_on_load","__ZN4logs5proto3geo2ar48RealDeadReckonedPoseMixerConfig_ReinitConditionsD2Ev","__ZN6google8internal7android8location7bluesky7v1beta19GridPoint12InternalSwapEPS5_","__ZN9util_time9FromProtoERKN6google8protobuf8DurationE","_T_CString_integerToString_77","__ZN3geo2ar35InertialAnchorPoseDistributionProtoC1EPN6proto25ArenaE","__ZNK6icu_7713UnicodeString9doIndexOfEiii","__ZN6tflite7xnnpack14FileDescriptor5CloseEv","__ZN6google3geo2ar2v140CloudLocalizationLikelihoodFunctionProtoC2EPN6proto25ArenaERKS3_","__ZN4logs5proto3geo2ar30RealDeadReckonedPoseMixerEvent8CopyFromERKS3_","__ZNK8location8bluemoon22GridLikelihoodAccessor13EnuPGridPointERKN3geo2ar43PositionProbabilityGridProto_GridPointProtoE","_xnn_setup_space_to_depth_nhwc_x32","__ZN23VROPhysicsEventDelegate7onClickEiNSt3__110shared_ptrI7VRONodeEEN16VROEventDelegate10ClickStateENS0_6vectorIfNS0_9allocatorIfEEEE","__ZN3geo2ar14PlaceIdOptions23clear_placement_optionsEv","__ZN6icu_775Edits8IteratorC2EPKtiaa","__ZN3geo2ar7service14LocalizeResultD0Ev","__celt_lpc","_xnn_create_fully_connected_nc_qdu8_f32_qc8w","__ZNK3geo2ar16CameraIntrinsics18_InternalSerializeEPhPN6proto22io19EpsCopyOutputStreamE","__ZN14VROPhysicsBody11applyTorqueE11VROVector3f","_kai_get_n_step_rhs_pack_kxn_f32p2vlx1biasf32_f32_f32_sme","__ZN11VROVector3fC2Efff","__ZN22VROTransformConstraint12getTransformERK7VRONode11VROMatrix4f","__ZN8tcmalloc15MallocExtension18PerCpuCachesActiveEv","__ZN6proto25Arena8AllocateEm","__ZN6tflite3ops7builtin17BuiltinOpResolverC2Ev","__ZN6proto22io16CodedInputStream14EnableAliasingEb","__ZN3geo2ar3lib14HttpPostResult17IsInitializedImplERKN6proto211MessageLiteE","_cpuinfo_get_packages_count","__ZN22VROBillboardConstraint19computeAxisRotationE11VROVector3fS0_S0_","_ABGRToYRow_NEON_DotProd","_I010ToP010","__ZN7octomap10PointcloudC2EPS0_","__ZN13google_public8protobuf8internal14WireFormatLite11WriteUInt64EiyPNS0_2io17CodedOutputStreamE","__ZN3geo2ar43CameraIntrinsics_CityblockFisheyeDistortionD2Ev","__ZNK3geo2ar7service11CellFacades12GetClassDataEv","__ZN3geo2ar3lib45RealDeadReckonedPoseMixerConfig_Uncertainties12InternalSwapEPS2_","_I420Scale_16","__ZN6proto22io25CopyingInputStreamAdaptor4NextEPPKvPi","__ZN3geo2ar3lib31QualityFramePriorityQueueConfigC1EPN6proto25ArenaE","_UYVYToARGBRow_C","__ZN6tflite3ops7builtin22Register_TRANSPOSE_REFEv","__ZNK7vraudio17OpusStreamDecoder14GetDecoderTypeEv","_xnn_setup_fully_connected_nc_pf16","_xnn_setup_convolution2d_nhwc_f16","__ZNK4logs5proto3geo2ar18LightEstimateEvent12GetClassDataEv","__ZNK8location8bluemoon26UncertaintyPreserverConfig18_InternalSerializeEPhPN6proto22io19EpsCopyOutputStreamE","__ZN4logs5proto3geo2ar17SessionStartEventC2EPN6proto25ArenaE","__ZN18VROParticleEmitter18resetEmissionCycleEb","__ZN3geo2ar7service21LocalizeResult_Result31clear_pose_likelihood_functionsEv","_xnn_f32_vexp_ukernel__neon_rational_3_2_div_u4","__ZN3geo2ar27PoseLikelihoodFunctionProto8CopyFromERKS1_","__ZN6tflite3ops7builtin12while_kernel12Eval_dynamicEP13TfLiteContextP10TfLiteNode","__ZN4logs5proto3geo2ar11GeoArLibLog43set_allocated_terrain_anchor_resolved_eventEPNS2_26TerrainAnchorResolvedEventE","_opus_tags_set_binary_suffix","__ZNK4logs5proto3geo2ar21SessionHeartbeatEvent12GetClassDataEv","__ZN3gvr21AllocationSizeTracker18GetAllocationCountEv","__ZN6google8internal7android8location7bluesky7v1beta146GetGridProbabilitiesRequest_ObservationRequest29clear_estimated_position_ecefEv","__ZN6tflite3ops7builtin20Register_REDUCE_PRODEv","_kai_run_rhs_pack_nxk_qsi4cxp_qs4cxs1s0","__ZN6proto28internal8TcParser9FastZ32P2EPNS_11MessageLiteEPKcPNS0_12ParseContextENS0_11TcFieldDataEPKNS0_16TcParseTableBaseEy","__ZN4absl14flags_internal13AbslParseFlagENS_11string_viewEPyPNSt3__112basic_stringIcNS3_11char_traitsIcEENS3_9allocatorIcEEEE","__ZN7vraudio15FillAudioBufferEPKfmmPNS_11AudioBufferE","__ZN6tflite4impl18InterpreterBuilder11AddDelegateEP26TfLiteOpaqueDelegateStruct","__ZN4logs5proto3geo2ar16Project3x3ConfigD0Ev","__ZN6tflite3ops7builtin31Register_NON_MAX_SUPPRESSION_V5Ev","__ZN6tflite17SimpleMemoryArena9ClearPlanEv","__ZNK3geo2ar3lib31RealDeadReckonedPoseMixerConfig18_InternalSerializeEPhPN6proto22io19EpsCopyOutputStreamE","__ZN3geo2ar3lib30TimedImageFrameLocalizerConfigD1Ev","__ZTv0_n24_N3geo2ar3lib19ActualSurfaceAnchorD1Ev","__ZN3geo2ar3lib16CameraModelProtoC2EPN6proto25ArenaE","_ec_affine_to_jacobian","__ZN3geo2ar43CameraIntrinsics_CityblockFisheyeDistortion9MergeImplERN6proto211MessageLiteERKS3_","__ZN6proto28internal26DuplicateIfNonNullInternalEPNS_11MessageLiteE","_kai_get_rhs_packed_size_rhs_pack_kxn_qsi8cxp_qsi8cx_neon","_kai_get_sr_matmul_clamp_f32_qai8dxp1x8_qsi4cxp8x8_1x8x32_neon_dotprod","__ZN3geo2ar3lib48ParticleFilterConfig_PositionAndYawFilterOptions29clear_inertial_anchor_optionsEv","__ZN4logs5proto3geo2ar9GnssEvent26set_allocated_measurementsEPNS2_21GnssMeasurementsEventE","__ZN8tcmalloc15MallocExtension34SetBackgroundProcessActionsEnabledEb","__ZN6google3geo2ar2v111FacadesCellC2EPN6proto25ArenaE","_op_current_link","_OpenSSL_add_all_ciphers","__ZN17VROAnimationChain9terminateEb","__ZN4logs5proto3geo2ar28ClientConfig_RenderingConfigD1Ev","_kai_get_dst_size_matmul_clamp_f32_qai8dxp4x4_qsi8cxp4x4_16x4_neon_dotprod","_EVP_PKEY_set1_RSA","__ZN3ion4base10LogChecker14GetAllMessagesEv","_ERR_clear_system_error","_SHA384","__ZN3geo2ar3lib22EarthAnchorTrackerImplC1ENSt3__110unique_ptrINS1_24SurfaceElevationProviderENS3_14default_deleteIS5_EEEEPKNS1_14EarthTrackableESB_NS4_INS1_26SurfaceAnchorEventListenerENS6_ISC_EEEE","__ZN6tflite3ops7builtin3exp4InitEP13TfLiteContextPKcm","__ZN4logs5proto3geo2ar11GeoArLibLog31set_allocated_session_end_eventEPNS2_15SessionEndEventE","_ec_felem_to_bytes","__ZN4absl19StatusMessageAsCStrERKNS_6StatusE","__ZN3gvr5utils18ToRotationExternalERKN3ion4math8RotationIfEE","__ZN4viro28Node_KeyframeAnimation_Frame5ClearEv","_ERR_lib_symbol_name","__ZN4absl16strings_internal13StringifySink6AppendEmc","__ZN4logs5proto3geo2ar26UncertaintyPreserverConfigC2EPN6proto25ArenaE","__ZNK4logs5proto3geo2ar45AdaptiveImageFrameLocalizerConfig_PitchConfig12ByteSizeLongEv","_op_bitrate_instant","__ZNK7strings15LimitByteSource9AvailableEv","__ZN4absl19str_format_internal16ConvertFloatImplEeRKNS0_24FormatConversionSpecImplEPNS0_14FormatSinkImplE","__ZN6tflite3ops7builtin23Register_REDUCE_ALL_OPTEv","__ZN4logs5proto3geo2ar22CovarianceMatrix3ProtoC1EPN6proto25ArenaERKS3_","__ZN13google_public8protobuf5Arena11AddListNodeEPvPFvS2_E","__ZNK3geo2ar32BearingTrackingPerturbationProto12GetClassDataEv","__ZN6tflite14ParseVarHandleEPKNS_8OperatorEPNS_13ErrorReporterEPNS_20BuiltinDataAllocatorEPPv","__ZN6google3geo2ar2v147BuildingLevels_Level_LevelChangePoint_Type_NameENS2_42BuildingLevels_Level_LevelChangePoint_TypeE","__ZNK19VROCameraTextureiOS16getHorizontalFOVEv","_ARGBToABGR","__ZN4logs5proto3geo2ar45CameraIntrinsics_CityblockFisheyeV2DistortionD2Ev","__ZNK4viro4Node13SetCachedSizeEi","__ZN3geo2ar3lib24HeadingFromMotionOptions9MergeImplERN6proto211MessageLiteERKS4_","__ZN6tflite7xnnpack23MMapWeightCacheProvider4LoadEv","__ZThn24_N24VROObjectRecognitionTest14onObjectsFoundERKNSt3__13mapINS0_12basic_stringIcNS0_11char_traitsIcEENS0_9allocatorIcEEEENS0_6vectorI19VRORecognizedObjectNS5_IS9_EEEENS0_4lessIS7_EENS5_INS0_4pairIKS7_SB_EEEEEE","__ZN3geo2ar40CloudLocalizationLikelihoodFunctionProto9MergeImplERN6proto211MessageLiteERKS3_","__ZNK3geo2ar3lib24DeadReckonedPoseEstimate22GetDevicePoseTransformERKNS1_14TrackedAnchorsE","_gvr_audio_resume_sound","__ZN7vraudio14TaskThreadPool13IsPoolRunningEv","__ZN6proto28internal8TcParser8FastUcR2EPNS_11MessageLiteEPKcPNS0_12ParseContextENS0_11TcFieldDataEPKNS0_16TcParseTableBaseEy","_ARGBToUV444Row_NEON","__ZN4base16WithCensusHandleC1EO12CensusHandle","__ZNK4viro32Node_Skeleton_BoneAttachmentPair3NewEPN13google_public8protobuf5ArenaE","__ZN6tflite13ParseLogisticEPKNS_8OperatorEPNS_13ErrorReporterEPNS_20BuiltinDataAllocatorEPPv","__ZN9VRODriverC2Ev","__ZN17VROAudioPlayeriOS22updatePlayerPropertiesEv","__ZN3geo2ar3lib18SessionStatusQuery13HandleTimeoutEv","__ZN3geo2ar7service18T2LocalizeResponse12InternalSwapEPS2_","__ZN6tflite3ops7builtin11activations12Relu0to1EvalEP13TfLiteContextP10TfLiteNode","__ZN3geo2ar7service27T2QueryTerrainMeshesRequest17clear_snapshot_idEv","__ZN22VROKnuthPlassFormatterC2ERNSt3__16vectorINS0_10shared_ptrI6KPNodeEENS0_9allocatorIS4_EEEERNS1_IfNS5_IfEEEEf","_MergeRGBRow_C","_BlendPlaneRow_C","__ZN6tflite3ops7builtin24Register_MUL_GENERIC_OPTEv","__ZN4absl13base_internal18ThrowStdLogicErrorERKNSt3__112basic_stringIcNS1_11char_traitsIcEENS1_9allocatorIcEEEE","__ZN7strings20GrowingArrayByteSink11ShrinkToFitEv","__ZN19VROGlyphAtlasOpenGLC2Eb","__ZNK3geo2ar3lib48ParticleFilterConfig_PositionAndYawFilterOptions18_InternalSerializeEPhPN6proto22io19EpsCopyOutputStreamE","_xnn_run_operator","_TfLiteTensorQuantizationParams","__ZN8location8bluemoon14inertialanchor40EmpiricalHeadingUncertaintyModelFeaturesC2EPN6proto25ArenaERKS2_","__ZN6proto211MessageLite25OnDemandRegisterArenaDtorEPNS_5ArenaE","_opus_packet_get_samples_per_frame","__ZNK7vraudio9WavReader15GetSampleRateHzEv","__ZN4logs5proto3geo2ar13Vector3dProtoD2Ev","__ZN4logs5proto3geo2ar20StepDetectionOptionsD2Ev","__ZN4util17ErrorSpacePayloadC1EPN6proto25ArenaE","__ZN7vraudio16AudioAssetStream27AppendDecodedBufferToMemoryERKNS_11AudioBufferE","__ZN4absl13cord_internal12CordRepBtree7NewLeafILNS1_8EdgeTypeE1EEEPS1_NS_11string_viewEm","_BN_enhanced_miller_rabin_primality_test","__ZN13google_public8protobuf2io19ZeroCopyInputStreamD1Ev","__ZN8VROPlane9normalizeEv","__ZN3geo2ar3lib15NightTimeConfigD0Ev","_EVP_PKEY_paramgen","__ZN3geo2ar8geometry5PointD2Ev","_ERR_load_ERR_strings","_xnn_reshape_resize_bilinear2d_nhwc","_xnn_create_depth_to_space_nhwc_x8","_uhash_hashUnicodeString_77","__ZN4base15SavedStackTrace13CreateCurrentEi","__ZN26VROGeometrySubstrateOpenGL9createVAOEv","__ZN3geo2ar3lib22GetPoseConfidenceLevelEdNSt3__18optionalIdEES4_","__ZN6proto211MessageLite35ParseFromZeroCopyStreamWithAliasingEPNS_2io19ZeroCopyInputStreamE","__ZN6google3geo2ar2v111FacadesCell17IsInitializedImplERKN6proto211MessageLiteE","__ZN6tflite14ParseZerosLikeEPKNS_8OperatorEPNS_13ErrorReporterEPNS_20BuiltinDataAllocatorEPPv","__ZNK7vraudio38AssociatedLegendrePolynomialsGenerator8GenerateEf","_BCM_mldsa87_verify_internal","__ZN3geo2ar7service21T2QueryFacadesRequestD0Ev","__ZN6tflite7xnnpack23MMapWeightCacheProvider7ReleaseEv","__ZN8Vector3d9normalizeEv","__ZN4util20DataLossErrorBuilderEN4absl14SourceLocationE","__ZN6tflite7xnnpack10MMapHandle5UnMapEv","__ZN6google8internal7android8location7bluesky4type15GnssMeasurement9MergeImplERN6proto211MessageLiteERKS7_","__ZN7vraudio17VrAudioEngineImpl14DestroyAssetIdEi","__ZNK3geo2ar7service29T2BatchQueryElevationsRequest12ByteSizeLongEv","_I420ToUYVY","__ZN4base7ContextC2EOS0_","__ZN6tflite3ops7builtin15sparse_to_dense17ResizeOutputShapeEP13TfLiteContextPK12TfLiteTensorPS5_","__ZNK6tflite14MMAPAllocation4baseEv","__ZN3geo2ar7service33T2ResolveAnchorAndLocalizeRequest22clear_localize_optionsEv","_I420Scale_12","__ZN3geo2ar3lib25ExponentialBackoffRetrierD1Ev","__ZNK4absl13time_internal4cctz12TimeZoneLibC9BreakTimeERKNSt3__16chrono10time_pointINS4_12system_clockENS4_8durationIxNS3_5ratioILl1ELl1EEEEEEE","__ZN6icu_7710Appendable21reserveAppendCapacityEi","__ZN3geo2ar3lib16CameraModelProto5ClearEv","_BCM_mldsa87_sign","_ec_GFp_simple_invert","__ZNK4logs5proto3geo2ar22RoadOrientationOptions12ByteSizeLongEv","_opus_tags_add_comment","__ZN9superroot9knowledge9astronomy27GeometricMeanLongitudeOfSunEd","__ZN6proto28internal8TcParser7FastBR2EPNS_11MessageLiteEPKcPNS0_12ParseContextENS0_11TcFieldDataEPKNS0_16TcParseTableBaseEy","__ZN4absl13cord_internal12CordRepBtree7IsValidEPKS1_b","_stbi_zlib_decode_malloc_guesssize_headerflag","__ZN4logs5proto3geo2ar9DevConfig12InternalSwapEPS3_","__Z20SimpleJpegEncodeBGRAPKhiiiPPhiib","__ZN7vraudio14CircularBuffer12InsertBufferERKNS_11ChannelViewE","_RAWToRGB24Row_NEON","__ZN17VROFrameSchedulerD0Ev","__ZN3geo2ar13LocationProto5ClearEv","__ZN6google3geo2ar2v117GeodeticPosePriorD0Ev","__ZNK4viro20Node_Geometry_Source24SerializeWithCachedSizesEPN13google_public8protobuf2io17CodedOutputStreamE","__ZN14OrientationEKF51accelerationObservationFunctionForNumericalJacobianEP10Matrix3x3dP8Vector3d","__ZN6google3geo2ar2v119FacadesCellContents9MergeImplERN6proto211MessageLiteERKS5_","__ZN3ruy7CpuInfo5Sse42Ev","_ec_felem_one","__ZN6google3geo2ar2v119StartSessionRequest8CopyFromERKS3_","__ZN3geo2ar7service49T2ResolveAnchorAndLocalizeResponse_ResolvedAnchorC2EPN6proto25ArenaE","__ZN10VROConvert10toMatrix4fE13simd_float4x4","__ZNK14VROLineSegment6rotateEf","_ustr_hashUCharsN_77","__ZN3p2tlsERNSt3__113basic_ostreamIcNS0_11char_traitsIcEEEERKNS_5PointE","__ZN8VROLight29setAttenuationFalloffExponentEf","__ZN6tflite17CpuBackendContext16RuyHasAvxOrAboveEv","__ZN6google8internal7android8location7bluesky4type14LlaCoordinates12InternalSwapEPS5_","__ZN9VROPortal16renderBackgroundERK16VRORenderContextRNSt3__110shared_ptrI9VRODriverEE","__Z27VirtualProcessSizeForExportv","_ucln_lib_cleanup_77","__ZN6tflite12RuntimeShapeD2Ev","__ZNK3geo2ar3lib24SmoothedTransformOptions12GetClassDataEv","_OPENSSL_sk_sort","__ZN10VROBoneUBOD0Ev","__ZNK3geo2ar3lib20LocalizationProvider13GetStepCountsEv","__ZN6google3geo2ar2v114CircularRegionC1EPN6proto25ArenaE","_EC_KEY_oct2priv","__ZN6tflite8Subgraph20GetInputTensorsCountEv","__ZNK10VROFrustum9intersectERK14VROBoundingBoxP33VROFrustumBoxIntersectionMetadata","__ZNK3geo2ar4Pose12GetClassDataEv","_CRYPTO_pre_sandbox_init","__ZN7vraudio20ConvertPlanarSamplesEmPKfPs","__ZN6tflite4impl11Interpreter23ReportTelemetrySettingsEPKc","__ZN10VROMorpher21convertVecToGeoSourceERNSt3__16vectorI11VROVector4fNS0_9allocatorIS2_EEEE25VROGeometrySourceSemantic","__ZN4absl13time_internal4cctz14ZoneInfoSourceD1Ev","__ZN3p2t8Triangle16SetDelunayEdgeCWERKNS_5PointEb","__ZN3geo2ar32BearingTrackingPerturbationProtoD0Ev","__ZN6tflite5async20AsyncSignatureRunner13SetAttributesEiPK18TfLiteAttributeMap","__ZNK3geo2ar7service6Anchor12GetClassDataEv","__ZNK3geo2ar3lib12ARCoreConfig12ByteSizeLongEv","_kai_get_sr_matmul_clamp_f32_qai8dxp4x4_qsi4c32p4x4_16x4_neon_dotprod","__ZN8WatchDogC1Ev","__ZN8geostore14FeatureIdProtoC2EPN6proto25ArenaERKS0_","_EC_GROUP_get_curve_GFp","__ZN8location8bluemoon14BlueskyOptions12InternalSwapEPS1_","__ZN11VROTextTest9scaleTextEf","_BCM_mldsa87_marshal_private_key","__ZN4logs5proto3geo2ar24HeadingFromMotionOptionsD0Ev","__ZN6google8internal7android8location7bluesky4type9TimestampC2EPN6proto25ArenaERKS5_","__ZNK6icu_7713UnicodeString9getCharAtEi","__ZN6google3geo2ar2v16LatLngD2Ev","__ZN3geo2ar7service14LocalizeResultC1EPN6proto25ArenaERKS2_","__ZN6proto28internal8TcParser9FastV32R1EPNS_11MessageLiteEPKcPNS0_12ParseContextENS0_11TcFieldDataEPKNS0_16TcParseTableBaseEy","__ZN6tflite7xnnpack23MMapWeightCacheProvider14LookUpOrInsertEPK29xnn_weights_cache_look_up_keyPvm","_i2d_ASN1_OBJECT","__ZN4base5GetSPEPv","__ZN3geo2ar7service27T2CheckAvailabilityResponseD2Ev","__ZNK3geo2ar7service19LocalAreaParameters12ByteSizeLongEv","__ZN27VROPostProcessEffectFactory19setGaussianBlurPassENSt3__110shared_ptrI25VROGaussianBlurRenderPassEE","__ZN8location8bluemoon14inertialanchor40EmpiricalHeadingUncertaintyModelFeaturesD0Ev","__ZN6proto28internal18EpsCopyInputStream10VerifyUTF8EPKcm","_BN_mod_sqr","_EVP_PKEY_get0_DSA","__ZN8tcmalloc15MallocExtension25GetEstimatedAllocatedSizeEm12__hot_cold_t","__ZN4absl16strings_internal13OStringStream9Streambuf6xsputnEPKcl","__ZN3geo2ar3lib22BearingEventToLogProtoERKNS1_8LocationE","_SplitUVRow_16_NEON","__ZN8octomath7Vector34readERNSt3__113basic_istreamIcNS1_11char_traitsIcEEEE","__ZNK4absl11string_view4findEcm","__ZN4logs5proto3geo2ar45AdaptiveImageFrameLocalizerConfig_PitchConfigD2Ev","__ZN3geo2ar3lib28ClientConfig_RenderingConfig8CopyFromERKS2_","__ZN6tflite12tensor_utils23MeanStddevNormalizationEPKfPfii","__ZN6tflite3ops7builtin3pad12GetPadParamsEP13TfLiteContextRKNS2_10PadContextE","__ZN20VROInputControllerAR15onScreenTouchUpE11VROVector3f","__ZN4logs5proto3geo2ar20StepDetectionOptionsC1EPN6proto25ArenaE","__ZNK4logs5proto3geo2ar51LowLightImageProcessingConfig_GammaCorrectionConfig12ByteSizeLongEv","__ZN3geo2ar3lib16FacadesModelImpl18ApplyFacadesUpdateERK8S2LatLngRKNS1_20QueryFacadesResponseE","__ZN12TraceContext24RemoveTraceEventListenerEN4base13ContextAccessEPN9perftools7tracing18TraceEventListenerE","_EVP_aead_aes_128_gcm_tls12","__ZN6proto26bridge10MessageSetC2EPNS_5ArenaE","__ZNK8S2CellId16GetEdgeNeighborsEPS_","__ZN4logs5proto3geo2ar49RealDeadReckonedPoseMixerConfig_UncertaintyRatiosD0Ev","__ZN4viro11Node_Camera21CheckTypeAndMergeFromERKN13google_public8protobuf11MessageLiteE","__ZN4absl6Status25MakeNonOkStatusWithOkCodeENS_11string_viewE","__ZN4logs5proto3geo2ar21InertialAnchorOptionsC1EPN6proto25ArenaERKS3_","__ZN4logs5proto3geo2ar8T2Config8CopyFromERKS3_","__ZN7VRONode20removeAllConstraintsEv","__ZNK7redwood13FrameSelector14ShouldAddFrameERKN16geometry_toolbox19TypedTransformationIdEEN4absl8DurationES5_S7_","_xnn_setup_convolution2d_nhwc_qdu8_f16_qc8w","__ZNK4absl13time_internal4cctz9time_zone14effective_implEv","__ZN2sm6timing5Timer5StartEv","__ZN4logs5proto3geo2ar33CameraIntrinsics_RadialDistortionD2Ev","__ZN16VROShaderProgram5evictEv","__ZNK7vraudio17OpusStreamDecoder15GetSampleRateHzEv","__ZNK11VRORenderer19getFarClippingPlaneEv","_ec_dec_uint","__ZN14VROHeadTracker12stopTrackingEv","__ZN6icu_7710CharString8copyFromENS_11StringPieceER10UErrorCode","__ZN7vraudio9Resampler18GenerateSincFilterEffmPNS_11ChannelViewE","__ZN6tflite3ops7builtin6rfft2d19PrepareOutputBufferEPNSt3__17complexIfEEiiPPd","__ZN6tflite12tensor_utils43PortableMatrixBatchVectorMultiplyAccumulateEPKaPKiS2_iiiiiiPiPsPNS_17CpuBackendContextE","__ZN3geo2ar3lib23AnchorProviderWithQueue17GetTrackedAnchorsEN4absl8DurationE","__ZN6google8protobuf4util6StatusC1ENS1_5error4CodeENS0_11StringPieceE","__ZN4logs5proto3geo2ar6Config42clear_real_dead_reckoned_pose_mixer_configEv","_EVP_MD_CTX_size","_EVP_PKEY_CTX_set_rsa_pss_saltlen","__ZN4logs5proto3geo2ar48RealDeadReckonedPoseMixerConfig_ReinitConditions8CopyFromERKS3_","__ZN6google3geo2ar2v111TerrainMesh9MergeImplERN6proto211MessageLiteERKS5_","_RSA_get0_factors","__ZN3geo2ar7service27T2CheckAvailabilityResponseD1Ev","__ZN3geo2ar3lib23AnchorProviderWithQueueC2Ev","__ZN6google8protobuf3Any9ArenaDtorEPv","__ZN15VROARSessioniOS26getCameraBackgroundTextureEv","__ZN3geo2ar3lib18SessionStatusQueryD1Ev","__ZN4logs5proto3geo2ar31QualityFramePriorityQueueConfigC2EPN6proto25ArenaE","__ZN14VROPhysicsBodyD1Ev","__ZN4logs5proto3geo2ar9GnssEvent11clear_eventEv","_xnn_create_convolution2d_nchw_f16","__ZN6icu_7713UnicodeString6addRefEv","__Z20getPointCloudTexturev","__ZN6tflite17MutableOpResolver10AddBuiltinENS_15BuiltinOperatorEPK18TfLiteRegistrationi","_B64_encode","__ZN11VROSoundGVR11setPositionE11VROVector3f","__ZN16VROChoreographerC2E24VRORendererConfigurationNSt3__110shared_ptrI9VRODriverEE","_BN_CTX_start","__ZN6tflite12tensor_utils16NeonIsZeroVectorEPKai","__ZN3geo2ar43PositionProbabilityGridProto_GridPointProtoC1EPN6proto25ArenaERKS1_","__ZN3geo2ar3lib21ClearcutLoggingConfigC1EPN6proto25ArenaERKS2_","__ZN14VROARAnchoriOSC2EP8ARAnchor","_ScaleRowUp2_Bilinear_16_Any_NEON","__ZN6tflite3ops7builtin19non_max_suppression27ResetUnusedElementsToZeroesEiiPiPf","_I420ToABGR","__ZN6tflite3ops7builtin9if_kernel11Eval_staticEP13TfLiteContextP10TfLiteNodePNS_8SubgraphE","__ZN15inertial_anchor8platform10LogMessageENS0_8LogLevelEPKcS3_i","__ZN3geo2ar3lib26FrameSnapshotForThirdPartyC2EPKNS1_20SessionStatusMonitorE","__ZN3geo2ar7service17T2LocalizeRequestC1EPN6proto25ArenaE","__ZNK4viro18Node_Geometry_Skin13SetCachedSizeEi","__ZN13google_public8protobuf2io16CodedInputStream28BackUpInputToCurrentPositionEv","__ZN4absl14flags_internal8FlagImpl9ParseFromENS_11string_viewENS0_15FlagSettingModeENS0_11ValueSourceERNSt3__112basic_stringIcNS5_11char_traitsIcEENS5_9allocatorIcEEEE","__ZN10VROReticleD2Ev","__ZN3geo2ar3lib44ClearcutLoggingConfig_SessionHeartbeatConfigC2EPN6proto25ArenaE","__ZNK3geo2ar43HorizontalPositionGaussianDistributionProto12GetClassDataEv","_bn_mod_sub_consttime","__ZN6tflite3ops7builtin16call_once_kernel7PrepareEP13TfLiteContextP10TfLiteNode","__ZN3geo2ar3lib39ClearcutLoggingConfig_FrameRejectConfig12InternalSwapEPS2_","__ZN4logs5proto3geo2ar13LightEstimateC2EPN6proto25ArenaERKS3_","__ZN7vraudio27VrAudioEngineImplDeprecated25PreloadSoundFileForStreamERKNSt3__112basic_stringIcNS1_11char_traitsIcEENS1_9allocatorIcEEEENS_13VrAudioEngine8LoadTypeERKNS1_8functionIFvbEEE","__ZN4logs5proto3geo2ar22CarryPoseChangeOptionsD2Ev","__ZN7vraudio26ComputeNearFieldEffectGainERKNS_13WorldPositionES2_","__ZNK4viro21Node_Geometry_Element3NewEPN13google_public8protobuf5ArenaE","__ZN3ruy14PrepackedCache8EjectOneEv","_ogg_stream_pageout","__ZN9VROPortal19setBackgroundSphereENSt3__110shared_ptrI10VROTextureEE","_xnn_create_convolution2d_nhwc_f32","__ZN4logs5proto3geo2ar11WifiOptionsD2Ev","__ZNK17VRODualQuaternionmlERKS_","__ZN27VROLayeredSkeletalAnimation10blendFrameEi","__ZN4logs5proto3geo2ar15LocalizeOptionsD2Ev","_P010ToARGBMatrixFilter","__ZN4logs5proto3geo2ar11GeoArLibLogC1EPN6proto25ArenaERKS3_","_RAWToRGB24Row_Any_NEON","__ZN11RunInThread8InstanceEv","__ZN10VROReticle17stopFuseAnimationEv","__ZNK11VROVector3f3addES_","_rsa_default_private_transform","_opus_tags_copy","_BN_mod_exp","__ZNK3ion4base8DateTime18IsEqualByComponentERKS1_","__ZN3geo2ar3lib24CloudLocalizationAligner21AddLocalizationResultERKN8location8bluemoon25Transform3dWithConfidenceERKNS1_14TrackedAnchorsE","_ABGRToUVRow_C","__Z23VROMathNormalizeAnglePIf","_ec_GFp_mont_mul_precomp","__ZN3geo2ar3lib51LowLightImageProcessingConfig_GammaCorrectionConfig12InternalSwapEPS2_","__ZN4absl13time_internal4cctz12TimeZoneLibCC2ERKNSt3__112basic_stringIcNS3_11char_traitsIcEENS3_9allocatorIcEEEE","__ZNK4logs5proto3geo2ar26UncertaintyPreserverConfig12ByteSizeLongEv","__ZN17VROBodyTrackeriOS17startBodyTrackingEv","__ZN4viro13Node_SkeletonC2Ev","_BGRAToUVRow_NEON","_kai_get_lhs_offset_matmul_clamp_qai8_qai8_qsi8cxp2vlx4sb_1x16vl_sme2_dot","_sk_pop","__ZN3p2t8Triangle11NeighborCCWERKNS_5PointE","__ZN3geo2ar3lib19InertialAnchorFlagsC2EPN6proto25ArenaE","_xnn_qp8_f32_qb4w_gemm_minmax_ukernel_1x4c8s2__aarch64_neondot","__ZN6tflite5async20AsyncSignatureRunner16UnregisterBufferEi","__ZN9superroot9knowledge9astronomy9HourAngleEN4absl4TimeEd","__ZN13google_public8protobuf2io16CodedInputStream4SkipEi","_u_strcspn_77","__Z26StackTrace_GetCensusRootIdPK10StackTrace","__ZN23btDiscreteDynamicsWorld13removeVehicleEP17btActionInterface","__ZNK6google3geo2ar2v111FacadesCell18_InternalSerializeEPhPN6proto22io19EpsCopyOutputStreamE","__ZN4absl12ToChronoTimeENS_4TimeE","__ZN6proto28internal8TcParser9FastF32R1EPNS_11MessageLiteEPKcPNS0_12ParseContextENS0_11TcFieldDataEPKNS0_16TcParseTableBaseEy","_kai_get_rhs_packed_size_rhs_pack_nxk_qsi4cxps1s0_qsu4cxs1s0_neon","_OPENSSL_memdup","_BN_dup","__ZN17GoogleInitializer15RunInitializersEN4base8internal10LiteralTagEPKc","__ZNK3geo2ar7service27T2QueryTerrainMeshesRequest12GetClassDataEv","_RSAPrivateKey_dup","_OPENSSL_strdup","__ZNK17VRODualQuaternionmlEf","__ZN23VROPhotometricLightTest5buildENSt3__110shared_ptrI11VRORendererEENS1_I20VROFrameSynchronizerEENS1_I9VRODriverEE","_xnn_internal_delete_weights_cache","__ZNK13google_public8protobuf11MessageLite32SerializePartialToZeroCopyStreamEPNS0_2io20ZeroCopyOutputStreamE","__ZN13google_public8protobuf14FatalExceptionD1Ev","__ZN3geo2ar7service18T2LocalizeResponseD2Ev","_stbi_zlib_decode_noheader_buffer","__ZNK4logs5proto3geo2ar22FrameRejectReasonEvent12ByteSizeLongEv","__ZN9superroot9knowledge23SunriseSunsetCalculator9NextTimesEN4absl4TimeEPS3_S4_S4_","__ZN6tflite3ops7builtin32Register_STABLEHLO_REDUCE_WINDOWEv","_biQuadFilterProcessSample","__ZN11VRORenderer16notifyFrameStartEv","_create_depth_to_space_nchw2nhwc","__ZN13VROByteBuffer11writeFloatsEPfi","__ZNK4viro22Node_Geometry_Material24SerializeWithCachedSizesEPN13google_public8protobuf2io17CodedOutputStreamE","__ZNK4logs5proto3geo2ar19InertialAnchorFlags12GetClassDataEv","__ZN6tflite5async20AsyncSignatureRunner19SetBufferAttributesEPK19TfLiteBackendBufferPK18TfLiteAttributeMap","__ZN7vraudio14ProcessingNode16GetSharedNodePtrEv","__ZNK8octomath6Pose6DmlERKS0_","__ZNK3geo2ar7service19LocalAreaParameters18_InternalSerializeEPhPN6proto22io19EpsCopyOutputStreamE","__ZN3geo2ar7service22T2QueryFacadesResponseC1EPN6proto25ArenaE","_TfLiteInterpreterGetInputTensorCount","__ZNK6google8internal7android8location7bluesky4type15GnssMeasurement18_InternalSerializeEPhPN6proto22io19EpsCopyOutputStreamE","_silk_decode_frame","_Android420ToARGB","__ZN6google8internal7android8location7bluesky7v1beta148GetGridProbabilitiesResponse_ObservationResponse8CopyFromERKS5_","__ZN4viro28Node_SkeletalAnimation_FrameD1Ev","__ZN8VROLight20convertGammaToLinearE11VROVector3f","_xnn_f32_vexp_ukernel__neon_rational_3_2_div_u8","__ZN6proto28internal18EpsCopyInputStream31ReadArenaStringFallbackWithSizeEPKcmPNS0_18InlinedStringFieldEPNS_5ArenaEPjjPNS_11MessageLiteE","__ZN7vraudio17VrAudioEngineImpl15SetHeadPositionEfff","__ZN6tflite12ParseMinimumEPKNS_8OperatorEPNS_13ErrorReporterEPNS_20BuiltinDataAllocatorEPPv","__ZNK4logs5proto3geo2ar27PoseLikelihoodFunctionProto12GetClassDataEv","_SetRow_Any_NEON","__ZN9perftools7tracing10StringBase3Raw9CopyValueES2_","_CBB_add_u8_length_prefixed","__ZN3ruy3Ctx16GetMainAllocatorEv","__ZN4logs5proto3geo2ar25ImageFrameLocalizerConfigD1Ev","__ZN6google3geo2ar2v120StartSessionResponseC2EPN6proto25ArenaE","__ZNK3geo2ar3lib43ParticleFilterConfig_RoadOrientationOptions18_InternalSerializeEPhPN6proto22io19EpsCopyOutputStreamE","__ZN23btDiscreteDynamicsWorld18addCollisionObjectEP17btCollisionObjectii","_SplitARGBRow_Any_NEON","__ZNK6google3geo2ar2v120StartSessionResponse12ByteSizeLongEv","__ZN3geo2ar43HorizontalPositionGaussianDistributionProtoD1Ev","__ZN8octomath6Pose6DaSERKS0_","__ZN15VROARSessioniOS12removeAnchorEP8ARAnchor","__ZN14VROTransaction17setTimingFunctionE21VROTimingFunctionType","__ZNK4absl8TimeZone14PrevTransitionENS_4TimeEPNS0_15CivilTransitionE","__ZN16VROChoreographer19createRenderTargetsEv","__ZN4absl18container_internal15ForcedTrySampleEmmmt","__ZN6icu_7713UnicodeStringC1EPKc","_bn_mod_lshift_consttime","__ZN4absl15ConvertDateTimeExiiiiiNS_8TimeZoneE","__ZNK4absl17BadStatusOrAccess4whatEv","_SobelXYRow_C","_ScaleUVRowUp2_Bilinear_16_NEON","__ZNK6tflite8Subgraph7GetNameEv","_cftb1st","_OPENSSL_cleanse","__ZN14btAngularLimit4testEf","_silk_gains_quant","__ZN6icu_7723UnicodeStringAppendable15appendCodePointEi","__ZN6tflite8Subgraph13ReleaseMemoryEv","_xnn_reshape_max_pooling2d_nhwc_f16","_ringBufferGetValueAtIndex","__ZN6proto22io16FileOutputStream5CloseEv","__Z25UTF8GenericReplaceTwoBytePK21UTF8StateMachineObj_2N4absl11string_viewENS2_4SpanIcEEbPiS6_S6_P9OffsetMap","__ZN7strings10ByteSource6CopyToEPNS_8ByteSinkEm","__ZN3geo2ar3lib47SmoothedTransformOptions_SimpleSmoothingOptionsD2Ev","__ZN7vraudio33ComputeLowPassMonoPoleCoefficientEfi","_kai_get_lhs_packed_offset_matmul_clamp_f32_qai8dxp4x8_qsi8cxp4x8_16x4_neon_i8mm","__ZN6proto22io17CodedOutputStreamD1Ev","__ZN7vraudio17AudioAssetManager20InitializeAudioAssetENSt3__110shared_ptrINS_10AudioAssetEEE","__ZN4logs5proto3geo2ar28RigidTransformWithConfidence8CopyFromERKS3_","__ZN6icu_7710CharString14ensureCapacityEiiR10UErrorCode","_CTR_DRBG_reseed","__ZN9util_time20DecodeGoogleApiProtoERKN6google8protobuf8DurationE","__ZN16CProfileIterator12Enter_ParentEv","__ZN23btDiscreteDynamicsWorld12removeActionEP17btActionInterface","_AR30ToARGBRow_C","__ZN8location8bluemoon22GaussianAnglePerturberC1E7S1Angleb","__ZN4absl13hash_internal19CityHash64WithSeedsEPKcmyy","__ZN4logs5proto3geo2ar24LocalizationRequestEventD0Ev","_BCM_mlkem1024_parse_public_key","__ZN6tflite9ParseLSTMEPKNS_8OperatorEPNS_13ErrorReporterEPNS_20BuiltinDataAllocatorEPPv","__ZNK4absl13time_internal4cctz12TimeZoneInfo16EquivTransitionsEhh","_BN_bn2dec","_CTR_DRBG_init","_I422ToARGBMatrixFilter","__ZN4viro18Node_Skeleton_Bone10SharedDtorEv","__ZN7vraudio10FftManager24GetPffftFormatFreqBufferERKNS_11ChannelViewEPS1_","_RGB24MirrorRow_C","_I444ToRAW","__ZN6tflite3ops7builtin4tile4InitEP13TfLiteContextPKcm","__ZN7strings28EightBase32DigitsToFiveBytesEPKcPh","_xnn_create_reduce_nd","__ZN4base16WithTraceContextC2EO12TraceContextN9perftools7tracing10StringImplILb1EEE","__ZN23VROFixedParticleEmitterD2Ev","_HMAC_CTX_reset","__ZN6google8internal7android8location7bluesky4type15EcefCoordinatesD2Ev","__ZNK6proto28internal12ExtensionSet9Extension8ByteSizeEi","__ZN15CProfileManager23Increment_Frame_CounterEv","__ZNK19VROGlyphAtlasOpenGL7getSizeEv","__ZNK3geo2ar10Detections18_InternalSerializeEPhPN6proto22io19EpsCopyOutputStreamE","__ZN13VROQuaternionC2Efff","_anti_collapse","__ZN4absl20RegisterLivePointersEPKvm","__ZN7SO3Util15rodriguesSo3ExpEP8Vector3dddP10Matrix3x3d","__ZNK11VROVector3f3dotERKS_","__ZNK6icu_7713UnicodeString13tempSubStringEii","__ZN19VROBodyIKController20getDisplayDebugCubesEv","_I420ToI422","_I444Copy","__ZN4absl13time_internal4cctz9time_zone4Impl3UTCEv","__ZN6tflite19ResetVariableTensorEP12TfLiteTensor","__ZN19VROStereoscopicTestD0Ev","__ZN3geo2ar45CameraIntrinsics_CityblockFisheyeV2DistortionC2EPN6proto25ArenaE","__ZNK3geo2ar3lib15NightTimeConfig18_InternalSerializeEPhPN6proto22io19EpsCopyOutputStreamE","__ZN6icu_775Edits12releaseArrayEv","__ZN3ion4base8DateTime13ParseYMStringERKNSt3__112basic_stringIcNS2_11char_traitsIcEENS2_9allocatorIcEEEEPS1_","__ZN4logs5proto3geo2ar24LocationOrientationEventD2Ev","_EC_KEY_new","__ZN8VROIKRig10formChainsENSt3__110shared_ptrI10VROIKJointEES3_RNS1_I10VROIKChainEE","__ZN7vraudio21PlanarFromInterleavedEPKsmmRKNSt3__16vectorIPfNS2_9allocatorIS4_EEEEm","_TfLiteXNNPackDelegateWeightsCacheCreateWithSize","__ZN3geo2ar7service34T2ResolveAnchorAndLocalizeResponseD1Ev","__ZN13VROQuaternion3setEfff","__ZN8tcmalloc13AddressRegionD0Ev","_EVP_MD_size","_xnn_create_deconvolution2d_nhwc_qd8_f32_qc8w","__ZN6google8internal7android8location7bluesky7v1beta146GetGridProbabilitiesRequest_ObservationRequest28clear_estimated_position_llaEv","_ARGBMultiplyRow_NEON","__ZN15VROARSessioniOS15setTrackingTypeE15VROTrackingType","__ZN3geo2ar3lib30HybridSurfaceElevationProvider10QueryProxyC2ENSt3__110shared_ptrINS2_9QueryImplEEE","__ZN4logs5proto3geo2ar18LightEstimateEventC2EPN6proto25ArenaE","__ZN23btGeneric6DofConstraint15setLinearLimitsEPN17btTypedConstraint17btConstraintInfo2EiRK11btTransformS5_RK9btVector3S8_S8_S8_","__ZN11VROARShadow21createSurfaceModifierEv","__ZN34VROEquirectangularToCubeRenderPassD2Ev","_ScaleRowUp2_Bilinear_Any_NEON","__ZN6tflite3ops7builtin11activations11ReluPrepareEP13TfLiteContextP10TfLiteNode","__ZN4absl13cord_internal11CordzHandleD1Ev","__ZN35btSequentialImpulseConstraintSolver24applyAnisotropicFrictionEP17btCollisionObjectR9btVector3i","_u_strToUTF32_77","__ZN13VROGLTFLoader15getWrappingModeEi","__ZN4absl16BytesToHexStringENS_11string_viewE","__ZN13google_public8protobuf2io20ZeroCopyOutputStreamD0Ev","__ZN4viro18Node_Geometry_Skin9MergeFromERKS0_","__ZN2ar5image19IsYuv420InterleavedERKNS_5ImageE","__ZN6google8internal7android8location7bluesky7v1beta127GetGridProbabilitiesRequestC1EPN6proto25ArenaE","_xnn_create_fully_connected_nc_qd8_f16_qb4w_f16_scales","__ZN3geo2ar3lib15SunAngleOptions5ClearEv","__ZN4absl5Mutex5BlockEPNS_13base_internal14PerThreadSynchE","__ZN6tflite3ops7builtin12batch_matmul7PrepareEP13TfLiteContextP10TfLiteNode","__ZN13VROByteBufferD1Ev","__ZN6google8internal7android8location7bluesky4type11DoubleValueD0Ev","__ZN13google_public8protobuf13StringAppendFEPNSt3__112basic_stringIcNS1_11char_traitsIcEENS1_9allocatorIcEEEEPKcz","__ZNK6google3geo2ar2v126QueryTerrainMeshesResponse12GetClassDataEv","__ZN3geo2ar7service49T2ResolveAnchorAndLocalizeResponse_ResolvedAnchor20set_allocated_statusEPN6google3rpc6StatusE","__ZN8location8bluemoon26UncertaintyPreserverConfigC2EPN6proto25ArenaERKS1_","__ZN3geo2ar34HeadingFromMotionDistributionProto9MergeImplERN6proto211MessageLiteERKS3_","__ZN3geo2ar35CloudLocalizationServiceResultProtoD0Ev","_ScaleRowDown34_16_C","__ZN6UniLib7ToUpperEN4absl11string_viewE","__ZN6tflite3ops7builtin11activations13LeakyReluInitEP13TfLiteContextPKcm","__ZNK6proto28internal11SerialArena9SpaceUsedEv","__ZNK8S2LatLng10NormalizedEv","_kai_get_lhs_packed_offset_matmul_clamp_f32_qai8dxp4x8_qsi4cxp4x4_16x4x32_neon_dotprod","__ZN6tflite3ops7builtin12Register_COSEv","_xnn_create_fully_connected_nc_qs8","_EC_POINT_invert","__ZN6google3geo2ar2v129PlaceLocationSource_Code_NameENS2_24PlaceLocationSource_CodeE","_UVScale","__ZN20VROSkeletalAnimation4copyEv","_xnn_weights_cache_look_up","__ZN6google8protobufmLERNS0_8DurationEx","__ZN6google8internal7android8location7bluesky4type9TimestampD2Ev","__ZN4viro39Node_Geometry_Material_CullMode_IsValidEi","__ZN4logs5proto3geo2ar47SmoothedTransformOptions_SimpleSmoothingOptionsD0Ev","__ZN25btTranslationalLimitMotor15solveLinearAxisEffR11btRigidBodyRK9btVector3S1_S4_iS4_S4_","_kai_get_lhs_packed_offset_matmul_clamp_f32_qai8dxp1x4_qsi8cxp4x4_1x4_neon_dotprod","_xnn_subgraph_fuse_unary_quantized_into_lut","__ZNK14VROLineSegment4getAEv","__ZN17VROAudioPlayeriOSD1Ev","__ZN4logs5proto3geo2ar21ClearcutLoggingConfigD0Ev","__ZN6google8internal7android8location7bluesky4type14LlaCoordinatesC2EPN6proto25ArenaERKS5_","_kai_get_kr_matmul_clamp_f32_qai8dxp4x8_qsi4c32p4x8_16x4x32_neon_i8mm","__ZNK3geo2ar14RequestMetrics12GetClassDataEv","__ZN6google3geo2ar2v113CacheContentsD0Ev","__ZN16VROChoreographerC1E24VRORendererConfigurationNSt3__110shared_ptrI9VRODriverEE","__ZN4logs5proto3geo2ar9GnssEvent5ClearEv","__ZN3geo2ar3lib28QuaternionToCityblockDegreesERKN5Eigen10QuaternionIdLi0EEE","__ZN21btConeTwistConstraint13calcAngleInfoEv","__ZN4logs5proto3geo2ar19InertialAnchorFlagsD1Ev","_opus_multistream_decode_float","__ZN3geo2ar3lib15BearingReporter28ComputeAnchorBearingVarianceERKNS2_10AnchorPairE","__ZN3geo2ar3lib24PoseStabilityMonitorImplC1ENS1_48ClearcutLoggingConfig_PoseStabilityMonitorConfigE","__ZN12VROProjector9unprojectE11VROVector3fPKfPKiPS0_","__ZNK4logs5proto3geo2ar29LowLightImageProcessingConfig12ByteSizeLongEv","__ZNK4viro13Node_Skeleton13IsInitializedEv","__ZThn24_N17VROAudioPlayeriOS11dataIsReadyEv","_EVP_DigestSignFinal","__ZN9perftools7tracing18TraceEventListener16OnTraceEnterSyncEjNS0_10StringImplILb1EEE","__ZN13google_public8protobuf2io16GzipOutputStreamD0Ev","__ZN8tcmalloc15MallocExtension27GetMaxTotalThreadCacheBytesEv","__ZN14VROGlyphOpenGL17loadOutlineBitmapEP14FT_LibraryRec_P11FT_FaceRec_jjjPNSt3__16vectorINS4_10shared_ptrI13VROGlyphAtlasEENS4_9allocatorIS8_EEEENS6_I9VRODriverEE","__ZN6tflite3ops7builtin5where4EvalEP13TfLiteContextP10TfLiteNode","__ZNK11btRigidBody28calculateSerializeBufferSizeEv","__ZN11RunInThread12NotifyThreadEPK10LiveThreadi","__ZN6google3geo2ar2v119QueryFacadesRequestD1Ev","__ZN4logs5proto3geo2ar48RealDeadReckonedPoseMixerConfig_ReinitConditions5ClearEv","__ZN6tflite22NudgeQuantizationRangeEffiiPfS0_S0_","__ZN3geo2ar3lib26RigidTransformFromLogProtoERKN4logs5proto3geo2ar19RigidTransformProtoE","__ZN8VROPlaneD2Ev","_ogg_sync_pageseek","__ZN14VROARPlaneTestD0Ev","__ZN22VROARConstraintMatcher16findDetachedNodeENSt3__110shared_ptrI11VROARAnchorEE","__ZN23btGeneric6DofConstraint8setParamEifi","_kai_get_bias_offset_rhs_pack_kxn_f32p2vlx1biasf32_f32_f32_sme","__ZN4logs5proto3geo2ar22BearingTrackingOptionsD2Ev","__Z11GetAllFlagsPNSt3__16vectorI19CommandLineFlagInfoNS_9allocatorIS1_EEEE","__ZN4util10ErrorSpace8RegisterEN4absl11string_viewEPKS0_","__ZN6google8internal7android8location7bluesky7v1beta146GetGridProbabilitiesRequest_ObservationRequest11clear_clockEv","__ZN6tflite12tensor_utils24NeonVectorScalarMultiplyEPKaifPf","__ZN4absl6Status15PrepareToModifyEm","__ZN8S2CellId10FromFaceIJEiii","__ZN4viro22Node_Geometry_Material8CopyFromERKS0_","_xnn_reshape_constant_pad_nd_x16","__ZN6tflite3ops7builtin22Register_STABLEHLO_ADDEv","__ZN14VROPhysicsBody7setTypeENS_18VROPhysicsBodyTypeEf","__ZN9VROIKTest26testSingleTJointRigComplexEv","__ZNK8location8bluemoon14inertialanchor40EmpiricalHeadingUncertaintyModelFeatures12GetClassDataEv","__ZN3geo2ar7service22T2QueryFacadesResponse9MergeImplERN6proto211MessageLiteERKS4_","__ZN15VROParticleTest26toggleParticleEmitterPauseEv","__ZN11VRORenderer14unprojectPointE11VROVector3f","__ZN3geo2ar3lib20LocalizationProvider22ProcessPerformanceModeENS1_15PerformanceModeE","__ZN6google3geo2ar2v119StartSessionRequestC2EPN6proto25ArenaERKS3_","_rdft","__ZN6tflite3ops6custom21detection_postprocess17DecreasingArgSortEPKfiPi","__ZN3geo2ar14PlaceIdOptions9MergeImplERN6proto211MessageLiteERKS3_","__ZN6google8internal7android8location7bluesky7v1beta148GetGridProbabilitiesResponse_ObservationResponseC1EPN6proto25ArenaE","__ZN6tflite3ops7builtin14Register_PADV2Ev","__ZN8tcmalloc10MallocHook17AddSampledNewHookEPFvRKNS0_12SampledAllocEE","_EVP_PKEY_CTX_set_rsa_keygen_pubexp","__ZN6proto211MessageLite15ParseFromStringERKN4absl4CordE","_xnn_subgraph_check_output_type_dense","__ZN6proto28internal8TcParser9FastV64S2EPNS_11MessageLiteEPKcPNS0_12ParseContextENS0_11TcFieldDataEPKNS0_16TcParseTableBaseEy","__ZThn232_N18VROVideoTextureiOS16onFrameDidRenderERK16VRORenderContext","_OPENSSL_tolower","__ZN25VROGaussianBlurRenderPass20setNumBlurIterationsEi","_kai_get_n_step_rhs_pack_nxk_qsi4c32p_qsu4c32s1s0","__ZN3geo2ar3lib14PoseConfidenceD0Ev","__ZN3ion4base16logging_internal12SingleLoggerD1Ev","__ZN3p2t14AdvancingFront10LocateNodeEd","__ZN4logs5proto3geo2ar49RealDeadReckonedPoseMixerConfig_UncertaintyRatiosC2EPN6proto25ArenaERKS3_","__ZN13google_public8protobuf8internal14WireFormatLite11WriteDoubleEidPNS0_2io17CodedOutputStreamE","__ZNK8S2CellId12advance_wrapEx","__ZN6google3geo2ar2v16LatLngD1Ev","__ZN3geo2ar14PlaceIdOptions41set_allocated_placement_geometry_data_tagEPNS0_26PlaceIdOptions_DataTagListE","__ZN11VROMaterial13updateSortKeyER10VROSortKeyRKNSt3__16vectorINS2_10shared_ptrI8VROLightEENS2_9allocatorIS6_EEEERK16VRORenderContextRNS4_I9VRODriverEE","__ZN4logs5proto3geo2ar15SunAngleOptions12InternalSwapEPS3_","__ZN6proto28internal8TcParser9FastF64P1EPNS_11MessageLiteEPKcPNS0_12ParseContextENS0_11TcFieldDataEPKNS0_16TcParseTableBaseEy","__ZN6tflite3ops7builtin16Register_RESHAPEEv","__ZN6Varint18Skip32BackwardSlowEPKcS1_","__ZN3geo2ar3lib16ComposeEnuRWorldERK7S1Angle","__ZN13VROStringUtil17strcmpinsensitiveERKNSt3__112basic_stringIcNS0_11char_traitsIcEENS0_9allocatorIcEEEES8_","__ZN14VROARCameraiOS13getProjectionE11VROViewportffP14VROFieldOfView","__ZN3geo2ar3lib30BatchingSurfaceElevationClient35ReceiveBatchQueryElevationsResponseENSt3__16vectorINS3_10shared_ptrINS2_5QueryEEENS3_9allocatorIS7_EEEEibN4absl8StatusOrINS0_7service30T2BatchQueryElevationsResponseEEE","__ZN4logs5proto3geo2ar11SensorCountC1EPN6proto25ArenaERKS3_","__ZN13VROQuaternionmLERKS_","_ScaleARGBRowDownEven_NEON","__ZN6icu_7712PatternProps14skipWhiteSpaceEPKDsi","__ZN6proto28internal32StringSpaceUsedExcludingSelfLongERKNSt3__112basic_stringIcNS1_11char_traitsIcEENS1_9allocatorIcEEEE","__ZNK14VROLineSegment18orientationOfPointE11VROVector3f","__ZN6google3geo2ar2v135CloudLocalizationServiceResultProto19clear_base_t_cameraEv","__ZN16VROShaderFactory31createPBRDirectLightingModifierEv","_ec_GFp_simple_point_copy","__ZNK4absl11string_view5rfindES0_m","_RAWToI420","__ZN11VRORenderer14setPointOfViewENSt3__110shared_ptrI7VRONodeEE","__ZN4absl13base_internal18ThrowStdOutOfRangeEPKc","_kai_get_kr_matmul_clamp_f32_f32p2vlx1_f32p2vlx1b_2vlx2vl_sme_mopa","__ZN6google3rpc6Status5ClearEv","__ZN20btConvexHullInternal15computeInternalEiiRNS_16IntermediateHullE","__ZN9VROIKTest6onDragEiNSt3__110shared_ptrI7VRONodeEE11VROVector3f","_utrace_setFunctions_77","__ZN9BuildData10TargetNameEv","__ZNK6proto28internal12ExtensionSet15LazyHasUnparsedEi","__ZN4logs5proto3geo2ar11GeoArLibLogC2EPN6proto25ArenaERKS3_","__ZN6tflite12tensor_utils14ShuffleVectorsEPKaiiPPv","_YUY2ToYRow_Any_NEON","__ZN6tflite5async20AsyncSignatureRunner4WaitEP19TfLiteExecutionTask","__ZN4logs5proto3geo2ar33AdaptiveImageFrameLocalizerConfigD2Ev","__ZN7strings17Base32HexUnescapeERKNSt3__112basic_stringIcNS0_11char_traitsIcEENS0_9allocatorIcEEEEPS6_","__ZN8S2CellId20ExpandedByDistanceUVERK6R2Rect7S1Angle","__ZN22VROInputControllerBase16debugMoveReticleEv","__ZNK8location8bluemoon24UniformPositionPerturber7PerturbERKN5Eigen6MatrixIdLi3ELi1ELi0ELi3ELi1EEEP10RandomBase","__ZN10VROOBJTestC1Ev","_opus_tags_get_track_gain","_I410Rotate","__ZN6tflite9ParsePoolEPKNS_8OperatorEPNS_13ErrorReporterEPNS_20BuiltinDataAllocatorEPPv","__Z29GEOARMatrixFloat3x3ToMatrix3dRK13simd_float3x3","__ZN3geo2ar40CloudLocalizationLikelihoodFunctionProto12InternalSwapEPS1_","__ZN6google3geo2ar2v14Mesh16clear_feature_idEv","_kai_get_bias_offset_rhs_imatmul_pack_kxn_qsi8cxp2vlx4sb_qs8cx_f32_i32_sme","__ZN6google3geo2ar2v15PointC2EPN6proto25ArenaE","__ZN6google3geo2ar2v127WalkingHazardArea_Type_NameENS2_22WalkingHazardArea_TypeE","_celt_pitch_xcorr_c","__ZN6tflite5async20AsyncSignatureRunner19GetBufferAttributesEPK19TfLiteBackendBufferP18TfLiteAttributeMap","_kai_get_sr_matmul_clamp_f16_f16p2vlx2_f16p2vlx2_2vlx2vl_sme2_mopa","__ZN9VROAction23perpetualAnimatedActionENSt3__18functionIFvP7VRONodeEEE21VROTimingFunctionTypef","__ZN10Matrix3x3d10plusEqualsEPS_","__ZN6google8protobuf8internal11LogFinisheraSERNS1_10LogMessageE","_cftmdl1","__ZN6google8protobuf8internal10LogMessagelsEj","__ZN7VRONode5cloneEv","_CBB_add_u32le","__ZN3geo2ar7service33T2ResolveAnchorAndLocalizeRequestC1EPN6proto25ArenaERKS2_","_ARGBToRAWRow_SVE2","_kai_get_nr_matmul_clamp_f16_f16p2vlx2_f16p2vlx2_2vlx2vl_sme2_mopa","__ZN4absl4Cord9InlineRep10AppendTreeEPNS_13cord_internal7CordRepENS2_18CordzUpdateTracker16MethodIdentifierE","__ZN8VROLight17setSpotInnerAngleEf","__ZN4absl12Base64EscapeEPKhlPcl","__ZN4base26ProgramInvocationShortNameEv","_xnn_create_fully_connected_nc_qu8","__ZN3geo2ar3lib15GetSunDirectionEN5Eigen6MatrixIdLi3ELi1ELi0ELi3ELi1EEEN4absl4TimeE","_DSA_marshal_public_key","__ZN3ion4base16logging_internal6LoggerD2Ev","__ZN6google3geo2ar2v114CircularRegionD2Ev","__ZN14VROPhysicsBody6getTagEv","__ZNK4logs5proto3geo2ar15QuaternionProto12GetClassDataEv","__ZN4absl13cord_internal9CordzInfo15GetParentMethodEPKS1_","_xnn_create_binary_elementwise_nd","__ZN10VROFrustumD1Ev","__ZN3geo2ar3lib24SmoothedTransformOptionsC2EPN6proto25ArenaE","_opus_decoder_destroy","_I444ToNV21","__ZN6tflite3ops7builtin5split19ResizeOutputTensorsEP13TfLiteContextP10TfLiteNodePK12TfLiteTensorS9_i","_BN_MONT_CTX_new","__ZN11VROMaterialC2Ev","__ZN4logs5proto3geo2ar43ParticleFilterConfig_RoadOrientationOptionsC1EPN6proto25ArenaE","__ZN3geo2ar22PoseToEcefTCameraProtoERKNS0_4PoseE","_kai_get_rhs_packed_offset_matmul_clamp_f32_qai8dxp1x4_qsi8cxp4x4_1x4_neon_dotprod","__ZN4absl12log_internal15FormatLogPrefixENS_11LogSeverityENS_4TimeEiNS_11string_viewEiNS0_12PrefixFormatERNS_4SpanIcEE","_EVP_aes_256_ofb","__ZN3geo2ar3lib19ActualSurfaceAnchor24UnresolvableStateHandler5EnterEv","__ZN8location8bluemoon36HeadingFromMotionDistributionOptions8CopyFromERKS1_","__ZN6google3geo2ar2v119FacadesCellContents18clear_terrain_meshEv","__ZN4absl13base_internal10MallocHook18InvokeMmapHookSlowEPKvS3_miiix","__ZNK14VROLineSegment15traverseFromEndEf","_ScaleRowUp2_Bilinear_C","__ZNK3gvr14PlatformThread9IsRunningEv","__ZN15inertial_anchor8platform21GlobalLogStringStream6AppendEm","_SHA384_Final","__ZN4logs5proto3geo2ar21InertialAnchorOptions12InternalSwapEPS3_","_xnn_setup_slice_nd_x32","_EVP_CIPHER_CTX_set_app_data","_xnn_normalize_reduction","__ZN4absl20DefaultStackUnwinderEPPvPiiiPKvS2_","__ZN8VROLight27setAttenuationStartDistanceEf","__ZN3p2t8Orient2dERKNS_5PointES2_S2_","__ZN7strings12Base32EscapeERKNSt3__112basic_stringIcNS0_11char_traitsIcEENS0_9allocatorIcEEEEPS6_","__ZN15inertial_anchor8platform21GlobalLogStringStreamD2Ev","__ZN6proto211MessageLite27ParsePartialFromCodedStreamEPNS_2io16CodedInputStreamE","__ZNK13google_public8protobuf11MessageLite24SerializePartialToStringEPNSt3__112basic_stringIcNS2_11char_traitsIcEENS2_9allocatorIcEEEE","__ZN6tflite3ops7builtin23Register_REDUCE_MIN_OPTEv","__ZN4logs5proto3geo2ar13Vector3dProtoD0Ev","__ZN9util_time14ComputeBackoffEN4absl8DurationES1_i","__ZN6tflite8IsFlexOpEPKc","__ZNK4absl19str_format_internal10Streamable5PrintERNSt3__113basic_ostreamIcNS2_11char_traitsIcEEEE","__ZN3geo2ar3lib22InertialAnchorReporter25MaybeCreatePoseLikelihoodEN4absl8DurationEPNSt3__18optionalIN5Eigen10QuaternionIdLi0EEEEE","__ZN4base23SetCurrentSharedContextENS_19SharedContextAccessEN8refcount10reffed_ptrINS_8internal13SharedContextEEE","_EC_KEY_generate_key","__ZNK6google3geo2ar2v114ElevationQuery18_InternalSerializeEPhPN6proto22io19EpsCopyOutputStreamE","__ZN7vraudio17VrAudioEngineImpl15UnloadSoundFileERKNSt3__112basic_stringIcNS1_11char_traitsIcEENS1_9allocatorIcEEEE","_ARGB1555ToYRow_NEON","__ZN8VROIKRigC1ENSt3__110shared_ptrI11VROSkeletonEENS0_3mapINS0_12basic_stringIcNS0_11char_traitsIcEENS0_9allocatorIcEEEEiNS0_4lessISA_EENS8_INS0_4pairIKSA_iEEEEEE","__ZN6tflite12tensor_utils43NeonVectorBatchVectorCwiseProductAccumulateEPKsiS2_iiiPs","__ZN4logs5proto3geo2ar21SessionHeartbeatEvent5ClearEv","__ZN6google3geo2ar2v119WarmUpCacheResponse27clear_local_area_parametersEv","__ZN18VROParticleEmitter17setBloomThresholdEf","_celt_lcg_rand","__ZN4absl9StrAppendEPNSt3__112basic_stringIcNS0_11char_traitsIcEENS0_9allocatorIcEEEERKNS_8AlphaNumE","__ZN4absl18EndsWithIgnoreCaseENS_11string_viewES0_","__ZN22VROBodyRecognitionTest5buildENSt3__110shared_ptrI11VRORendererEENS1_I20VROFrameSynchronizerEENS1_I9VRODriverEE","__ZN6tflite12tensor_utils35MatrixBatchVectorMultiplyAccumulateEPKfiiS2_iPf","__ZN4logs5proto3geo2ar24CloudLocalizationOptions12InternalSwapEPS3_","_cpuinfo_get_processors_count","__ZNK6proto211MessageLite21AppendPartialToStringEPNSt3__112basic_stringIcNS1_11char_traitsIcEENS1_9allocatorIcEEEE","__ZN4absl16raw_log_internal17RegisterAbortHookEPFvPKciS2_S2_S2_E","__ZN7vraudio8SinkNode7CleanUpEv","__ZN7vraudio17VrAudioEngineImplD0Ev","__ZN12VROTorusTest5buildENSt3__110shared_ptrI11VRORendererEENS1_I20VROFrameSynchronizerEENS1_I9VRODriverEE","__ZN14VROPhysicsTestD1Ev","_kai_get_dst_size_matmul_clamp_f32_f32_f32p2vlx1b_1x16vl_sme2_mla","__ZN4logs5proto3geo2ar16SensorCountEvent5ClearEv","_ScaleRowDown2Linear_16_C","__ZN22VROAVCaptureController11initCaptureE17VROCameraPosition20VROCameraOrientationbNSt3__110shared_ptrI9VRODriverEE","_I210ToAR30MatrixFilter","_ScaleARGBRowDown2Box_C","__ZN6google3geo2ar2v127PoseLikelihoodFunctionProtoD2Ev","_kai_get_sr_matmul_clamp_f16_f16_f16p2vlx2b_1x16vl_sme2_dot","__ZNK4logs5proto3geo2ar15QuaternionProto18_InternalSerializeEPhPN6proto22io19EpsCopyOutputStreamE","_bn_mul_comba8","_xnn_create_max_pooling2d_nhwc_s8","__ZN4logs5proto3geo2ar33CameraIntrinsics_RadialDistortion9MergeImplERN6proto211MessageLiteERKS5_","__ZN6google3geo2ar2v15PointC2EPN6proto25ArenaERKS3_","__ZN35btSequentialImpulseConstraintSolver35getScalarConstraintRowSolverGenericEv","__ZN4viro28Node_KeyframeAnimation_FrameD2Ev","__ZN3p2t12SweepContext17InitTriangulationEv","_xnn_define_static_expand_dims","__ZN3geo2ar3lib48LowLightImageProcessingConfig_PixelBinningConfigC1EPN6proto25ArenaE","_CRYPTO_get_ex_new_index_ex","__ZN4absl13base_internal10MallocHook17RemovePreMmapHookEPFvPKvmiiixE","__ZN3geo2ar3lib24PoseStabilityMonitorImplC2ENS1_48ClearcutLoggingConfig_PoseStabilityMonitorConfigE","_SplitRGBPlane","_ERR_clear_error","__ZN8tcmalloc15MallocExtension30SetSkipSubreleaseShortIntervalEN4absl8DurationE","__ZN4absl18container_internal28SetHashtablezEnabledInternalEb","__ZNK3geo2ar22CovarianceMatrix3Proto12ByteSizeLongEv","__ZN3geo2ar3lib48ClearcutLoggingConfig_PoseStabilityMonitorConfigC1EPN6proto25ArenaERKS2_","__ZN4viro29Node_Geometry_Material_VisualC2Ev","_BCM_mlkem1024_generate_key","__ZNK4absl11string_view13find_first_ofES0_m","__ZN4absl14Base64UnescapeENS_11string_viewEPNSt3__112basic_stringIcNS1_11char_traitsIcEENS1_9allocatorIcEEEE","__ZN6proto28internal15ThreadSafeArena22SentrySerialArenaChunkEv","__ZN3geo2ar7service11CellTerrainC1EPN6proto25ArenaE","__ZN3geo2ar3lib44ClearcutLoggingConfig_SessionHeartbeatConfigD2Ev","__ZN7vraudio27VrAudioEngineImplDeprecated17CreateStereoSoundERKNSt3__112basic_stringIcNS1_11char_traitsIcEENS1_9allocatorIcEEEE","__ZN6tflite7xnnpack14FileDescriptor5ResetEi","__ZN26VROViewRecorderRTTDelegateC2EP15VROViewRecorderNSt3__110shared_ptrI10VROTextureEENS3_I11VRORendererEENS3_I9VRODriverEE","__ZN3geo2ar3lib19ActualSurfaceAnchor20ResolvedStateHandlerC1EPS2_RKNS0_10FramePointILNS0_9FrameTypeE5EEEdRKN5Eigen10QuaternionIdLi0EEE","__ZN6proto22io18StringOutputStreamC1EPNSt3__112basic_stringIcNS2_11char_traitsIcEENS2_9allocatorIcEEEE","__ZN23btDiscreteDynamicsWorld13addConstraintEP17btTypedConstraintb","__ZN3geo2ar16CameraIntrinsics42set_allocated_cityblock_fisheye_distortionEPNS0_43CameraIntrinsics_CityblockFisheyeDistortionE","__ZN10VROMorpher19processMorphTargetsEbRNSt3__16vectorINS0_10shared_ptrI17VROGeometrySourceEENS0_9allocatorIS4_EEEE","__ZN6tflite3ops7builtin5where7PrepareEP13TfLiteContextP10TfLiteNode","__ZN4logs5proto3geo2ar25ImageFrameLocalizerConfig5ClearEv","__ZN6google8internal7android8location7bluesky7v1beta115CompactGridEcef8CopyFromERKS5_","__ZN3geo2ar33CameraIntrinsics_RadialDistortionD1Ev","__ZNK4logs5proto3geo2ar31RealDeadReckonedPoseMixerConfig12ByteSizeLongEv","__ZN9superroot9knowledge9astronomy38EquatorialCoordinatesToAltitudeAzimuthEddN4absl4TimeEdd","__ZN6google3geo2ar2v113CacheContents12InternalSwapEPS3_","_kai_get_rhs_packed_offset_matmul_clamp_f32_qai8dxp1x4_qsi8cxp4vlx4_1x4vl_sme2_dot","_RAND_pseudo_bytes","__ZNK20VROPropertyAnimation8toStringEv","__ZN17VROShaderModifierC1E19VROShaderEntryPointNSt3__16vectorINS1_12basic_stringIcNS1_11char_traitsIcEENS1_9allocatorIcEEEENS6_IS8_EEEE","__ZN6proto22io16CordOutputStream4NextEPPvPi","__ZNK8octomath7Vector311writeBinaryERNSt3__113basic_ostreamIcNS1_11char_traitsIcEEEE","__ZN6tflite3ops7builtin7reshape4FreeEP13TfLiteContextPv","__ZN4viro21Node_Geometry_ElementC1ERKS0_","__ZN6tflite9profiling12RootProfiler11AddProfilerEONSt3__110unique_ptrINS_8ProfilerENS2_14default_deleteIS4_EEEE","_BORINGSSL_self_test","_gvr_audio_create_sound_object","_xnn_shape_get_dim","__ZN16VROTextFormatter7justifyERNSt3__112basic_stringIwNS0_11char_traitsIwEENS0_9allocatorIwEEEEffif15VROTextClipModeRNS0_3mapIjNS0_10shared_ptrI8VROGlyphEENS0_4lessIjEENS4_INS0_4pairIKjSC_EEEEEE","__ZN6proto22io21ByteSourceInputStream8ReadCordEPN4absl4CordEi","__ZN6proto28internal14WireFormatLite11WriteUInt32EijPNS_2io17CodedOutputStreamE","__ZN17VROMaterialVisual8setColorE11VROVector4f","_ec_point_mul_scalar_public_batch","__ZN9BuildData18BaselineChangelistEv","__ZN6proto28internal12ExtensionSet12InternalSwapEPS1_","__ZN19VROARAnchorInertialC1Ev","__ZN7octomap10Pointcloud17transformAbsoluteEN8octomath6Pose6DE","__ZN3geo2ar3lib12GnssReporter12AddGnssEventERKN2ar14infrastructure9GnssEventE","_kai_get_kr_matmul_clamp_f16_f16p2vlx2_f16p2vlx2_2vlx2vl_sme2_mopa","__ZN10VROARScene15updateWorldMeshEv","__ZNK21VROTypefaceCollection20computeCoverageScoreERNSt3__110shared_ptrI11VROTypefaceEEjj","__ZN25VROImagePostProcessOpenGL18drawScreenSpaceVAREv","__ZN3geo2ar3lib9DevConfigD0Ev","_ARGBToARGB1555Row_Any_NEON","__Z29UTF8GenericPropertyBigOneBytePK19UTF8StateMachineObjPPKhPi","_CBS_get_u64","__ZN11V